

Microchip MPLAB XC8 Assembler V2.46 build 20240104201356 
                                                                                               Thu Sep 26 15:16:43 2024

Microchip MPLAB XC8 C Compiler v2.46 (Free license) build 20240104201356 Og1 
     1                           	processor	18F46K20
     2                           	fnconf	rparam,??,?,0
     3                           	pagewidth 120
     4                           	opt	flic
     5                           	psect	idataCOMRAM,global,class=CODE,delta=1,noexec
     6                           	psect	idataBANK0,global,class=CODE,delta=1,noexec
     7                           	psect	smallconst,global,reloc=2,class=SMALLCONST,delta=1,noexec
     8                           	psect	cinit,global,reloc=2,class=CODE,delta=1
     9                           	psect	bssCOMRAM,global,class=COMRAM,space=1,delta=1,lowdata,noexec
    10                           	psect	dataCOMRAM,global,class=COMRAM,space=1,delta=1,lowdata,noexec
    11                           	psect	bssBANK0,global,class=BANK0,space=1,delta=1,lowdata,noexec
    12                           	psect	dataBANK0,global,class=BANK0,space=1,delta=1,lowdata,noexec
    13                           	psect	cstackBANK0,global,class=BANK0,space=1,delta=1,lowdata,noexec
    14                           	psect	cstackCOMRAM,global,class=COMRAM,space=1,delta=1,lowdata,noexec
    15                           	psect	text0,global,reloc=2,class=CODE,delta=1
    16                           	psect	text1,global,reloc=2,class=CODE,delta=1
    17                           	psect	text2,global,reloc=2,class=CODE,delta=1
    18                           	psect	text3,global,reloc=2,class=CODE,delta=1
    19                           	psect	text4,global,reloc=2,class=CODE,delta=1,group=1
    20                           	psect	text5,global,reloc=2,class=CODE,delta=1,group=1
    21                           	psect	text6,global,reloc=2,class=CODE,delta=1,group=1
    22                           	psect	text7,global,reloc=2,class=CODE,delta=1,group=1
    23                           	psect	text8,global,reloc=2,class=CODE,delta=1
    24                           	psect	text9,global,reloc=2,class=CODE,delta=1
    25                           	psect	text10,global,reloc=2,class=CODE,delta=1
    26                           	psect	text11,global,reloc=2,class=CODE,delta=1
    27                           	psect	text12,global,reloc=2,class=CODE,delta=1
    28                           	psect	text13,global,reloc=2,class=CODE,delta=1
    29                           	psect	text14,global,reloc=2,class=CODE,delta=1
    30                           	psect	text15,global,reloc=2,class=CODE,delta=1
    31                           	psect	intcode,global,reloc=2,class=CODE,delta=1
    32                           	psect	text17,global,reloc=2,class=CODE,delta=1
    33                           	psect	text18,global,reloc=2,class=CODE,delta=1
    34                           	psect	text19,global,reloc=2,class=CODE,delta=1
    35                           	psect	text20,global,reloc=2,class=CODE,delta=1
    36                           	psect	text21,global,reloc=2,class=CODE,delta=1
    37                           	psect	text22,global,reloc=2,class=CODE,delta=1
    38                           	psect	text23,global,reloc=2,class=CODE,delta=1
    39                           	psect	text24,global,reloc=2,class=CODE,delta=1
    40                           	psect	text25,global,reloc=2,class=CODE,delta=1
    41                           	psect	text26,global,reloc=2,class=CODE,delta=1
    42                           	psect	text27,global,reloc=2,class=CODE,delta=1
    43                           	psect	text28,global,reloc=2,class=CODE,delta=1
    44                           	psect	text29,global,reloc=2,class=CODE,delta=1
    45                           	psect	text30,global,reloc=2,class=CODE,delta=1
    46                           	psect	text31,global,reloc=2,class=CODE,delta=1
    47                           	psect	text32,global,reloc=2,class=CODE,delta=1
    48                           	psect	text33,global,reloc=2,class=CODE,delta=1
    49                           	psect	intsave_regs,global,class=BIGRAM,space=1,delta=1,noexec
    50                           	psect	rparam,global,class=COMRAM,space=1,delta=1,noexec
    51                           	psect	temp,global,ovrld,common,class=COMRAM,space=1,delta=1,lowdata
    52                           	psect	config,global,abs,ovrld,class=CONFIG,space=4,delta=1,noexec
    53   000000                     
    54                           ; Generated 12/10/2023 GMT
    55                           ; 
    56                           ; Copyright © 2023, Microchip Technology Inc. and its subsidiaries ("Microchip")
    57                           ; All rights reserved.
    58                           ; 
    59                           ; This software is developed by Microchip Technology Inc. and its subsidiaries ("Microch
      +                          ip").
    60                           ; 
    61                           ; Redistribution and use in source and binary forms, with or without modification, are
    62                           ; permitted provided that the following conditions are met:
    63                           ; 
    64                           ;     1. Redistributions of source code must retain the above copyright notice, this lis
      +                          t of
    65                           ;        conditions and the following disclaimer.
    66                           ; 
    67                           ;     2. Redistributions in binary form must reproduce the above copyright notice, this 
      +                          list
    68                           ;        of conditions and the following disclaimer in the documentation and/or other
    69                           ;        materials provided with the distribution. Publication is not required when
    70                           ;        this file is used in an embedded application.
    71                           ; 
    72                           ;     3. Microchip's name may not be used to endorse or promote products derived from th
      +                          is
    73                           ;        software without specific prior written permission.
    74                           ; 
    75                           ; THIS SOFTWARE IS PROVIDED BY MICROCHIP "AS IS" AND ANY EXPRESS OR IMPLIED WARRANTIES,
    76                           ; INCLUDING, BUT NOT LIMITED TO, THE IMPLIED WARRANTIES OF MERCHANTABILITY AND FITNESS F
      +                          OR
    77                           ; PURPOSE ARE DISCLAIMED.  IN NO EVENT SHALL MICROCHIP BE LIABLE FOR ANY DIRECT, INDIREC
      +                          T,
    78                           ; INCIDENTAL, SPECIAL, EXEMPLARY, OR CONSEQUENTIAL DAMAGES (INCLUDING BUT NOT LIMITED TO
    79                           ; PROCUREMENT OF SUBSTITUTE GOODS OR SERVICES; LOSS OF USE, DATA OR PROFITS; OR BUSINESS
    80                           ; INTERRUPTION) HOWSOEVER CAUSED AND ON ANY THEORY OF LIABILITY, WHETHER IN CONTRACT, ST
      +                          RICT
    81                           ; LIABILITY, OR TORT (INCLUDING NEGLIGENCE OR OTHERWISE) ARISING IN ANY WAY OUT OF THE U
      +                          SE OF
    82                           ; THIS SOFTWARE, EVEN IF ADVISED OF THE POSSIBILITY OF SUCH DAMAGE.
    83                           ; 
    84                           ; 
    85                           ; Code-generator required, PIC18F46K20 Definitions
    86                           ; 
    87                           ; SFR Addresses
    88   000000                     
    89                           	psect	idataCOMRAM
    90   0026E2                     __pidataCOMRAM:
    91                           	callstack 0
    92                           
    93                           ;initializer for _RB7_Flag
    94   0026E2  01                 	db	1
    95                           
    96                           ;initializer for _RB6_Flag
    97   0026E3  01                 	db	1
    98                           
    99                           ;initializer for _RB5_Flag
   100   0026E4  01                 	db	1
   101                           
   102                           ;initializer for _RB4_Flag
   103   0026E5  01                 	db	1
   104                           
   105                           	psect	idataBANK0
   106   002600                     __pidataBANK0:
   107                           	callstack 0
   108                           
   109                           ;initializer for _port_registers
   110   002600  80                 	db	128
   111   002601  0F                 	db	15
   112   002602  81                 	db	129
   113   002603  0F                 	db	15
   114   002604  82                 	db	130
   115   002605  0F                 	db	15
   116   002606  83                 	db	131
   117   002607  0F                 	db	15
   118   002608  84                 	db	132
   119   002609  0F                 	db	15
   120                           
   121                           ;initializer for _lat_registers
   122   00260A  89                 	db	137
   123   00260B  0F                 	db	15
   124   00260C  8A                 	db	138
   125   00260D  0F                 	db	15
   126   00260E  8B                 	db	139
   127   00260F  0F                 	db	15
   128   002610  8C                 	db	140
   129   002611  0F                 	db	15
   130   002612  8D                 	db	141
   131   002613  0F                 	db	15
   132                           
   133                           ;initializer for _tris_registers
   134   002614  92                 	db	146
   135   002615  0F                 	db	15
   136   002616  93                 	db	147
   137   002617  0F                 	db	15
   138   002618  94                 	db	148
   139   002619  0F                 	db	15
   140   00261A  95                 	db	149
   141   00261B  0F                 	db	15
   142   00261C  96                 	db	150
   143   00261D  0F                 	db	15
   144                           
   145                           ;initializer for _led_1
   146   00261E  03                 	db	3
   147                           
   148                           	psect	smallconst
   149   001000                     __psmallconst:
   150                           	callstack 0
   151   001000  00                 	db	0
   152   001001                     _btn_values:
   153                           	callstack 0
   154   001001  37                 	db	55
   155   001002  38                 	db	56
   156   001003  39                 	db	57
   157   001004  2F                 	db	47
   158   001005  34                 	db	52
   159   001006  35                 	db	53
   160   001007  36                 	db	54
   161   001008  37                 	db	55
   162   001009  31                 	db	49
   163   00100A  32                 	db	50
   164   00100B  33                 	db	51
   165   00100C  34                 	db	52
   166   00100D  23                 	db	35
   167   00100E  30                 	db	48
   168   00100F  3D                 	db	61
   169   001010  2B                 	db	43
   170   001011                     __end_of_btn_values:
   171                           	callstack 0
   172   000000                     _SPBRGH	set	4016
   173   000000                     _SPBRG	set	4015
   174   000000                     _TXREG	set	4013
   175   000000                     _TXSTAbits	set	4012
   176   000000                     _RCREG	set	4014
   177   000000                     _RCSTAbits	set	4011
   178   000000                     _TMR3L	set	4018
   179   000000                     _TMR3H	set	4019
   180   000000                     _TMR1L	set	4046
   181   000000                     _TMR1H	set	4047
   182   000000                     _TMR0L	set	4054
   183   000000                     _TMR0H	set	4055
   184   000000                     _INTCON2bits	set	4081
   185   000000                     _EECON2	set	4007
   186   000000                     _CCPR2H	set	4028
   187   000000                     _CCPR2L	set	4027
   188   000000                     _CCPR1H	set	4031
   189   000000                     _CCPR1L	set	4030
   190   000000                     _ADCON1bits	set	4033
   191   000000                     _ADRESL	set	4035
   192   000000                     _ADRESH	set	4036
   193   000000                     _INTCONbits	set	4082
   194   000000                     _TRISD	set	3989
   195   000000                     _TRISC	set	3988
   196   000000                     _TRISB	set	3987
   197   000000                     _TRISE	set	3990
   198   000000                     _TRISCbits	set	3988
   199   000000                     _PORTBbits	set	3969
   200   000000                     _PIE1bits	set	3997
   201   000000                     _ADCON2bits	set	4032
   202   000000                     _ADCON0bits	set	4034
   203   000000                     _PORTA	set	3968
   204   000000                     _LATA	set	3977
   205   000000                     _TRISA	set	3986
   206   000000                     _PIE2bits	set	4000
   207   000000                     _CCP2CONbits	set	4026
   208   000000                     _CCP1CONbits	set	4029
   209   000000                     _PIR1bits	set	3998
   210   000000                     _T2CONbits	set	4042
   211   000000                     _T1CONbits	set	4045
   212   000000                     _T0CONbits	set	4053
   213   000000                     _INTCON3bits	set	4080
   214   000000                     _EECON1bits	set	4006
   215   000000                     _EEDATA	set	4008
   216   000000                     _EEADR	set	4009
   217   000000                     _EEADRH	set	4010
   218   000000                     _T3CONbits	set	4017
   219   000000                     _PIR2bits	set	4001
   220   000000                     _LATE	set	3981
   221   000000                     _LATD	set	3980
   222   000000                     _LATC	set	3979
   223   000000                     _LATB	set	3978
   224   000000                     _PORTE	set	3972
   225   000000                     _PORTD	set	3971
   226   000000                     _PORTC	set	3970
   227   000000                     _PORTB	set	3969
   228   000000                     _TMR2	set	4044
   229   000000                     _BAUDCONbits	set	4024
   230   001011                     STR_4:
   231   001011  48                 	db	72	;'H'
   232   001012  65                 	db	101	;'e'
   233   001013  6C                 	db	108	;'l'
   234   001014  6C                 	db	108	;'l'
   235   001015  6F                 	db	111	;'o'
   236   001016  0D                 	db	13
   237   001017  00                 	db	0
   238   001018                     STR_1:
   239   001018  25                 	db	37
   240   001019  69                 	db	105	;'i'
   241   00101A  00                 	db	0
   242   00101B  00                 	db	0	; dummy byte at the end
   243   000000                     
   244                           ; #config settings
   245                           
   246                           	psect	cinit
   247   002478                     __pcinit:
   248                           	callstack 0
   249   002478                     start_initialization:
   250                           	callstack 0
   251   002478                     __initialization:
   252                           	callstack 0
   253                           
   254                           ; Initialize objects allocated to BANK0 (31 bytes)
   255                           ; load TBLPTR registers with __pidataBANK0
   256   002478  0E00               	movlw	low __pidataBANK0
   257   00247A  6EF6               	movwf	tblptrl,c
   258   00247C  0E26               	movlw	high __pidataBANK0
   259   00247E  6EF7               	movwf	tblptrh,c
   260   002480  0E00               	movlw	low (__pidataBANK0 shr (0+16))
   261   002482  6EF8               	movwf	tblptru,c
   262   002484  EE00  F0B6         	lfsr	0,__pdataBANK0
   263   002488  EE10 F01F          	lfsr	1,31
   264   00248C                     copy_data0:
   265   00248C  0009               	tblrd		*+
   266   00248E  CFF5 FFEE          	movff	tablat,postinc0
   267   002492  50E5               	movf	postdec1,w,c
   268   002494  50E1               	movf	fsr1l,w,c
   269   002496  E1FA               	bnz	copy_data0
   270                           
   271                           ; Initialize objects allocated to COMRAM (4 bytes)
   272                           ; load TBLPTR registers with __pidataCOMRAM
   273   002498  0EE2               	movlw	low __pidataCOMRAM
   274   00249A  6EF6               	movwf	tblptrl,c
   275   00249C  0E26               	movlw	high __pidataCOMRAM
   276   00249E  6EF7               	movwf	tblptrh,c
   277   0024A0  0E00               	movlw	low (__pidataCOMRAM shr (0+16))
   278   0024A2  6EF8               	movwf	tblptru,c
   279   0024A4  EE00  F048         	lfsr	0,__pdataCOMRAM
   280   0024A8  EE10 F004          	lfsr	1,4
   281   0024AC                     copy_data1:
   282   0024AC  0009               	tblrd		*+
   283   0024AE  CFF5 FFEE          	movff	tablat,postinc0
   284   0024B2  50E5               	movf	postdec1,w,c
   285   0024B4  50E1               	movf	fsr1l,w,c
   286   0024B6  E1FA               	bnz	copy_data1
   287                           
   288                           ; Clear objects allocated to BANK0 (86 bytes)
   289   0024B8  EE00  F060         	lfsr	0,__pbssBANK0
   290   0024BC  0E56               	movlw	86
   291   0024BE                     clear_0:
   292   0024BE  6AEE               	clrf	postinc0,c
   293   0024C0  06E8               	decf	wreg,f,c
   294   0024C2  E1FD               	bnz	clear_0
   295                           
   296                           ; Clear objects allocated to COMRAM (1 bytes)
   297   0024C4  6A4C               	clrf	__pbssCOMRAM& (0+255),c
   298   0024C6                     end_of_initialization:
   299                           	callstack 0
   300   0024C6                     __end_of__initialization:
   301                           	callstack 0
   302   0024C6  904D               	bcf	int$flags,0,c	;clear compiler interrupt flag (level 1)
   303   0024C8  924D               	bcf	int$flags,1,c	;clear compiler interrupt flag (level 2)
   304   0024CA  0100               	movlb	0
   305   0024CC  EFEE  F012         	goto	_main	;jump to C main() function
   306                           
   307                           	psect	bssCOMRAM
   308   00004C                     __pbssCOMRAM:
   309                           	callstack 0
   310   00004C                     led_initialize@F3310:
   311                           	callstack 0
   312   00004C                     	ds	1
   313                           
   314                           	psect	dataCOMRAM
   315   000048                     __pdataCOMRAM:
   316                           	callstack 0
   317   000048                     _RB7_Flag:
   318                           	callstack 0
   319   000048                     	ds	1
   320   000049                     _RB6_Flag:
   321                           	callstack 0
   322   000049                     	ds	1
   323   00004A                     _RB5_Flag:
   324                           	callstack 0
   325   00004A                     	ds	1
   326   00004B                     _RB4_Flag:
   327                           	callstack 0
   328   00004B                     	ds	1
   329                           
   330                           	psect	bssBANK0
   331   000060                     __pbssBANK0:
   332                           	callstack 0
   333   000060                     	ds	11
   334   00006B                     	ds	6
   335   000071                     _valid_usart_counter:
   336                           	callstack 0
   337   000071                     	ds	4
   338   000075                     	ds	4
   339   000079                     _EUSART_OverrunErrorHandler:
   340                           	callstack 0
   341   000079                     	ds	2
   342   00007B                     _EUSART_FramingErrorHandler:
   343                           	callstack 0
   344   00007B                     	ds	2
   345   00007D                     _EUSART_RXInterruptHandler:
   346                           	callstack 0
   347   00007D                     	ds	2
   348   00007F                     _EUSART_TXInterruptHandler:
   349                           	callstack 0
   350   00007F                     	ds	2
   351   000081                     _timer3_preload:
   352                           	callstack 0
   353   000081                     	ds	2
   354   000083                     _TMR3_InterruptHandler:
   355                           	callstack 0
   356   000083                     	ds	2
   357   000085                     _TMR2_InterruptHandler:
   358                           	callstack 0
   359   000085                     	ds	2
   360   000087                     _timer1_preload:
   361                           	callstack 0
   362   000087                     	ds	2
   363   000089                     _TMR1_InterruptHandler:
   364                           	callstack 0
   365   000089                     	ds	2
   366   00008B                     _timer0_preload:
   367                           	callstack 0
   368   00008B                     	ds	2
   369   00008D                     _TMR0_InterruptHandler:
   370                           	callstack 0
   371   00008D                     	ds	2
   372   00008F                     _RB7_InterruptHandler_LOW:
   373                           	callstack 0
   374   00008F                     	ds	2
   375   000091                     _RB7_InterruptHandler_HIGH:
   376                           	callstack 0
   377   000091                     	ds	2
   378   000093                     _RB6_InterruptHandler_LOW:
   379                           	callstack 0
   380   000093                     	ds	2
   381   000095                     _RB6_InterruptHandler_HIGH:
   382                           	callstack 0
   383   000095                     	ds	2
   384   000097                     _RB5_InterruptHandler_LOW:
   385                           	callstack 0
   386   000097                     	ds	2
   387   000099                     _RB5_InterruptHandler_HIGH:
   388                           	callstack 0
   389   000099                     	ds	2
   390   00009B                     _RB4_InterruptHandler_LOW:
   391                           	callstack 0
   392   00009B                     	ds	2
   393   00009D                     _RB4_InterruptHandler_HIGH:
   394                           	callstack 0
   395   00009D                     	ds	2
   396   00009F                     _INT2_InterruptHandler:
   397                           	callstack 0
   398   00009F                     	ds	2
   399   0000A1                     _INT1_InterruptHandler:
   400                           	callstack 0
   401   0000A1                     	ds	2
   402   0000A3                     _INT0_InterruptHandler:
   403                           	callstack 0
   404   0000A3                     	ds	2
   405   0000A5                     CCP_Compare_Mode_Set_Value@F3368:
   406                           	callstack 0
   407   0000A5                     	ds	2
   408   0000A7                     _CCP2_InterruptHandler:
   409                           	callstack 0
   410   0000A7                     	ds	2
   411   0000A9                     _CCP1_InterruptHandler:
   412                           	callstack 0
   413   0000A9                     	ds	2
   414   0000AB                     _ADC_InterruptHandler:
   415                           	callstack 0
   416   0000AB                     	ds	2
   417   0000AD                     _rec_uart_data:
   418                           	callstack 0
   419   0000AD                     	ds	1
   420   0000AE                     _timer2_preload:
   421                           	callstack 0
   422   0000AE                     	ds	1
   423   0000AF                     _ret:
   424                           	callstack 0
   425   0000AF                     	ds	1
   426   0000B0                     relay_turn_off@F3314:
   427                           	callstack 0
   428   0000B0                     	ds	1
   429   0000B1                     relay_turn_on@F3309:
   430                           	callstack 0
   431   0000B1                     	ds	1
   432   0000B2                     relay_initialize@F3304:
   433                           	callstack 0
   434   0000B2                     	ds	1
   435   0000B3                     led_turn_toggle@F3325:
   436                           	callstack 0
   437   0000B3                     	ds	1
   438   0000B4                     led_turn_off@F3320:
   439                           	callstack 0
   440   0000B4                     	ds	1
   441   0000B5                     led_turn_on@F3315:
   442                           	callstack 0
   443   0000B5                     	ds	1
   444                           
   445                           	psect	dataBANK0
   446   0000B6                     __pdataBANK0:
   447                           	callstack 0
   448   0000B6                     _port_registers:
   449                           	callstack 0
   450   0000B6                     	ds	10
   451   0000C0                     _lat_registers:
   452                           	callstack 0
   453   0000C0                     	ds	10
   454   0000CA                     _tris_registers:
   455                           	callstack 0
   456   0000CA                     	ds	10
   457   0000D4                     _led_1:
   458                           	callstack 0
   459   0000D4                     	ds	1
   460                           
   461                           	psect	cstackBANK0
   462   0000D5                     __pcstackBANK0:
   463                           	callstack 0
   464   0000D5                     usart_module_int_init@usart_obj:
   465                           	callstack 0
   466                           
   467                           ; 18 bytes @ 0x0
   468   0000D5                     	ds	18
   469                           
   470                           	psect	cstackCOMRAM
   471   000001                     __pcstackCOMRAM:
   472                           	callstack 0
   473   000001                     RB4_ISR@RB4_source:
   474                           	callstack 0
   475   000001                     RB5_ISR@RB5_source:
   476                           	callstack 0
   477   000001                     RB6_ISR@RB6_source:
   478                           	callstack 0
   479   000001                     RB7_ISR@RB7_source:
   480                           	callstack 0
   481                           
   482                           ; 1 bytes @ 0x0
   483   000001                     	ds	1
   484   000002                     ??_InterruptManager:
   485                           
   486                           ; 1 bytes @ 0x1
   487   000002                     	ds	2
   488   000004                     ?___fltol:
   489                           	callstack 0
   490   000004                     ?___xxtofl:
   491                           	callstack 0
   492   000004                     gpio_pin_direction_intialize@_pin_config:
   493                           	callstack 0
   494   000004                     gpio_pin_write_logic@_pin_config:
   495                           	callstack 0
   496   000004                     EUSART_ASYN_WriteByteBlocking@_data:
   497                           	callstack 0
   498   000004                     EUSART_ASYN_TX_Init@_eusart:
   499                           	callstack 0
   500   000004                     EUSART_ASYN_RX_Init@_eusart:
   501                           	callstack 0
   502   000004                     ___fltol@f1:
   503                           	callstack 0
   504   000004                     ___xxtofl@val:
   505                           	callstack 0
   506                           
   507                           ; 4 bytes @ 0x3
   508   000004                     	ds	1
   509   000005                     ??_gpio_pin_direction_intialize:
   510   000005                     gpio_pin_write_logic@logic:
   511                           	callstack 0
   512   000005                     EUSART_ASYN_WriteStringBlocking@_data:
   513                           	callstack 0
   514                           
   515                           ; 1 bytes @ 0x4
   516   000005                     	ds	1
   517   000006                     ??_gpio_pin_write_logic:
   518   000006                     EUSART_ASYN_WriteStringBlocking@str_len:
   519                           	callstack 0
   520                           
   521                           ; 2 bytes @ 0x5
   522   000006                     	ds	2
   523   000008                     ??_EUSART_ASYN_WriteStringBlocking:
   524   000008                     ??___fltol:
   525   000008                     ??___xxtofl:
   526                           
   527                           ; 1 bytes @ 0x7
   528   000008                     	ds	1
   529   000009                     EUSART_ASYN_WriteStringBlocking@ret:
   530                           	callstack 0
   531                           
   532                           ; 1 bytes @ 0x8
   533   000009                     	ds	1
   534   00000A                     gpio_pin_direction_intialize@ret:
   535                           	callstack 0
   536   00000A                     EUSART_ASYN_WriteStringBlocking@char_counter:
   537                           	callstack 0
   538                           
   539                           ; 2 bytes @ 0x9
   540   00000A                     	ds	1
   541   00000B                     gpio_pin_write_logic@ret:
   542                           	callstack 0
   543                           
   544                           ; 1 bytes @ 0xA
   545   00000B                     	ds	1
   546   00000C                     gpio_pin_intialize@_pin_config:
   547                           	callstack 0
   548   00000C                     ___fltol@sign1:
   549                           	callstack 0
   550   00000C                     ___xxtofl@sign:
   551                           	callstack 0
   552                           
   553                           ; 1 bytes @ 0xB
   554   00000C                     	ds	1
   555   00000D                     ??_gpio_pin_intialize:
   556   00000D                     ___fltol@exp1:
   557                           	callstack 0
   558   00000D                     ___xxtofl@exp:
   559                           	callstack 0
   560                           
   561                           ; 1 bytes @ 0xC
   562   00000D                     	ds	1
   563   00000E                     gpio_pin_intialize@ret:
   564                           	callstack 0
   565   00000E                     ___xxtofl@arg:
   566                           	callstack 0
   567                           
   568                           ; 4 bytes @ 0xD
   569   00000E                     	ds	1
   570   00000F                     led_initialize@led:
   571                           	callstack 0
   572                           
   573                           ; 1 bytes @ 0xE
   574   00000F                     	ds	1
   575   000010                     ??_led_initialize:
   576                           
   577                           ; 1 bytes @ 0xF
   578   000010                     	ds	1
   579   000011                     led_initialize@ret:
   580                           	callstack 0
   581                           
   582                           ; 1 bytes @ 0x10
   583   000011                     	ds	1
   584   000012                     ?___fldiv:
   585                           	callstack 0
   586   000012                     led_initialize@pin_obj:
   587                           	callstack 0
   588   000012                     ___fldiv@b:
   589                           	callstack 0
   590                           
   591                           ; 4 bytes @ 0x11
   592   000012                     	ds	4
   593   000016                     ___fldiv@a:
   594                           	callstack 0
   595                           
   596                           ; 4 bytes @ 0x15
   597   000016                     	ds	4
   598   00001A                     ??___fldiv:
   599                           
   600                           ; 1 bytes @ 0x19
   601   00001A                     	ds	4
   602   00001E                     ___fldiv@rem:
   603                           	callstack 0
   604                           
   605                           ; 4 bytes @ 0x1D
   606   00001E                     	ds	4
   607   000022                     ___fldiv@sign:
   608                           	callstack 0
   609                           
   610                           ; 1 bytes @ 0x21
   611   000022                     	ds	1
   612   000023                     ___fldiv@new_exp:
   613                           	callstack 0
   614                           
   615                           ; 2 bytes @ 0x22
   616   000023                     	ds	2
   617   000025                     ___fldiv@grs:
   618                           	callstack 0
   619                           
   620                           ; 4 bytes @ 0x24
   621   000025                     	ds	4
   622   000029                     ___fldiv@bexp:
   623                           	callstack 0
   624                           
   625                           ; 1 bytes @ 0x28
   626   000029                     	ds	1
   627   00002A                     ___fldiv@aexp:
   628                           	callstack 0
   629                           
   630                           ; 1 bytes @ 0x29
   631   00002A                     	ds	1
   632   00002B                     ?___fladd:
   633                           	callstack 0
   634   00002B                     ___fladd@b:
   635                           	callstack 0
   636                           
   637                           ; 4 bytes @ 0x2A
   638   00002B                     	ds	4
   639   00002F                     ___fladd@a:
   640                           	callstack 0
   641                           
   642                           ; 4 bytes @ 0x2E
   643   00002F                     	ds	4
   644   000033                     ??___fladd:
   645                           
   646                           ; 1 bytes @ 0x32
   647   000033                     	ds	4
   648   000037                     ___fladd@signs:
   649                           	callstack 0
   650                           
   651                           ; 1 bytes @ 0x36
   652   000037                     	ds	1
   653   000038                     ___fladd@aexp:
   654                           	callstack 0
   655                           
   656                           ; 1 bytes @ 0x37
   657   000038                     	ds	1
   658   000039                     ___fladd@bexp:
   659                           	callstack 0
   660                           
   661                           ; 1 bytes @ 0x38
   662   000039                     	ds	1
   663   00003A                     ___fladd@grs:
   664                           	callstack 0
   665                           
   666                           ; 1 bytes @ 0x39
   667   00003A                     	ds	1
   668   00003B                     EUSART_Baud_Rate_Calculations@_eusart:
   669                           	callstack 0
   670                           
   671                           ; 1 bytes @ 0x3A
   672   00003B                     	ds	1
   673   00003C                     ??_EUSART_Baud_Rate_Calculations:
   674                           
   675                           ; 1 bytes @ 0x3B
   676   00003C                     	ds	2
   677   00003E                     EUSART_Baud_Rate_Calculations@Baud_Rate_Temp:
   678                           	callstack 0
   679                           
   680                           ; 4 bytes @ 0x3D
   681   00003E                     	ds	4
   682   000042                     _EUSART_Baud_Rate_Calculations$4503:
   683                           	callstack 0
   684                           
   685                           ; 4 bytes @ 0x41
   686   000042                     	ds	4
   687   000046                     EUSART_ASYN_Init@_eusart:
   688                           	callstack 0
   689                           
   690                           ; 1 bytes @ 0x45
   691   000046                     	ds	1
   692   000047                     EUSART_ASYN_Init@ret:
   693                           	callstack 0
   694                           
   695                           ; 1 bytes @ 0x46
   696   000047                     	ds	1
   697   000048                     
   698                           ; 1 bytes @ 0x47
   699 ;;
   700 ;;Main: autosize = 0, tempsize = 0, incstack = 0, save=0
   701 ;;
   702 ;; *************** function _main *****************
   703 ;; Defined at:
   704 ;;		line 60 in file "application.c"
   705 ;; Parameters:    Size  Location     Type
   706 ;;		None
   707 ;; Auto vars:     Size  Location     Type
   708 ;;  ret             1    0        unsigned char 
   709 ;; Return value:  Size  Location     Type
   710 ;;                  2  1406[None  ] int 
   711 ;; Registers used:
   712 ;;		wreg, fsr2l, fsr2h, status,2, status,0, tblptrl, tblptrh, tblptru, prodl, prodh, cstack
   713 ;; Tracked objects:
   714 ;;		On entry : 0/0
   715 ;;		On exit  : 0/0
   716 ;;		Unchanged: 0/0
   717 ;; Data sizes:     COMRAM   BANK0   BANK1   BANK2   BANK3   BANK4   BANK5   BANK6   BANK7   BANK8   BANK9  BANK10  BANK1
      +1  BANK12  BANK13  BANK14  BANK15
   718 ;;      Params:         0       0       0       0       0       0       0       0       0       0       0       0       
      +0       0       0       0       0
   719 ;;      Locals:         0       0       0       0       0       0       0       0       0       0       0       0       
      +0       0       0       0       0
   720 ;;      Temps:          0       0       0       0       0       0       0       0       0       0       0       0       
      +0       0       0       0       0
   721 ;;      Totals:         0       0       0       0       0       0       0       0       0       0       0       0       
      +0       0       0       0       0
   722 ;;Total ram usage:        0 bytes
   723 ;; Hardware stack levels required when called: 7
   724 ;; This function calls:
   725 ;;		_EUSART_ASYN_WriteStringBlocking
   726 ;;		_led_initialize
   727 ;;		_usart_module_int_init
   728 ;; This function is called by:
   729 ;;		Startup code after reset
   730 ;; This function uses a non-reentrant model
   731 ;;
   732                           
   733                           	psect	text0
   734   0025DC                     __ptext0:
   735                           	callstack 0
   736   0025DC                     _main:
   737                           	callstack 24
   738   0025DC                     
   739                           ;application.c: 64:     usart_module_int_init();
   740   0025DC  EC90  F012         	call	_usart_module_int_init	;wreg free
   741   0025E0  0ED4               	movlw	low _led_1
   742   0025E2  6E0F               	movwf	led_initialize@led^0,c
   743   0025E4  ECD5  F011         	call	_led_initialize	;wreg free
   744   0025E8                     l7721:
   745   0025E8  0E11               	movlw	low STR_4
   746   0025EA  6E05               	movwf	EUSART_ASYN_WriteStringBlocking@_data^0,c
   747   0025EC  0E00               	movlw	0
   748   0025EE  6E07               	movwf	(EUSART_ASYN_WriteStringBlocking@str_len+1)^0,c
   749   0025F0  0E06               	movlw	6
   750   0025F2  6E06               	movwf	EUSART_ASYN_WriteStringBlocking@str_len^0,c
   751   0025F4  EC68  F012         	call	_EUSART_ASYN_WriteStringBlocking	;wreg free
   752   0025F8  EFF4  F012         	goto	l7721
   753   0025FC  EFDF  F001         	goto	start
   754   002600                     __end_of_main:
   755                           	callstack 0
   756                           
   757 ;; *************** function _usart_module_int_init *****************
   758 ;; Defined at:
   759 ;;		line 34 in file "application.c"
   760 ;; Parameters:    Size  Location     Type
   761 ;;		None
   762 ;; Auto vars:     Size  Location     Type
   763 ;;  usart_obj      18    0[BANK0 ] struct .
   764 ;;  ret             1    0        unsigned char 
   765 ;; Return value:  Size  Location     Type
   766 ;;                  1    wreg      void 
   767 ;; Registers used:
   768 ;;		wreg, fsr2l, fsr2h, status,2, status,0, cstack
   769 ;; Tracked objects:
   770 ;;		On entry : 0/0
   771 ;;		On exit  : 0/0
   772 ;;		Unchanged: 0/0
   773 ;; Data sizes:     COMRAM   BANK0   BANK1   BANK2   BANK3   BANK4   BANK5   BANK6   BANK7   BANK8   BANK9  BANK10  BANK1
      +1  BANK12  BANK13  BANK14  BANK15
   774 ;;      Params:         0       0       0       0       0       0       0       0       0       0       0       0       
      +0       0       0       0       0
   775 ;;      Locals:         0      18       0       0       0       0       0       0       0       0       0       0       
      +0       0       0       0       0
   776 ;;      Temps:          0       0       0       0       0       0       0       0       0       0       0       0       
      +0       0       0       0       0
   777 ;;      Totals:         0      18       0       0       0       0       0       0       0       0       0       0       
      +0       0       0       0       0
   778 ;;Total ram usage:       18 bytes
   779 ;; Hardware stack levels used: 1
   780 ;; Hardware stack levels required when called: 6
   781 ;; This function calls:
   782 ;;		_EUSART_ASYN_Init
   783 ;; This function is called by:
   784 ;;		_main
   785 ;; This function uses a non-reentrant model
   786 ;;
   787                           
   788                           	psect	text1
   789   002520                     __ptext1:
   790                           	callstack 0
   791   002520                     _usart_module_int_init:
   792                           	callstack 24
   793   002520                     
   794                           ;application.c: 36:     usart_t usart_obj;;application.c: 37:     usart_obj.EUSART_Frami
      +                          ngErrorHandler = ((void*)0);
   795   002520  0E00               	movlw	0
   796   002522  0100               	movlb	0	; () banked
   797   002524  6FD9               	movwf	(usart_module_int_init@usart_obj+4)& (0+255),b
   798   002526  0E00               	movlw	0
   799   002528  6FDA               	movwf	(usart_module_int_init@usart_obj+5)& (0+255),b
   800   00252A                     
   801                           ; BSR set to: 0
   802                           ;application.c: 38:     usart_obj.EUSART_OverrunErrorHandler = ((void*)0);
   803   00252A  0E00               	movlw	0
   804   00252C  6FDB               	movwf	(usart_module_int_init@usart_obj+6)& (0+255),b
   805   00252E  0E00               	movlw	0
   806   002530  6FDC               	movwf	(usart_module_int_init@usart_obj+7)& (0+255),b
   807   002532                     
   808                           ; BSR set to: 0
   809                           ;application.c: 39:     usart_obj.EUSART_RxDefaultInterruptHandler = ((void*)0);
   810   002532  0E00               	movlw	0
   811   002534  6FD7               	movwf	(usart_module_int_init@usart_obj+2)& (0+255),b
   812   002536  0E00               	movlw	0
   813   002538  6FD8               	movwf	(usart_module_int_init@usart_obj+3)& (0+255),b
   814   00253A                     
   815                           ; BSR set to: 0
   816                           ;application.c: 40:     usart_obj.EUSART_TxDefaultInterruptHandler = EUSART_TxDefaultInt
      +                          erruptHandler;
   817   00253A  0EA0               	movlw	low _EUSART_TxDefaultInterruptHandler
   818   00253C  6FD5               	movwf	usart_module_int_init@usart_obj& (0+255),b
   819   00253E  0E26               	movlw	high _EUSART_TxDefaultInterruptHandler
   820   002540  6FD6               	movwf	(usart_module_int_init@usart_obj+1)& (0+255),b
   821                           
   822                           ;application.c: 41:     usart_obj.baudrate = 9600;
   823   002542  0E80               	movlw	128
   824   002544  6FDD               	movwf	(usart_module_int_init@usart_obj+8)& (0+255),b
   825   002546  0E25               	movlw	37
   826   002548  6FDE               	movwf	(usart_module_int_init@usart_obj+9)& (0+255),b
   827   00254A  0E00               	movlw	0
   828   00254C  6FDF               	movwf	(usart_module_int_init@usart_obj+10)& (0+255),b
   829   00254E  0E00               	movlw	0
   830   002550  6FE0               	movwf	(usart_module_int_init@usart_obj+11)& (0+255),b
   831                           
   832                           ;application.c: 42:     usart_obj.baudrate_config = BAUDRATE_ASYN_8BIT_LOW_SPEED;
   833   002552  0E00               	movlw	0
   834   002554  6FE1               	movwf	(usart_module_int_init@usart_obj+12)& (0+255),b
   835   002556                     
   836                           ; BSR set to: 0
   837                           ;application.c: 44:     usart_obj.usart_tx_cfg.usart_tx_enable = 1;
   838   002556  8BE2               	bsf	(usart_module_int_init@usart_obj+13)& (0+255),5,b
   839   002558                     
   840                           ; BSR set to: 0
   841                           ;application.c: 45:     usart_obj.usart_tx_cfg.usart_tx_interrupt_enable = 1;
   842   002558  8DE2               	bsf	(usart_module_int_init@usart_obj+13)& (0+255),6,b
   843   00255A                     
   844                           ; BSR set to: 0
   845                           ;application.c: 46:     usart_obj.usart_tx_cfg.usart_tx_9bit_enable = 0;
   846   00255A  9FE2               	bcf	(usart_module_int_init@usart_obj+13)& (0+255),7,b
   847   00255C                     
   848                           ; BSR set to: 0
   849                           ;application.c: 48:     usart_obj.usart_rx_cfg.usart_rx_enable = 1;
   850   00255C  8BE4               	bsf	(usart_module_int_init@usart_obj+15)& (0+255),5,b
   851   00255E                     
   852                           ; BSR set to: 0
   853                           ;application.c: 49:     usart_obj.usart_rx_cfg.usart_rx_interrupt_enable = 1;
   854   00255E  8DE4               	bsf	(usart_module_int_init@usart_obj+15)& (0+255),6,b
   855   002560                     
   856                           ; BSR set to: 0
   857                           ;application.c: 50:     usart_obj.usart_rx_cfg.usart_rx_9bit_enable = 0;
   858   002560  9FE4               	bcf	(usart_module_int_init@usart_obj+15)& (0+255),7,b
   859   002562                     
   860                           ; BSR set to: 0
   861   002562  0ED5               	movlw	low usart_module_int_init@usart_obj
   862   002564  6E46               	movwf	EUSART_ASYN_Init@_eusart^0,c
   863   002566  ECB6  F012         	call	_EUSART_ASYN_Init	;wreg free
   864   00256A  0012               	return		;funcret
   865   00256C                     __end_of_usart_module_int_init:
   866                           	callstack 0
   867                           
   868 ;; *************** function _EUSART_ASYN_Init *****************
   869 ;; Defined at:
   870 ;;		line 25 in file "MCAL_Layer/USART/hal_usart.c"
   871 ;; Parameters:    Size  Location     Type
   872 ;;  _eusart         1   69[COMRAM] PTR const struct .
   873 ;;		 -> usart_module_int_init@usart_obj(18), usart_module_init@usart_obj(18), 
   874 ;; Auto vars:     Size  Location     Type
   875 ;;  ret             1   70[COMRAM] unsigned char 
   876 ;; Return value:  Size  Location     Type
   877 ;;                  1    wreg      unsigned char 
   878 ;; Registers used:
   879 ;;		wreg, fsr2l, fsr2h, status,2, status,0, cstack
   880 ;; Tracked objects:
   881 ;;		On entry : 0/0
   882 ;;		On exit  : 0/0
   883 ;;		Unchanged: 0/0
   884 ;; Data sizes:     COMRAM   BANK0   BANK1   BANK2   BANK3   BANK4   BANK5   BANK6   BANK7   BANK8   BANK9  BANK10  BANK1
      +1  BANK12  BANK13  BANK14  BANK15
   885 ;;      Params:         1       0       0       0       0       0       0       0       0       0       0       0       
      +0       0       0       0       0
   886 ;;      Locals:         1       0       0       0       0       0       0       0       0       0       0       0       
      +0       0       0       0       0
   887 ;;      Temps:          0       0       0       0       0       0       0       0       0       0       0       0       
      +0       0       0       0       0
   888 ;;      Totals:         2       0       0       0       0       0       0       0       0       0       0       0       
      +0       0       0       0       0
   889 ;;Total ram usage:        2 bytes
   890 ;; Hardware stack levels used: 1
   891 ;; Hardware stack levels required when called: 5
   892 ;; This function calls:
   893 ;;		_EUSART_ASYN_RX_Init
   894 ;;		_EUSART_ASYN_TX_Init
   895 ;;		_EUSART_Baud_Rate_Calculations
   896 ;; This function is called by:
   897 ;;		_usart_module_int_init
   898 ;;		_usart_module_init
   899 ;; This function uses a non-reentrant model
   900 ;;
   901                           
   902                           	psect	text2
   903   00256C                     __ptext2:
   904                           	callstack 0
   905   00256C                     _EUSART_ASYN_Init:
   906                           	callstack 24
   907   00256C                     
   908                           ;MCAL_Layer/USART/hal_usart.c: 26:     Std_ReturnType ret = (Std_ReturnType)0x01;
   909   00256C  0E01               	movlw	1
   910   00256E  6E47               	movwf	EUSART_ASYN_Init@ret^0,c
   911                           
   912                           ;MCAL_Layer/USART/hal_usart.c: 27:     if(((void*)0) == _eusart){
   913   002570  5046               	movf	EUSART_ASYN_Init@_eusart^0,w,c
   914   002572  A4D8               	btfss	status,2,c
   915   002574  EFBE  F012         	goto	u7671
   916   002578  EFC0  F012         	goto	u7670
   917   00257C                     u7671:
   918   00257C  EFC4  F012         	goto	l1296
   919   002580                     u7670:
   920   002580                     
   921                           ;MCAL_Layer/USART/hal_usart.c: 28:         ret = (Std_ReturnType)0x00;
   922   002580  0E00               	movlw	0
   923   002582  6E47               	movwf	EUSART_ASYN_Init@ret^0,c
   924                           
   925                           ;MCAL_Layer/USART/hal_usart.c: 29:     }
   926   002584  EFD4  F012         	goto	l7663
   927   002588                     l1296:
   928                           
   929                           ;MCAL_Layer/USART/hal_usart.c: 31:         RCSTAbits.SPEN = 0;
   930   002588  9EAB               	bcf	171,7,c	;volatile
   931                           
   932                           ;MCAL_Layer/USART/hal_usart.c: 32:         TRISCbits.RC6 = 1;
   933   00258A  8C94               	bsf	148,6,c	;volatile
   934                           
   935                           ;MCAL_Layer/USART/hal_usart.c: 33:         TRISCbits.RC7 = 1;
   936   00258C  8E94               	bsf	148,7,c	;volatile
   937   00258E                     
   938                           ;MCAL_Layer/USART/hal_usart.c: 34:         EUSART_Baud_Rate_Calculations(_eusart);
   939   00258E  C046  F03B         	movff	EUSART_ASYN_Init@_eusart,EUSART_Baud_Rate_Calculations@_eusart
   940   002592  EC0E  F008         	call	_EUSART_Baud_Rate_Calculations	;wreg free
   941                           
   942                           ;MCAL_Layer/USART/hal_usart.c: 35:         EUSART_ASYN_TX_Init(_eusart);
   943   002596  C046  F004         	movff	EUSART_ASYN_Init@_eusart,EUSART_ASYN_TX_Init@_eusart
   944   00259A  EC83  F011         	call	_EUSART_ASYN_TX_Init	;wreg free
   945                           
   946                           ;MCAL_Layer/USART/hal_usart.c: 36:         EUSART_ASYN_RX_Init(_eusart);
   947   00259E  C046  F004         	movff	EUSART_ASYN_Init@_eusart,EUSART_ASYN_RX_Init@_eusart
   948   0025A2  EC1D  F011         	call	_EUSART_ASYN_RX_Init	;wreg free
   949   0025A6                     
   950                           ;MCAL_Layer/USART/hal_usart.c: 37:         RCSTAbits.SPEN = 1;
   951   0025A6  8EAB               	bsf	171,7,c	;volatile
   952   0025A8                     l7663:
   953                           
   954                           ;MCAL_Layer/USART/hal_usart.c: 39:     return ret;
   955   0025A8  5047               	movf	EUSART_ASYN_Init@ret^0,w,c
   956   0025AA  0012               	return		;funcret
   957   0025AC                     __end_of_EUSART_ASYN_Init:
   958                           	callstack 0
   959                           
   960 ;; *************** function _EUSART_Baud_Rate_Calculations *****************
   961 ;; Defined at:
   962 ;;		line 114 in file "MCAL_Layer/USART/hal_usart.c"
   963 ;; Parameters:    Size  Location     Type
   964 ;;  _eusart         1   58[COMRAM] PTR const struct .
   965 ;;		 -> usart_module_int_init@usart_obj(18), usart_module_init@usart_obj(18), 
   966 ;; Auto vars:     Size  Location     Type
   967 ;;  Baud_Rate_Te    4   61[COMRAM] float 
   968 ;; Return value:  Size  Location     Type
   969 ;;                  1    wreg      void 
   970 ;; Registers used:
   971 ;;		wreg, fsr2l, fsr2h, status,2, status,0, cstack
   972 ;; Tracked objects:
   973 ;;		On entry : 0/0
   974 ;;		On exit  : 0/0
   975 ;;		Unchanged: 0/0
   976 ;; Data sizes:     COMRAM   BANK0   BANK1   BANK2   BANK3   BANK4   BANK5   BANK6   BANK7   BANK8   BANK9  BANK10  BANK1
      +1  BANK12  BANK13  BANK14  BANK15
   977 ;;      Params:         1       0       0       0       0       0       0       0       0       0       0       0       
      +0       0       0       0       0
   978 ;;      Locals:         8       0       0       0       0       0       0       0       0       0       0       0       
      +0       0       0       0       0
   979 ;;      Temps:          2       0       0       0       0       0       0       0       0       0       0       0       
      +0       0       0       0       0
   980 ;;      Totals:        11       0       0       0       0       0       0       0       0       0       0       0       
      +0       0       0       0       0
   981 ;;Total ram usage:       11 bytes
   982 ;; Hardware stack levels used: 1
   983 ;; Hardware stack levels required when called: 4
   984 ;; This function calls:
   985 ;;		___fladd
   986 ;;		___fldiv
   987 ;;		___fltol
   988 ;;		___xxtofl
   989 ;; This function is called by:
   990 ;;		_EUSART_ASYN_Init
   991 ;; This function uses a non-reentrant model
   992 ;;
   993                           
   994                           	psect	text3
   995   00101C                     __ptext3:
   996                           	callstack 0
   997   00101C                     _EUSART_Baud_Rate_Calculations:
   998                           	callstack 24
   999   00101C                     
  1000                           ;MCAL_Layer/USART/hal_usart.c: 115:     float Baud_Rate_Temp = 0;
  1001   00101C  0E00               	movlw	0
  1002   00101E  6E3E               	movwf	EUSART_Baud_Rate_Calculations@Baud_Rate_Temp^0,c
  1003   001020  0E00               	movlw	0
  1004   001022  6E3F               	movwf	(EUSART_Baud_Rate_Calculations@Baud_Rate_Temp+1)^0,c
  1005   001024  0E00               	movlw	0
  1006   001026  6E40               	movwf	(EUSART_Baud_Rate_Calculations@Baud_Rate_Temp+2)^0,c
  1007   001028  0E00               	movlw	0
  1008   00102A  6E41               	movwf	(EUSART_Baud_Rate_Calculations@Baud_Rate_Temp+3)^0,c
  1009                           
  1010                           ;MCAL_Layer/USART/hal_usart.c: 116:     switch (_eusart->baudrate_config){
  1011   00102C  EF38  F00A         	goto	l7591
  1012   001030                     l1346:
  1013                           
  1014                           ;MCAL_Layer/USART/hal_usart.c: 118:             TXSTAbits.SYNC = 0;
  1015   001030  98AC               	bcf	172,4,c	;volatile
  1016                           
  1017                           ;MCAL_Layer/USART/hal_usart.c: 119:             BAUDCONbits.BRG16 = 0;
  1018   001032  96B8               	bcf	184,3,c	;volatile
  1019                           
  1020                           ;MCAL_Layer/USART/hal_usart.c: 120:             TXSTAbits.BRGH = 0;
  1021   001034  94AC               	bcf	172,2,c	;volatile
  1022   001036                     
  1023                           ;MCAL_Layer/USART/hal_usart.c: 121:             Baud_Rate_Temp = ((8000000UL / (float)_e
      +                          usart->baudrate) / 64) - 1;
  1024   001036  503B               	movf	EUSART_Baud_Rate_Calculations@_eusart^0,w,c
  1025   001038  6ED9               	movwf	fsr2l,c
  1026   00103A  6ADA               	clrf	fsr2h,c
  1027   00103C  0E08               	movlw	8
  1028   00103E  26D9               	addwf	fsr2l,f,c
  1029   001040  CFDE F004          	movff	postinc2,___xxtofl@val
  1030   001044  CFDE F005          	movff	postinc2,___xxtofl@val+1
  1031   001048  CFDE F006          	movff	postinc2,___xxtofl@val+2
  1032   00104C  CFDE F007          	movff	postinc2,___xxtofl@val+3
  1033   001050  0E00               	movlw	0
  1034   001052  ECAF  F00E         	call	___xxtofl
  1035   001056  C004  F016         	movff	?___xxtofl,___fldiv@a
  1036   00105A  C005  F017         	movff	?___xxtofl+1,___fldiv@a+1
  1037   00105E  C006  F018         	movff	?___xxtofl+2,___fldiv@a+2
  1038   001062  C007  F019         	movff	?___xxtofl+3,___fldiv@a+3
  1039   001066  0E00               	movlw	0
  1040   001068  6E12               	movwf	___fldiv@b^0,c
  1041   00106A  0E24               	movlw	36
  1042   00106C  6E13               	movwf	(___fldiv@b+1)^0,c
  1043   00106E  0EF4               	movlw	244
  1044   001070  6E14               	movwf	(___fldiv@b+2)^0,c
  1045   001072  0E4A               	movlw	74
  1046   001074  6E15               	movwf	(___fldiv@b+3)^0,c
  1047   001076  ECE2  F00C         	call	___fldiv	;wreg free
  1048   00107A  C012  F042         	movff	?___fldiv,_EUSART_Baud_Rate_Calculations$4503
  1049   00107E  C013  F043         	movff	?___fldiv+1,_EUSART_Baud_Rate_Calculations$4503+1
  1050   001082  C014  F044         	movff	?___fldiv+2,_EUSART_Baud_Rate_Calculations$4503+2
  1051   001086  C015  F045         	movff	?___fldiv+3,_EUSART_Baud_Rate_Calculations$4503+3
  1052   00108A                     
  1053                           ;MCAL_Layer/USART/hal_usart.c: 121:             Baud_Rate_Temp = ((8000000UL / (float)_e
      +                          usart->baudrate) / 64) - 1;
  1054   00108A  0E00               	movlw	0
  1055   00108C  6E16               	movwf	___fldiv@a^0,c
  1056   00108E  0E00               	movlw	0
  1057   001090  6E17               	movwf	(___fldiv@a+1)^0,c
  1058   001092  0E80               	movlw	128
  1059   001094  6E18               	movwf	(___fldiv@a+2)^0,c
  1060   001096  0E42               	movlw	66
  1061   001098  6E19               	movwf	(___fldiv@a+3)^0,c
  1062   00109A  C042  F012         	movff	_EUSART_Baud_Rate_Calculations$4503,___fldiv@b
  1063   00109E  C043  F013         	movff	_EUSART_Baud_Rate_Calculations$4503+1,___fldiv@b+1
  1064   0010A2  C044  F014         	movff	_EUSART_Baud_Rate_Calculations$4503+2,___fldiv@b+2
  1065   0010A6  C045  F015         	movff	_EUSART_Baud_Rate_Calculations$4503+3,___fldiv@b+3
  1066   0010AA  ECE2  F00C         	call	___fldiv	;wreg free
  1067   0010AE  C012  F02B         	movff	?___fldiv,___fladd@b
  1068   0010B2  C013  F02C         	movff	?___fldiv+1,___fladd@b+1
  1069   0010B6  C014  F02D         	movff	?___fldiv+2,___fladd@b+2
  1070   0010BA  C015  F02E         	movff	?___fldiv+3,___fladd@b+3
  1071   0010BE  0E00               	movlw	0
  1072   0010C0  6E2F               	movwf	___fladd@a^0,c
  1073   0010C2  0E00               	movlw	0
  1074   0010C4  6E30               	movwf	(___fladd@a+1)^0,c
  1075   0010C6  0E80               	movlw	128
  1076   0010C8  6E31               	movwf	(___fladd@a+2)^0,c
  1077   0010CA  0EBF               	movlw	191
  1078   0010CC  6E32               	movwf	(___fladd@a+3)^0,c
  1079   0010CE  EC82  F00A         	call	___fladd	;wreg free
  1080   0010D2  C02B  F03E         	movff	?___fladd,EUSART_Baud_Rate_Calculations@Baud_Rate_Temp
  1081   0010D6  C02C  F03F         	movff	?___fladd+1,EUSART_Baud_Rate_Calculations@Baud_Rate_Temp+1
  1082   0010DA  C02D  F040         	movff	?___fladd+2,EUSART_Baud_Rate_Calculations@Baud_Rate_Temp+2
  1083   0010DE  C02E  F041         	movff	?___fladd+3,EUSART_Baud_Rate_Calculations@Baud_Rate_Temp+3
  1084                           
  1085                           ;MCAL_Layer/USART/hal_usart.c: 122:         break;
  1086   0010E2  EF62  F00A         	goto	l7593
  1087   0010E6                     l1348:
  1088                           
  1089                           ;MCAL_Layer/USART/hal_usart.c: 124:             TXSTAbits.SYNC = 0;
  1090   0010E6  98AC               	bcf	172,4,c	;volatile
  1091                           
  1092                           ;MCAL_Layer/USART/hal_usart.c: 125:             BAUDCONbits.BRG16 = 0;
  1093   0010E8  96B8               	bcf	184,3,c	;volatile
  1094                           
  1095                           ;MCAL_Layer/USART/hal_usart.c: 126:             TXSTAbits.BRGH = 1;
  1096   0010EA  84AC               	bsf	172,2,c	;volatile
  1097   0010EC                     
  1098                           ;MCAL_Layer/USART/hal_usart.c: 127:             Baud_Rate_Temp = ((8000000UL / (float)_e
      +                          usart->baudrate) / 16) - 1;
  1099   0010EC  503B               	movf	EUSART_Baud_Rate_Calculations@_eusart^0,w,c
  1100   0010EE  6ED9               	movwf	fsr2l,c
  1101   0010F0  6ADA               	clrf	fsr2h,c
  1102   0010F2  0E08               	movlw	8
  1103   0010F4  26D9               	addwf	fsr2l,f,c
  1104   0010F6  CFDE F004          	movff	postinc2,___xxtofl@val
  1105   0010FA  CFDE F005          	movff	postinc2,___xxtofl@val+1
  1106   0010FE  CFDE F006          	movff	postinc2,___xxtofl@val+2
  1107   001102  CFDE F007          	movff	postinc2,___xxtofl@val+3
  1108   001106  0E00               	movlw	0
  1109   001108  ECAF  F00E         	call	___xxtofl
  1110   00110C  C004  F016         	movff	?___xxtofl,___fldiv@a
  1111   001110  C005  F017         	movff	?___xxtofl+1,___fldiv@a+1
  1112   001114  C006  F018         	movff	?___xxtofl+2,___fldiv@a+2
  1113   001118  C007  F019         	movff	?___xxtofl+3,___fldiv@a+3
  1114   00111C  0E00               	movlw	0
  1115   00111E  6E12               	movwf	___fldiv@b^0,c
  1116   001120  0E24               	movlw	36
  1117   001122  6E13               	movwf	(___fldiv@b+1)^0,c
  1118   001124  0EF4               	movlw	244
  1119   001126  6E14               	movwf	(___fldiv@b+2)^0,c
  1120   001128  0E4A               	movlw	74
  1121   00112A  6E15               	movwf	(___fldiv@b+3)^0,c
  1122   00112C  ECE2  F00C         	call	___fldiv	;wreg free
  1123   001130  C012  F042         	movff	?___fldiv,_EUSART_Baud_Rate_Calculations$4503
  1124   001134  C013  F043         	movff	?___fldiv+1,_EUSART_Baud_Rate_Calculations$4503+1
  1125   001138  C014  F044         	movff	?___fldiv+2,_EUSART_Baud_Rate_Calculations$4503+2
  1126   00113C  C015  F045         	movff	?___fldiv+3,_EUSART_Baud_Rate_Calculations$4503+3
  1127   001140                     
  1128                           ;MCAL_Layer/USART/hal_usart.c: 127:             Baud_Rate_Temp = ((8000000UL / (float)_e
      +                          usart->baudrate) / 16) - 1;
  1129   001140  0E00               	movlw	0
  1130   001142  6E16               	movwf	___fldiv@a^0,c
  1131   001144  0E00               	movlw	0
  1132   001146  6E17               	movwf	(___fldiv@a+1)^0,c
  1133   001148  0E80               	movlw	128
  1134   00114A  6E18               	movwf	(___fldiv@a+2)^0,c
  1135   00114C  0E41               	movlw	65
  1136   00114E  6E19               	movwf	(___fldiv@a+3)^0,c
  1137   001150  C042  F012         	movff	_EUSART_Baud_Rate_Calculations$4503,___fldiv@b
  1138   001154  C043  F013         	movff	_EUSART_Baud_Rate_Calculations$4503+1,___fldiv@b+1
  1139   001158  C044  F014         	movff	_EUSART_Baud_Rate_Calculations$4503+2,___fldiv@b+2
  1140   00115C  C045  F015         	movff	_EUSART_Baud_Rate_Calculations$4503+3,___fldiv@b+3
  1141   001160  ECE2  F00C         	call	___fldiv	;wreg free
  1142   001164  C012  F02B         	movff	?___fldiv,___fladd@b
  1143   001168  C013  F02C         	movff	?___fldiv+1,___fladd@b+1
  1144   00116C  C014  F02D         	movff	?___fldiv+2,___fladd@b+2
  1145   001170  C015  F02E         	movff	?___fldiv+3,___fladd@b+3
  1146   001174  0E00               	movlw	0
  1147   001176  6E2F               	movwf	___fladd@a^0,c
  1148   001178  0E00               	movlw	0
  1149   00117A  6E30               	movwf	(___fladd@a+1)^0,c
  1150   00117C  0E80               	movlw	128
  1151   00117E  6E31               	movwf	(___fladd@a+2)^0,c
  1152   001180  0EBF               	movlw	191
  1153   001182  6E32               	movwf	(___fladd@a+3)^0,c
  1154   001184  EC82  F00A         	call	___fladd	;wreg free
  1155   001188  C02B  F03E         	movff	?___fladd,EUSART_Baud_Rate_Calculations@Baud_Rate_Temp
  1156   00118C  C02C  F03F         	movff	?___fladd+1,EUSART_Baud_Rate_Calculations@Baud_Rate_Temp+1
  1157   001190  C02D  F040         	movff	?___fladd+2,EUSART_Baud_Rate_Calculations@Baud_Rate_Temp+2
  1158   001194  C02E  F041         	movff	?___fladd+3,EUSART_Baud_Rate_Calculations@Baud_Rate_Temp+3
  1159                           
  1160                           ;MCAL_Layer/USART/hal_usart.c: 128:         break;
  1161   001198  EF62  F00A         	goto	l7593
  1162   00119C                     l1349:
  1163                           
  1164                           ;MCAL_Layer/USART/hal_usart.c: 130:             TXSTAbits.SYNC = 0;
  1165   00119C  98AC               	bcf	172,4,c	;volatile
  1166                           
  1167                           ;MCAL_Layer/USART/hal_usart.c: 131:             BAUDCONbits.BRG16 = 1;
  1168   00119E  86B8               	bsf	184,3,c	;volatile
  1169                           
  1170                           ;MCAL_Layer/USART/hal_usart.c: 132:             TXSTAbits.BRGH = 0;
  1171   0011A0  94AC               	bcf	172,2,c	;volatile
  1172   0011A2                     
  1173                           ;MCAL_Layer/USART/hal_usart.c: 133:             Baud_Rate_Temp = ((8000000UL / (float)_e
      +                          usart->baudrate) / 16) - 1;
  1174   0011A2  503B               	movf	EUSART_Baud_Rate_Calculations@_eusart^0,w,c
  1175   0011A4  6ED9               	movwf	fsr2l,c
  1176   0011A6  6ADA               	clrf	fsr2h,c
  1177   0011A8  0E08               	movlw	8
  1178   0011AA  26D9               	addwf	fsr2l,f,c
  1179   0011AC  CFDE F004          	movff	postinc2,___xxtofl@val
  1180   0011B0  CFDE F005          	movff	postinc2,___xxtofl@val+1
  1181   0011B4  CFDE F006          	movff	postinc2,___xxtofl@val+2
  1182   0011B8  CFDE F007          	movff	postinc2,___xxtofl@val+3
  1183   0011BC  0E00               	movlw	0
  1184   0011BE  ECAF  F00E         	call	___xxtofl
  1185   0011C2  C004  F016         	movff	?___xxtofl,___fldiv@a
  1186   0011C6  C005  F017         	movff	?___xxtofl+1,___fldiv@a+1
  1187   0011CA  C006  F018         	movff	?___xxtofl+2,___fldiv@a+2
  1188   0011CE  C007  F019         	movff	?___xxtofl+3,___fldiv@a+3
  1189   0011D2  0E00               	movlw	0
  1190   0011D4  6E12               	movwf	___fldiv@b^0,c
  1191   0011D6  0E24               	movlw	36
  1192   0011D8  6E13               	movwf	(___fldiv@b+1)^0,c
  1193   0011DA  0EF4               	movlw	244
  1194   0011DC  6E14               	movwf	(___fldiv@b+2)^0,c
  1195   0011DE  0E4A               	movlw	74
  1196   0011E0  6E15               	movwf	(___fldiv@b+3)^0,c
  1197   0011E2  ECE2  F00C         	call	___fldiv	;wreg free
  1198   0011E6  C012  F042         	movff	?___fldiv,_EUSART_Baud_Rate_Calculations$4503
  1199   0011EA  C013  F043         	movff	?___fldiv+1,_EUSART_Baud_Rate_Calculations$4503+1
  1200   0011EE  C014  F044         	movff	?___fldiv+2,_EUSART_Baud_Rate_Calculations$4503+2
  1201   0011F2  C015  F045         	movff	?___fldiv+3,_EUSART_Baud_Rate_Calculations$4503+3
  1202   0011F6                     
  1203                           ;MCAL_Layer/USART/hal_usart.c: 133:             Baud_Rate_Temp = ((8000000UL / (float)_e
      +                          usart->baudrate) / 16) - 1;
  1204   0011F6  0E00               	movlw	0
  1205   0011F8  6E16               	movwf	___fldiv@a^0,c
  1206   0011FA  0E00               	movlw	0
  1207   0011FC  6E17               	movwf	(___fldiv@a+1)^0,c
  1208   0011FE  0E80               	movlw	128
  1209   001200  6E18               	movwf	(___fldiv@a+2)^0,c
  1210   001202  0E41               	movlw	65
  1211   001204  6E19               	movwf	(___fldiv@a+3)^0,c
  1212   001206  C042  F012         	movff	_EUSART_Baud_Rate_Calculations$4503,___fldiv@b
  1213   00120A  C043  F013         	movff	_EUSART_Baud_Rate_Calculations$4503+1,___fldiv@b+1
  1214   00120E  C044  F014         	movff	_EUSART_Baud_Rate_Calculations$4503+2,___fldiv@b+2
  1215   001212  C045  F015         	movff	_EUSART_Baud_Rate_Calculations$4503+3,___fldiv@b+3
  1216   001216  ECE2  F00C         	call	___fldiv	;wreg free
  1217   00121A  C012  F02B         	movff	?___fldiv,___fladd@b
  1218   00121E  C013  F02C         	movff	?___fldiv+1,___fladd@b+1
  1219   001222  C014  F02D         	movff	?___fldiv+2,___fladd@b+2
  1220   001226  C015  F02E         	movff	?___fldiv+3,___fladd@b+3
  1221   00122A  0E00               	movlw	0
  1222   00122C  6E2F               	movwf	___fladd@a^0,c
  1223   00122E  0E00               	movlw	0
  1224   001230  6E30               	movwf	(___fladd@a+1)^0,c
  1225   001232  0E80               	movlw	128
  1226   001234  6E31               	movwf	(___fladd@a+2)^0,c
  1227   001236  0EBF               	movlw	191
  1228   001238  6E32               	movwf	(___fladd@a+3)^0,c
  1229   00123A  EC82  F00A         	call	___fladd	;wreg free
  1230   00123E  C02B  F03E         	movff	?___fladd,EUSART_Baud_Rate_Calculations@Baud_Rate_Temp
  1231   001242  C02C  F03F         	movff	?___fladd+1,EUSART_Baud_Rate_Calculations@Baud_Rate_Temp+1
  1232   001246  C02D  F040         	movff	?___fladd+2,EUSART_Baud_Rate_Calculations@Baud_Rate_Temp+2
  1233   00124A  C02E  F041         	movff	?___fladd+3,EUSART_Baud_Rate_Calculations@Baud_Rate_Temp+3
  1234                           
  1235                           ;MCAL_Layer/USART/hal_usart.c: 134:         break;
  1236   00124E  EF62  F00A         	goto	l7593
  1237   001252                     l1350:
  1238                           
  1239                           ;MCAL_Layer/USART/hal_usart.c: 136:             TXSTAbits.SYNC = 0;
  1240   001252  98AC               	bcf	172,4,c	;volatile
  1241                           
  1242                           ;MCAL_Layer/USART/hal_usart.c: 137:             BAUDCONbits.BRG16 = 1;
  1243   001254  86B8               	bsf	184,3,c	;volatile
  1244                           
  1245                           ;MCAL_Layer/USART/hal_usart.c: 138:             TXSTAbits.BRGH = 1;
  1246   001256  84AC               	bsf	172,2,c	;volatile
  1247   001258                     
  1248                           ;MCAL_Layer/USART/hal_usart.c: 139:             Baud_Rate_Temp = ((8000000UL / (float)_e
      +                          usart->baudrate) / 4) - 1;
  1249   001258  503B               	movf	EUSART_Baud_Rate_Calculations@_eusart^0,w,c
  1250   00125A  6ED9               	movwf	fsr2l,c
  1251   00125C  6ADA               	clrf	fsr2h,c
  1252   00125E  0E08               	movlw	8
  1253   001260  26D9               	addwf	fsr2l,f,c
  1254   001262  CFDE F004          	movff	postinc2,___xxtofl@val
  1255   001266  CFDE F005          	movff	postinc2,___xxtofl@val+1
  1256   00126A  CFDE F006          	movff	postinc2,___xxtofl@val+2
  1257   00126E  CFDE F007          	movff	postinc2,___xxtofl@val+3
  1258   001272  0E00               	movlw	0
  1259   001274  ECAF  F00E         	call	___xxtofl
  1260   001278  C004  F016         	movff	?___xxtofl,___fldiv@a
  1261   00127C  C005  F017         	movff	?___xxtofl+1,___fldiv@a+1
  1262   001280  C006  F018         	movff	?___xxtofl+2,___fldiv@a+2
  1263   001284  C007  F019         	movff	?___xxtofl+3,___fldiv@a+3
  1264   001288  0E00               	movlw	0
  1265   00128A  6E12               	movwf	___fldiv@b^0,c
  1266   00128C  0E24               	movlw	36
  1267   00128E  6E13               	movwf	(___fldiv@b+1)^0,c
  1268   001290  0EF4               	movlw	244
  1269   001292  6E14               	movwf	(___fldiv@b+2)^0,c
  1270   001294  0E4A               	movlw	74
  1271   001296  6E15               	movwf	(___fldiv@b+3)^0,c
  1272   001298  ECE2  F00C         	call	___fldiv	;wreg free
  1273   00129C  C012  F042         	movff	?___fldiv,_EUSART_Baud_Rate_Calculations$4503
  1274   0012A0  C013  F043         	movff	?___fldiv+1,_EUSART_Baud_Rate_Calculations$4503+1
  1275   0012A4  C014  F044         	movff	?___fldiv+2,_EUSART_Baud_Rate_Calculations$4503+2
  1276   0012A8  C015  F045         	movff	?___fldiv+3,_EUSART_Baud_Rate_Calculations$4503+3
  1277   0012AC                     
  1278                           ;MCAL_Layer/USART/hal_usart.c: 139:             Baud_Rate_Temp = ((8000000UL / (float)_e
      +                          usart->baudrate) / 4) - 1;
  1279   0012AC  0E00               	movlw	0
  1280   0012AE  6E16               	movwf	___fldiv@a^0,c
  1281   0012B0  0E00               	movlw	0
  1282   0012B2  6E17               	movwf	(___fldiv@a+1)^0,c
  1283   0012B4  0E80               	movlw	128
  1284   0012B6  6E18               	movwf	(___fldiv@a+2)^0,c
  1285   0012B8  0E40               	movlw	64
  1286   0012BA  6E19               	movwf	(___fldiv@a+3)^0,c
  1287   0012BC  C042  F012         	movff	_EUSART_Baud_Rate_Calculations$4503,___fldiv@b
  1288   0012C0  C043  F013         	movff	_EUSART_Baud_Rate_Calculations$4503+1,___fldiv@b+1
  1289   0012C4  C044  F014         	movff	_EUSART_Baud_Rate_Calculations$4503+2,___fldiv@b+2
  1290   0012C8  C045  F015         	movff	_EUSART_Baud_Rate_Calculations$4503+3,___fldiv@b+3
  1291   0012CC  ECE2  F00C         	call	___fldiv	;wreg free
  1292   0012D0  C012  F02B         	movff	?___fldiv,___fladd@b
  1293   0012D4  C013  F02C         	movff	?___fldiv+1,___fladd@b+1
  1294   0012D8  C014  F02D         	movff	?___fldiv+2,___fladd@b+2
  1295   0012DC  C015  F02E         	movff	?___fldiv+3,___fladd@b+3
  1296   0012E0  0E00               	movlw	0
  1297   0012E2  6E2F               	movwf	___fladd@a^0,c
  1298   0012E4  0E00               	movlw	0
  1299   0012E6  6E30               	movwf	(___fladd@a+1)^0,c
  1300   0012E8  0E80               	movlw	128
  1301   0012EA  6E31               	movwf	(___fladd@a+2)^0,c
  1302   0012EC  0EBF               	movlw	191
  1303   0012EE  6E32               	movwf	(___fladd@a+3)^0,c
  1304   0012F0  EC82  F00A         	call	___fladd	;wreg free
  1305   0012F4  C02B  F03E         	movff	?___fladd,EUSART_Baud_Rate_Calculations@Baud_Rate_Temp
  1306   0012F8  C02C  F03F         	movff	?___fladd+1,EUSART_Baud_Rate_Calculations@Baud_Rate_Temp+1
  1307   0012FC  C02D  F040         	movff	?___fladd+2,EUSART_Baud_Rate_Calculations@Baud_Rate_Temp+2
  1308   001300  C02E  F041         	movff	?___fladd+3,EUSART_Baud_Rate_Calculations@Baud_Rate_Temp+3
  1309                           
  1310                           ;MCAL_Layer/USART/hal_usart.c: 140:         break;
  1311   001304  EF62  F00A         	goto	l7593
  1312   001308                     l1351:
  1313                           
  1314                           ;MCAL_Layer/USART/hal_usart.c: 142:             TXSTAbits.SYNC = 1;
  1315   001308  88AC               	bsf	172,4,c	;volatile
  1316                           
  1317                           ;MCAL_Layer/USART/hal_usart.c: 143:             BAUDCONbits.BRG16 = 0;
  1318   00130A  96B8               	bcf	184,3,c	;volatile
  1319   00130C                     
  1320                           ;MCAL_Layer/USART/hal_usart.c: 144:             Baud_Rate_Temp = ((8000000UL / (float)_e
      +                          usart->baudrate) / 4) - 1;
  1321   00130C  503B               	movf	EUSART_Baud_Rate_Calculations@_eusart^0,w,c
  1322   00130E  6ED9               	movwf	fsr2l,c
  1323   001310  6ADA               	clrf	fsr2h,c
  1324   001312  0E08               	movlw	8
  1325   001314  26D9               	addwf	fsr2l,f,c
  1326   001316  CFDE F004          	movff	postinc2,___xxtofl@val
  1327   00131A  CFDE F005          	movff	postinc2,___xxtofl@val+1
  1328   00131E  CFDE F006          	movff	postinc2,___xxtofl@val+2
  1329   001322  CFDE F007          	movff	postinc2,___xxtofl@val+3
  1330   001326  0E00               	movlw	0
  1331   001328  ECAF  F00E         	call	___xxtofl
  1332   00132C  C004  F016         	movff	?___xxtofl,___fldiv@a
  1333   001330  C005  F017         	movff	?___xxtofl+1,___fldiv@a+1
  1334   001334  C006  F018         	movff	?___xxtofl+2,___fldiv@a+2
  1335   001338  C007  F019         	movff	?___xxtofl+3,___fldiv@a+3
  1336   00133C  0E00               	movlw	0
  1337   00133E  6E12               	movwf	___fldiv@b^0,c
  1338   001340  0E24               	movlw	36
  1339   001342  6E13               	movwf	(___fldiv@b+1)^0,c
  1340   001344  0EF4               	movlw	244
  1341   001346  6E14               	movwf	(___fldiv@b+2)^0,c
  1342   001348  0E4A               	movlw	74
  1343   00134A  6E15               	movwf	(___fldiv@b+3)^0,c
  1344   00134C  ECE2  F00C         	call	___fldiv	;wreg free
  1345   001350  C012  F042         	movff	?___fldiv,_EUSART_Baud_Rate_Calculations$4503
  1346   001354  C013  F043         	movff	?___fldiv+1,_EUSART_Baud_Rate_Calculations$4503+1
  1347   001358  C014  F044         	movff	?___fldiv+2,_EUSART_Baud_Rate_Calculations$4503+2
  1348   00135C  C015  F045         	movff	?___fldiv+3,_EUSART_Baud_Rate_Calculations$4503+3
  1349   001360                     
  1350                           ;MCAL_Layer/USART/hal_usart.c: 144:             Baud_Rate_Temp = ((8000000UL / (float)_e
      +                          usart->baudrate) / 4) - 1;
  1351   001360  0E00               	movlw	0
  1352   001362  6E16               	movwf	___fldiv@a^0,c
  1353   001364  0E00               	movlw	0
  1354   001366  6E17               	movwf	(___fldiv@a+1)^0,c
  1355   001368  0E80               	movlw	128
  1356   00136A  6E18               	movwf	(___fldiv@a+2)^0,c
  1357   00136C  0E40               	movlw	64
  1358   00136E  6E19               	movwf	(___fldiv@a+3)^0,c
  1359   001370  C042  F012         	movff	_EUSART_Baud_Rate_Calculations$4503,___fldiv@b
  1360   001374  C043  F013         	movff	_EUSART_Baud_Rate_Calculations$4503+1,___fldiv@b+1
  1361   001378  C044  F014         	movff	_EUSART_Baud_Rate_Calculations$4503+2,___fldiv@b+2
  1362   00137C  C045  F015         	movff	_EUSART_Baud_Rate_Calculations$4503+3,___fldiv@b+3
  1363   001380  ECE2  F00C         	call	___fldiv	;wreg free
  1364   001384  C012  F02B         	movff	?___fldiv,___fladd@b
  1365   001388  C013  F02C         	movff	?___fldiv+1,___fladd@b+1
  1366   00138C  C014  F02D         	movff	?___fldiv+2,___fladd@b+2
  1367   001390  C015  F02E         	movff	?___fldiv+3,___fladd@b+3
  1368   001394  0E00               	movlw	0
  1369   001396  6E2F               	movwf	___fladd@a^0,c
  1370   001398  0E00               	movlw	0
  1371   00139A  6E30               	movwf	(___fladd@a+1)^0,c
  1372   00139C  0E80               	movlw	128
  1373   00139E  6E31               	movwf	(___fladd@a+2)^0,c
  1374   0013A0  0EBF               	movlw	191
  1375   0013A2  6E32               	movwf	(___fladd@a+3)^0,c
  1376   0013A4  EC82  F00A         	call	___fladd	;wreg free
  1377   0013A8  C02B  F03E         	movff	?___fladd,EUSART_Baud_Rate_Calculations@Baud_Rate_Temp
  1378   0013AC  C02C  F03F         	movff	?___fladd+1,EUSART_Baud_Rate_Calculations@Baud_Rate_Temp+1
  1379   0013B0  C02D  F040         	movff	?___fladd+2,EUSART_Baud_Rate_Calculations@Baud_Rate_Temp+2
  1380   0013B4  C02E  F041         	movff	?___fladd+3,EUSART_Baud_Rate_Calculations@Baud_Rate_Temp+3
  1381                           
  1382                           ;MCAL_Layer/USART/hal_usart.c: 145:         break;
  1383   0013B8  EF62  F00A         	goto	l7593
  1384   0013BC                     l1352:
  1385                           
  1386                           ;MCAL_Layer/USART/hal_usart.c: 147:             TXSTAbits.SYNC = 1;
  1387   0013BC  88AC               	bsf	172,4,c	;volatile
  1388                           
  1389                           ;MCAL_Layer/USART/hal_usart.c: 148:             BAUDCONbits.BRG16 = 1;
  1390   0013BE  86B8               	bsf	184,3,c	;volatile
  1391   0013C0                     
  1392                           ;MCAL_Layer/USART/hal_usart.c: 149:             Baud_Rate_Temp = ((8000000UL / (float)_e
      +                          usart->baudrate) / 4) - 1;
  1393   0013C0  503B               	movf	EUSART_Baud_Rate_Calculations@_eusart^0,w,c
  1394   0013C2  6ED9               	movwf	fsr2l,c
  1395   0013C4  6ADA               	clrf	fsr2h,c
  1396   0013C6  0E08               	movlw	8
  1397   0013C8  26D9               	addwf	fsr2l,f,c
  1398   0013CA  CFDE F004          	movff	postinc2,___xxtofl@val
  1399   0013CE  CFDE F005          	movff	postinc2,___xxtofl@val+1
  1400   0013D2  CFDE F006          	movff	postinc2,___xxtofl@val+2
  1401   0013D6  CFDE F007          	movff	postinc2,___xxtofl@val+3
  1402   0013DA  0E00               	movlw	0
  1403   0013DC  ECAF  F00E         	call	___xxtofl
  1404   0013E0  C004  F016         	movff	?___xxtofl,___fldiv@a
  1405   0013E4  C005  F017         	movff	?___xxtofl+1,___fldiv@a+1
  1406   0013E8  C006  F018         	movff	?___xxtofl+2,___fldiv@a+2
  1407   0013EC  C007  F019         	movff	?___xxtofl+3,___fldiv@a+3
  1408   0013F0  0E00               	movlw	0
  1409   0013F2  6E12               	movwf	___fldiv@b^0,c
  1410   0013F4  0E24               	movlw	36
  1411   0013F6  6E13               	movwf	(___fldiv@b+1)^0,c
  1412   0013F8  0EF4               	movlw	244
  1413   0013FA  6E14               	movwf	(___fldiv@b+2)^0,c
  1414   0013FC  0E4A               	movlw	74
  1415   0013FE  6E15               	movwf	(___fldiv@b+3)^0,c
  1416   001400  ECE2  F00C         	call	___fldiv	;wreg free
  1417   001404  C012  F042         	movff	?___fldiv,_EUSART_Baud_Rate_Calculations$4503
  1418   001408  C013  F043         	movff	?___fldiv+1,_EUSART_Baud_Rate_Calculations$4503+1
  1419   00140C  C014  F044         	movff	?___fldiv+2,_EUSART_Baud_Rate_Calculations$4503+2
  1420   001410  C015  F045         	movff	?___fldiv+3,_EUSART_Baud_Rate_Calculations$4503+3
  1421   001414                     
  1422                           ;MCAL_Layer/USART/hal_usart.c: 149:             Baud_Rate_Temp = ((8000000UL / (float)_e
      +                          usart->baudrate) / 4) - 1;
  1423   001414  0E00               	movlw	0
  1424   001416  6E16               	movwf	___fldiv@a^0,c
  1425   001418  0E00               	movlw	0
  1426   00141A  6E17               	movwf	(___fldiv@a+1)^0,c
  1427   00141C  0E80               	movlw	128
  1428   00141E  6E18               	movwf	(___fldiv@a+2)^0,c
  1429   001420  0E40               	movlw	64
  1430   001422  6E19               	movwf	(___fldiv@a+3)^0,c
  1431   001424  C042  F012         	movff	_EUSART_Baud_Rate_Calculations$4503,___fldiv@b
  1432   001428  C043  F013         	movff	_EUSART_Baud_Rate_Calculations$4503+1,___fldiv@b+1
  1433   00142C  C044  F014         	movff	_EUSART_Baud_Rate_Calculations$4503+2,___fldiv@b+2
  1434   001430  C045  F015         	movff	_EUSART_Baud_Rate_Calculations$4503+3,___fldiv@b+3
  1435   001434  ECE2  F00C         	call	___fldiv	;wreg free
  1436   001438  C012  F02B         	movff	?___fldiv,___fladd@b
  1437   00143C  C013  F02C         	movff	?___fldiv+1,___fladd@b+1
  1438   001440  C014  F02D         	movff	?___fldiv+2,___fladd@b+2
  1439   001444  C015  F02E         	movff	?___fldiv+3,___fladd@b+3
  1440   001448  0E00               	movlw	0
  1441   00144A  6E2F               	movwf	___fladd@a^0,c
  1442   00144C  0E00               	movlw	0
  1443   00144E  6E30               	movwf	(___fladd@a+1)^0,c
  1444   001450  0E80               	movlw	128
  1445   001452  6E31               	movwf	(___fladd@a+2)^0,c
  1446   001454  0EBF               	movlw	191
  1447   001456  6E32               	movwf	(___fladd@a+3)^0,c
  1448   001458  EC82  F00A         	call	___fladd	;wreg free
  1449   00145C  C02B  F03E         	movff	?___fladd,EUSART_Baud_Rate_Calculations@Baud_Rate_Temp
  1450   001460  C02C  F03F         	movff	?___fladd+1,EUSART_Baud_Rate_Calculations@Baud_Rate_Temp+1
  1451   001464  C02D  F040         	movff	?___fladd+2,EUSART_Baud_Rate_Calculations@Baud_Rate_Temp+2
  1452   001468  C02E  F041         	movff	?___fladd+3,EUSART_Baud_Rate_Calculations@Baud_Rate_Temp+3
  1453                           
  1454                           ;MCAL_Layer/USART/hal_usart.c: 150:         break;
  1455   00146C  EF62  F00A         	goto	l7593
  1456   001470                     l7591:
  1457   001470  503B               	movf	EUSART_Baud_Rate_Calculations@_eusart^0,w,c
  1458   001472  6ED9               	movwf	fsr2l,c
  1459   001474  6ADA               	clrf	fsr2h,c
  1460   001476  0E0C               	movlw	12
  1461   001478  26D9               	addwf	fsr2l,f,c
  1462   00147A  50DF               	movf	indf2,w,c
  1463   00147C  6E3C               	movwf	??_EUSART_Baud_Rate_Calculations^0,c
  1464   00147E  6A3D               	clrf	(??_EUSART_Baud_Rate_Calculations+1)^0,c
  1465                           
  1466                           ; Switch on 2 bytes has been partitioned into a top level switch of size 1, and 1 sub-sw
      +                          itches
  1467                           ; Switch size 1, requested type "simple"
  1468                           ; Number of cases is 1, Range of values is 0 to 0
  1469                           ; switch strategies available:
  1470                           ; Name         Instructions Cycles
  1471                           ; simple_byte            4     3 (average)
  1472                           ;	Chosen strategy is simple_byte
  1473   001480  503D               	movf	(??_EUSART_Baud_Rate_Calculations+1)^0,w,c
  1474   001482  0A00               	xorlw	0	; case 0
  1475   001484  B4D8               	btfsc	status,2,c
  1476   001486  EF47  F00A         	goto	l7763
  1477   00148A  EF62  F00A         	goto	l7593
  1478   00148E                     l7763:
  1479                           
  1480                           ; Switch size 1, requested type "simple"
  1481                           ; Number of cases is 6, Range of values is 0 to 5
  1482                           ; switch strategies available:
  1483                           ; Name         Instructions Cycles
  1484                           ; simple_byte           19    10 (average)
  1485                           ;	Chosen strategy is simple_byte
  1486   00148E  503C               	movf	??_EUSART_Baud_Rate_Calculations^0,w,c
  1487   001490  0A00               	xorlw	0	; case 0
  1488   001492  B4D8               	btfsc	status,2,c
  1489   001494  EF18  F008         	goto	l1346
  1490   001498  0A01               	xorlw	1	; case 1
  1491   00149A  B4D8               	btfsc	status,2,c
  1492   00149C  EF73  F008         	goto	l1348
  1493   0014A0  0A03               	xorlw	3	; case 2
  1494   0014A2  B4D8               	btfsc	status,2,c
  1495   0014A4  EFCE  F008         	goto	l1349
  1496   0014A8  0A01               	xorlw	1	; case 3
  1497   0014AA  B4D8               	btfsc	status,2,c
  1498   0014AC  EF29  F009         	goto	l1350
  1499   0014B0  0A07               	xorlw	7	; case 4
  1500   0014B2  B4D8               	btfsc	status,2,c
  1501   0014B4  EF84  F009         	goto	l1351
  1502   0014B8  0A01               	xorlw	1	; case 5
  1503   0014BA  B4D8               	btfsc	status,2,c
  1504   0014BC  EFDE  F009         	goto	l1352
  1505   0014C0  EF62  F00A         	goto	l7593
  1506   0014C4                     l7593:
  1507                           
  1508                           ;MCAL_Layer/USART/hal_usart.c: 153:     SPBRG = (uint8)((uint32)Baud_Rate_Temp);
  1509   0014C4  C03E  F004         	movff	EUSART_Baud_Rate_Calculations@Baud_Rate_Temp,___fltol@f1
  1510   0014C8  C03F  F005         	movff	EUSART_Baud_Rate_Calculations@Baud_Rate_Temp+1,___fltol@f1+1
  1511   0014CC  C040  F006         	movff	EUSART_Baud_Rate_Calculations@Baud_Rate_Temp+2,___fltol@f1+2
  1512   0014D0  C041  F007         	movff	EUSART_Baud_Rate_Calculations@Baud_Rate_Temp+3,___fltol@f1+3
  1513   0014D4  EC9A  F010         	call	___fltol	;wreg free
  1514   0014D8  5004               	movf	?___fltol^0,w,c
  1515   0014DA  6EAF               	movwf	175,c	;volatile
  1516                           
  1517                           ;MCAL_Layer/USART/hal_usart.c: 154:     SPBRGH = (uint8)((uint32)Baud_Rate_Temp >> 8);
  1518   0014DC  C03E  F004         	movff	EUSART_Baud_Rate_Calculations@Baud_Rate_Temp,___fltol@f1
  1519   0014E0  C03F  F005         	movff	EUSART_Baud_Rate_Calculations@Baud_Rate_Temp+1,___fltol@f1+1
  1520   0014E4  C040  F006         	movff	EUSART_Baud_Rate_Calculations@Baud_Rate_Temp+2,___fltol@f1+2
  1521   0014E8  C041  F007         	movff	EUSART_Baud_Rate_Calculations@Baud_Rate_Temp+3,___fltol@f1+3
  1522   0014EC  EC9A  F010         	call	___fltol	;wreg free
  1523   0014F0  C005  F004         	movff	?___fltol+1,?___fltol
  1524   0014F4  C006  F005         	movff	?___fltol+2,?___fltol+1
  1525   0014F8  C007  F006         	movff	?___fltol+3,?___fltol+2
  1526   0014FC  6A07               	clrf	(?___fltol+3)^0,c
  1527   0014FE  5004               	movf	?___fltol^0,w,c
  1528   001500  6EB0               	movwf	176,c	;volatile
  1529   001502  0012               	return		;funcret
  1530   001504                     __end_of_EUSART_Baud_Rate_Calculations:
  1531                           	callstack 0
  1532                           
  1533 ;; *************** function ___xxtofl *****************
  1534 ;; Defined at:
  1535 ;;		line 10 in file "C:\Program Files\Microchip\xc8\v2.46\pic\sources\c99\common\xxtofl.c"
  1536 ;; Parameters:    Size  Location     Type
  1537 ;;  sign            1    wreg     unsigned char 
  1538 ;;  val             4    3[COMRAM] long 
  1539 ;; Auto vars:     Size  Location     Type
  1540 ;;  sign            1   11[COMRAM] unsigned char 
  1541 ;;  arg             4   13[COMRAM] unsigned long 
  1542 ;;  exp             1   12[COMRAM] unsigned char 
  1543 ;; Return value:  Size  Location     Type
  1544 ;;                  4    3[COMRAM] unsigned char 
  1545 ;; Registers used:
  1546 ;;		wreg, status,2, status,0
  1547 ;; Tracked objects:
  1548 ;;		On entry : 0/0
  1549 ;;		On exit  : 0/0
  1550 ;;		Unchanged: 0/0
  1551 ;; Data sizes:     COMRAM   BANK0   BANK1   BANK2   BANK3   BANK4   BANK5   BANK6   BANK7   BANK8   BANK9  BANK10  BANK1
      +1  BANK12  BANK13  BANK14  BANK15
  1552 ;;      Params:         4       0       0       0       0       0       0       0       0       0       0       0       
      +0       0       0       0       0
  1553 ;;      Locals:         6       0       0       0       0       0       0       0       0       0       0       0       
      +0       0       0       0       0
  1554 ;;      Temps:          4       0       0       0       0       0       0       0       0       0       0       0       
      +0       0       0       0       0
  1555 ;;      Totals:        14       0       0       0       0       0       0       0       0       0       0       0       
      +0       0       0       0       0
  1556 ;;Total ram usage:       14 bytes
  1557 ;; Hardware stack levels used: 1
  1558 ;; Hardware stack levels required when called: 3
  1559 ;; This function calls:
  1560 ;;		Nothing
  1561 ;; This function is called by:
  1562 ;;		_EUSART_Baud_Rate_Calculations
  1563 ;; This function uses a non-reentrant model
  1564 ;;
  1565                           
  1566                           	psect	text4
  1567   001D5E                     __ptext4:
  1568                           	callstack 0
  1569   001D5E                     ___xxtofl:
  1570                           	callstack 24
  1571                           
  1572                           ;incstack = 0
  1573                           ;___xxtofl@sign stored from wreg
  1574   001D5E  6E0C               	movwf	___xxtofl@sign^0,c
  1575   001D60  500C               	movf	___xxtofl@sign^0,w,c
  1576   001D62  B4D8               	btfsc	status,2,c
  1577   001D64  EFB6  F00E         	goto	u7471
  1578   001D68  EFB8  F00E         	goto	u7470
  1579   001D6C                     u7471:
  1580   001D6C  EFDA  F00E         	goto	l2074
  1581   001D70                     u7470:
  1582   001D70  BE07               	btfsc	(___xxtofl@val+3)^0,7,c
  1583   001D72  EFBF  F00E         	goto	u7480
  1584   001D76  EFBD  F00E         	goto	u7481
  1585   001D7A                     u7481:
  1586   001D7A  EFDA  F00E         	goto	l2074
  1587   001D7E                     u7480:
  1588   001D7E  C004  F008         	movff	___xxtofl@val,??___xxtofl
  1589   001D82  C005  F009         	movff	___xxtofl@val+1,??___xxtofl+1
  1590   001D86  C006  F00A         	movff	___xxtofl@val+2,??___xxtofl+2
  1591   001D8A  C007  F00B         	movff	___xxtofl@val+3,??___xxtofl+3
  1592   001D8E  1E08               	comf	??___xxtofl^0,f,c
  1593   001D90  1E09               	comf	(??___xxtofl+1)^0,f,c
  1594   001D92  1E0A               	comf	(??___xxtofl+2)^0,f,c
  1595   001D94  1E0B               	comf	(??___xxtofl+3)^0,f,c
  1596   001D96  2A08               	incf	??___xxtofl^0,f,c
  1597   001D98  0E00               	movlw	0
  1598   001D9A  2209               	addwfc	(??___xxtofl+1)^0,f,c
  1599   001D9C  220A               	addwfc	(??___xxtofl+2)^0,f,c
  1600   001D9E  220B               	addwfc	(??___xxtofl+3)^0,f,c
  1601   001DA0  C008  F00E         	movff	??___xxtofl,___xxtofl@arg
  1602   001DA4  C009  F00F         	movff	??___xxtofl+1,___xxtofl@arg+1
  1603   001DA8  C00A  F010         	movff	??___xxtofl+2,___xxtofl@arg+2
  1604   001DAC  C00B  F011         	movff	??___xxtofl+3,___xxtofl@arg+3
  1605   001DB0  EFE2  F00E         	goto	l7523
  1606   001DB4                     l2074:
  1607   001DB4  C004  F00E         	movff	___xxtofl@val,___xxtofl@arg
  1608   001DB8  C005  F00F         	movff	___xxtofl@val+1,___xxtofl@arg+1
  1609   001DBC  C006  F010         	movff	___xxtofl@val+2,___xxtofl@arg+2
  1610   001DC0  C007  F011         	movff	___xxtofl@val+3,___xxtofl@arg+3
  1611   001DC4                     l7523:
  1612   001DC4  5004               	movf	___xxtofl@val^0,w,c
  1613   001DC6  1005               	iorwf	(___xxtofl@val+1)^0,w,c
  1614   001DC8  1006               	iorwf	(___xxtofl@val+2)^0,w,c
  1615   001DCA  1007               	iorwf	(___xxtofl@val+3)^0,w,c
  1616   001DCC  A4D8               	btfss	status,2,c
  1617   001DCE  EFEB  F00E         	goto	u7491
  1618   001DD2  EFED  F00E         	goto	u7490
  1619   001DD6                     u7491:
  1620   001DD6  EFF7  F00E         	goto	l7529
  1621   001DDA                     u7490:
  1622   001DDA  0E00               	movlw	0
  1623   001DDC  6E04               	movwf	?___xxtofl^0,c
  1624   001DDE  0E00               	movlw	0
  1625   001DE0  6E05               	movwf	(?___xxtofl+1)^0,c
  1626   001DE2  0E00               	movlw	0
  1627   001DE4  6E06               	movwf	(?___xxtofl+2)^0,c
  1628   001DE6  0E00               	movlw	0
  1629   001DE8  6E07               	movwf	(?___xxtofl+3)^0,c
  1630   001DEA  EF88  F00F         	goto	l2077
  1631   001DEE                     l7529:
  1632   001DEE  0E96               	movlw	150
  1633   001DF0  6E0D               	movwf	___xxtofl@exp^0,c
  1634   001DF2  EF01  F00F         	goto	l7533
  1635   001DF6                     l7531:
  1636   001DF6  2A0D               	incf	___xxtofl@exp^0,f,c
  1637   001DF8  90D8               	bcf	status,0,c
  1638   001DFA  3211               	rrcf	(___xxtofl@arg+3)^0,f,c
  1639   001DFC  3210               	rrcf	(___xxtofl@arg+2)^0,f,c
  1640   001DFE  320F               	rrcf	(___xxtofl@arg+1)^0,f,c
  1641   001E00  320E               	rrcf	___xxtofl@arg^0,f,c
  1642   001E02                     l7533:
  1643   001E02  0E00               	movlw	0
  1644   001E04  140E               	andwf	___xxtofl@arg^0,w,c
  1645   001E06  6E08               	movwf	??___xxtofl^0,c
  1646   001E08  0E00               	movlw	0
  1647   001E0A  140F               	andwf	(___xxtofl@arg+1)^0,w,c
  1648   001E0C  6E09               	movwf	(??___xxtofl+1)^0,c
  1649   001E0E  0E00               	movlw	0
  1650   001E10  1410               	andwf	(___xxtofl@arg+2)^0,w,c
  1651   001E12  6E0A               	movwf	(??___xxtofl+2)^0,c
  1652   001E14  0EFE               	movlw	254
  1653   001E16  1411               	andwf	(___xxtofl@arg+3)^0,w,c
  1654   001E18  6E0B               	movwf	(??___xxtofl+3)^0,c
  1655   001E1A  5008               	movf	??___xxtofl^0,w,c
  1656   001E1C  1009               	iorwf	(??___xxtofl+1)^0,w,c
  1657   001E1E  100A               	iorwf	(??___xxtofl+2)^0,w,c
  1658   001E20  100B               	iorwf	(??___xxtofl+3)^0,w,c
  1659   001E22  A4D8               	btfss	status,2,c
  1660   001E24  EF16  F00F         	goto	u7501
  1661   001E28  EF18  F00F         	goto	u7500
  1662   001E2C                     u7501:
  1663   001E2C  EFFB  F00E         	goto	l7531
  1664   001E30                     u7500:
  1665   001E30  EF26  F00F         	goto	l2081
  1666   001E34                     l7535:
  1667   001E34  2A0D               	incf	___xxtofl@exp^0,f,c
  1668   001E36  0E01               	movlw	1
  1669   001E38  260E               	addwf	___xxtofl@arg^0,f,c
  1670   001E3A  0E00               	movlw	0
  1671   001E3C  220F               	addwfc	(___xxtofl@arg+1)^0,f,c
  1672   001E3E  2210               	addwfc	(___xxtofl@arg+2)^0,f,c
  1673   001E40  2211               	addwfc	(___xxtofl@arg+3)^0,f,c
  1674   001E42  90D8               	bcf	status,0,c
  1675   001E44  3211               	rrcf	(___xxtofl@arg+3)^0,f,c
  1676   001E46  3210               	rrcf	(___xxtofl@arg+2)^0,f,c
  1677   001E48  320F               	rrcf	(___xxtofl@arg+1)^0,f,c
  1678   001E4A  320E               	rrcf	___xxtofl@arg^0,f,c
  1679   001E4C                     l2081:
  1680   001E4C  0E00               	movlw	0
  1681   001E4E  140E               	andwf	___xxtofl@arg^0,w,c
  1682   001E50  6E08               	movwf	??___xxtofl^0,c
  1683   001E52  0E00               	movlw	0
  1684   001E54  140F               	andwf	(___xxtofl@arg+1)^0,w,c
  1685   001E56  6E09               	movwf	(??___xxtofl+1)^0,c
  1686   001E58  0E00               	movlw	0
  1687   001E5A  1410               	andwf	(___xxtofl@arg+2)^0,w,c
  1688   001E5C  6E0A               	movwf	(??___xxtofl+2)^0,c
  1689   001E5E  0EFF               	movlw	255
  1690   001E60  1411               	andwf	(___xxtofl@arg+3)^0,w,c
  1691   001E62  6E0B               	movwf	(??___xxtofl+3)^0,c
  1692   001E64  5008               	movf	??___xxtofl^0,w,c
  1693   001E66  1009               	iorwf	(??___xxtofl+1)^0,w,c
  1694   001E68  100A               	iorwf	(??___xxtofl+2)^0,w,c
  1695   001E6A  100B               	iorwf	(??___xxtofl+3)^0,w,c
  1696   001E6C  A4D8               	btfss	status,2,c
  1697   001E6E  EF3B  F00F         	goto	u7511
  1698   001E72  EF3D  F00F         	goto	u7510
  1699   001E76                     u7511:
  1700   001E76  EF1A  F00F         	goto	l7535
  1701   001E7A                     u7510:
  1702   001E7A  EF45  F00F         	goto	l7543
  1703   001E7E                     l7541:
  1704   001E7E  060D               	decf	___xxtofl@exp^0,f,c
  1705   001E80  90D8               	bcf	status,0,c
  1706   001E82  360E               	rlcf	___xxtofl@arg^0,f,c
  1707   001E84  360F               	rlcf	(___xxtofl@arg+1)^0,f,c
  1708   001E86  3610               	rlcf	(___xxtofl@arg+2)^0,f,c
  1709   001E88  3611               	rlcf	(___xxtofl@arg+3)^0,f,c
  1710   001E8A                     l7543:
  1711   001E8A  BE10               	btfsc	(___xxtofl@arg+2)^0,7,c
  1712   001E8C  EF4A  F00F         	goto	u7521
  1713   001E90  EF4C  F00F         	goto	u7520
  1714   001E94                     u7521:
  1715   001E94  EF54  F00F         	goto	l2088
  1716   001E98                     u7520:
  1717   001E98  0E02               	movlw	2
  1718   001E9A  600D               	cpfslt	___xxtofl@exp^0,c
  1719   001E9C  EF52  F00F         	goto	u7531
  1720   001EA0  EF54  F00F         	goto	u7530
  1721   001EA4                     u7531:
  1722   001EA4  EF3F  F00F         	goto	l7541
  1723   001EA8                     u7530:
  1724   001EA8                     l2088:
  1725   001EA8  B00D               	btfsc	___xxtofl@exp^0,0,c
  1726   001EAA  EF59  F00F         	goto	u7541
  1727   001EAE  EF5B  F00F         	goto	u7540
  1728   001EB2                     u7541:
  1729   001EB2  EF5C  F00F         	goto	l7549
  1730   001EB6                     u7540:
  1731   001EB6  9E10               	bcf	(___xxtofl@arg+2)^0,7,c
  1732   001EB8                     l7549:
  1733   001EB8  90D8               	bcf	status,0,c
  1734   001EBA  320D               	rrcf	___xxtofl@exp^0,f,c
  1735   001EBC  C00D  F008         	movff	___xxtofl@exp,??___xxtofl
  1736   001EC0  6A09               	clrf	(??___xxtofl+1)^0,c
  1737   001EC2  6A0A               	clrf	(??___xxtofl+2)^0,c
  1738   001EC4  6A0B               	clrf	(??___xxtofl+3)^0,c
  1739   001EC6  C008  F00B         	movff	??___xxtofl,??___xxtofl+3
  1740   001ECA  6A0A               	clrf	(??___xxtofl+2)^0,c
  1741   001ECC  6A09               	clrf	(??___xxtofl+1)^0,c
  1742   001ECE  6A08               	clrf	??___xxtofl^0,c
  1743   001ED0  5008               	movf	??___xxtofl^0,w,c
  1744   001ED2  120E               	iorwf	___xxtofl@arg^0,f,c
  1745   001ED4  5009               	movf	(??___xxtofl+1)^0,w,c
  1746   001ED6  120F               	iorwf	(___xxtofl@arg+1)^0,f,c
  1747   001ED8  500A               	movf	(??___xxtofl+2)^0,w,c
  1748   001EDA  1210               	iorwf	(___xxtofl@arg+2)^0,f,c
  1749   001EDC  500B               	movf	(??___xxtofl+3)^0,w,c
  1750   001EDE  1211               	iorwf	(___xxtofl@arg+3)^0,f,c
  1751   001EE0  500C               	movf	___xxtofl@sign^0,w,c
  1752   001EE2  B4D8               	btfsc	status,2,c
  1753   001EE4  EF76  F00F         	goto	u7551
  1754   001EE8  EF78  F00F         	goto	u7550
  1755   001EEC                     u7551:
  1756   001EEC  EF80  F00F         	goto	l7559
  1757   001EF0                     u7550:
  1758   001EF0  BE07               	btfsc	(___xxtofl@val+3)^0,7,c
  1759   001EF2  EF7F  F00F         	goto	u7560
  1760   001EF6  EF7D  F00F         	goto	u7561
  1761   001EFA                     u7561:
  1762   001EFA  EF80  F00F         	goto	l7559
  1763   001EFE                     u7560:
  1764   001EFE  8E11               	bsf	(___xxtofl@arg+3)^0,7,c
  1765   001F00                     l7559:
  1766   001F00  C00E  F004         	movff	___xxtofl@arg,?___xxtofl
  1767   001F04  C00F  F005         	movff	___xxtofl@arg+1,?___xxtofl+1
  1768   001F08  C010  F006         	movff	___xxtofl@arg+2,?___xxtofl+2
  1769   001F0C  C011  F007         	movff	___xxtofl@arg+3,?___xxtofl+3
  1770   001F10                     l2077:
  1771   001F10  0012               	return		;funcret
  1772   001F12                     __end_of___xxtofl:
  1773                           	callstack 0
  1774                           
  1775 ;; *************** function ___fltol *****************
  1776 ;; Defined at:
  1777 ;;		line 43 in file "C:\Program Files\Microchip\xc8\v2.46\pic\sources\c99\common\fltol.c"
  1778 ;; Parameters:    Size  Location     Type
  1779 ;;  f1              4    3[COMRAM] unsigned char 
  1780 ;; Auto vars:     Size  Location     Type
  1781 ;;  exp1            1   12[COMRAM] unsigned char 
  1782 ;;  sign1           1   11[COMRAM] unsigned char 
  1783 ;; Return value:  Size  Location     Type
  1784 ;;                  4    3[COMRAM] long 
  1785 ;; Registers used:
  1786 ;;		wreg, status,2, status,0
  1787 ;; Tracked objects:
  1788 ;;		On entry : 0/0
  1789 ;;		On exit  : 0/0
  1790 ;;		Unchanged: 0/0
  1791 ;; Data sizes:     COMRAM   BANK0   BANK1   BANK2   BANK3   BANK4   BANK5   BANK6   BANK7   BANK8   BANK9  BANK10  BANK1
      +1  BANK12  BANK13  BANK14  BANK15
  1792 ;;      Params:         4       0       0       0       0       0       0       0       0       0       0       0       
      +0       0       0       0       0
  1793 ;;      Locals:         2       0       0       0       0       0       0       0       0       0       0       0       
      +0       0       0       0       0
  1794 ;;      Temps:          4       0       0       0       0       0       0       0       0       0       0       0       
      +0       0       0       0       0
  1795 ;;      Totals:        10       0       0       0       0       0       0       0       0       0       0       0       
      +0       0       0       0       0
  1796 ;;Total ram usage:       10 bytes
  1797 ;; Hardware stack levels used: 1
  1798 ;; Hardware stack levels required when called: 3
  1799 ;; This function calls:
  1800 ;;		Nothing
  1801 ;; This function is called by:
  1802 ;;		_EUSART_Baud_Rate_Calculations
  1803 ;; This function uses a non-reentrant model
  1804 ;;
  1805                           
  1806                           	psect	text5
  1807   002134                     __ptext5:
  1808                           	callstack 0
  1809   002134                     ___fltol:
  1810                           	callstack 24
  1811   002134  3406               	rlcf	(___fltol@f1+2)^0,w,c
  1812   002136  3407               	rlcf	(___fltol@f1+3)^0,w,c
  1813   002138  6E0D               	movwf	___fltol@exp1^0,c
  1814   00213A  500D               	movf	___fltol@exp1^0,w,c
  1815   00213C  A4D8               	btfss	status,2,c
  1816   00213E  EFA3  F010         	goto	u7401
  1817   002142  EFA5  F010         	goto	u7400
  1818   002146                     u7401:
  1819   002146  EFAF  F010         	goto	l7479
  1820   00214A                     u7400:
  1821   00214A                     l7475:
  1822   00214A  0E00               	movlw	0
  1823   00214C  6E04               	movwf	?___fltol^0,c
  1824   00214E  0E00               	movlw	0
  1825   002150  6E05               	movwf	(?___fltol+1)^0,c
  1826   002152  0E00               	movlw	0
  1827   002154  6E06               	movwf	(?___fltol+2)^0,c
  1828   002156  0E00               	movlw	0
  1829   002158  6E07               	movwf	(?___fltol+3)^0,c
  1830   00215A  EF1C  F011         	goto	l1716
  1831   00215E                     l7479:
  1832   00215E  C004  F008         	movff	___fltol@f1,??___fltol
  1833   002162  C005  F009         	movff	___fltol@f1+1,??___fltol+1
  1834   002166  C006  F00A         	movff	___fltol@f1+2,??___fltol+2
  1835   00216A  C007  F00B         	movff	___fltol@f1+3,??___fltol+3
  1836   00216E  0E20               	movlw	32
  1837   002170  EFBF  F010         	goto	u7410
  1838   002174                     u7415:
  1839   002174  90D8               	bcf	status,0,c
  1840   002176  320B               	rrcf	(??___fltol+3)^0,f,c
  1841   002178  320A               	rrcf	(??___fltol+2)^0,f,c
  1842   00217A  3209               	rrcf	(??___fltol+1)^0,f,c
  1843   00217C  3208               	rrcf	??___fltol^0,f,c
  1844   00217E                     u7410:
  1845   00217E  2EE8               	decfsz	wreg,f,c
  1846   002180  EFBA  F010         	goto	u7415
  1847   002184  5008               	movf	??___fltol^0,w,c
  1848   002186  6E0C               	movwf	___fltol@sign1^0,c
  1849   002188  8E06               	bsf	(___fltol@f1+2)^0,7,c
  1850   00218A  0EFF               	movlw	255
  1851   00218C  1604               	andwf	___fltol@f1^0,f,c
  1852   00218E  0EFF               	movlw	255
  1853   002190  1605               	andwf	(___fltol@f1+1)^0,f,c
  1854   002192  0EFF               	movlw	255
  1855   002194  1606               	andwf	(___fltol@f1+2)^0,f,c
  1856   002196  0E00               	movlw	0
  1857   002198  1607               	andwf	(___fltol@f1+3)^0,f,c
  1858   00219A  0E96               	movlw	150
  1859   00219C  5E0D               	subwf	___fltol@exp1^0,f,c
  1860   00219E  BE0D               	btfsc	___fltol@exp1^0,7,c
  1861   0021A0  EFD6  F010         	goto	u7420
  1862   0021A4  EFD4  F010         	goto	u7421
  1863   0021A8                     u7421:
  1864   0021A8  EFEC  F010         	goto	l7499
  1865   0021AC                     u7420:
  1866   0021AC  500D               	movf	___fltol@exp1^0,w,c
  1867   0021AE  0A80               	xorlw	128
  1868   0021B0  0F97               	addlw	151
  1869   0021B2  B0D8               	btfsc	status,0,c
  1870   0021B4  EFDE  F010         	goto	u7431
  1871   0021B8  EFE0  F010         	goto	u7430
  1872   0021BC                     u7431:
  1873   0021BC  EFE2  F010         	goto	l7495
  1874   0021C0                     u7430:
  1875   0021C0  EFA5  F010         	goto	l7475
  1876   0021C4                     l7495:
  1877   0021C4  90D8               	bcf	status,0,c
  1878   0021C6  3207               	rrcf	(___fltol@f1+3)^0,f,c
  1879   0021C8  3206               	rrcf	(___fltol@f1+2)^0,f,c
  1880   0021CA  3205               	rrcf	(___fltol@f1+1)^0,f,c
  1881   0021CC  3204               	rrcf	___fltol@f1^0,f,c
  1882   0021CE  3E0D               	incfsz	___fltol@exp1^0,f,c
  1883   0021D0  EFE2  F010         	goto	l7495
  1884   0021D4  EF04  F011         	goto	l7509
  1885   0021D8                     l7499:
  1886   0021D8  0E1F               	movlw	31
  1887   0021DA  640D               	cpfsgt	___fltol@exp1^0,c
  1888   0021DC  EFF2  F010         	goto	u7441
  1889   0021E0  EFF4  F010         	goto	u7440
  1890   0021E4                     u7441:
  1891   0021E4  EFFC  F010         	goto	l7507
  1892   0021E8                     u7440:
  1893   0021E8  EFA5  F010         	goto	l7475
  1894   0021EC                     l7505:
  1895   0021EC  90D8               	bcf	status,0,c
  1896   0021EE  3604               	rlcf	___fltol@f1^0,f,c
  1897   0021F0  3605               	rlcf	(___fltol@f1+1)^0,f,c
  1898   0021F2  3606               	rlcf	(___fltol@f1+2)^0,f,c
  1899   0021F4  3607               	rlcf	(___fltol@f1+3)^0,f,c
  1900   0021F6  060D               	decf	___fltol@exp1^0,f,c
  1901   0021F8                     l7507:
  1902   0021F8  500D               	movf	___fltol@exp1^0,w,c
  1903   0021FA  A4D8               	btfss	status,2,c
  1904   0021FC  EF02  F011         	goto	u7451
  1905   002200  EF04  F011         	goto	u7450
  1906   002204                     u7451:
  1907   002204  EFF6  F010         	goto	l7505
  1908   002208                     u7450:
  1909   002208                     l7509:
  1910   002208  500C               	movf	___fltol@sign1^0,w,c
  1911   00220A  B4D8               	btfsc	status,2,c
  1912   00220C  EF0A  F011         	goto	u7461
  1913   002210  EF0C  F011         	goto	u7460
  1914   002214                     u7461:
  1915   002214  EF14  F011         	goto	l7513
  1916   002218                     u7460:
  1917   002218  1E07               	comf	(___fltol@f1+3)^0,f,c
  1918   00221A  1E06               	comf	(___fltol@f1+2)^0,f,c
  1919   00221C  1E05               	comf	(___fltol@f1+1)^0,f,c
  1920   00221E  6C04               	negf	___fltol@f1^0,c
  1921   002220  0E00               	movlw	0
  1922   002222  2205               	addwfc	(___fltol@f1+1)^0,f,c
  1923   002224  2206               	addwfc	(___fltol@f1+2)^0,f,c
  1924   002226  2207               	addwfc	(___fltol@f1+3)^0,f,c
  1925   002228                     l7513:
  1926   002228  C004  F004         	movff	___fltol@f1,?___fltol
  1927   00222C  C005  F005         	movff	___fltol@f1+1,?___fltol+1
  1928   002230  C006  F006         	movff	___fltol@f1+2,?___fltol+2
  1929   002234  C007  F007         	movff	___fltol@f1+3,?___fltol+3
  1930   002238                     l1716:
  1931   002238  0012               	return		;funcret
  1932   00223A                     __end_of___fltol:
  1933                           	callstack 0
  1934                           
  1935 ;; *************** function ___fldiv *****************
  1936 ;; Defined at:
  1937 ;;		line 11 in file "C:\Program Files\Microchip\xc8\v2.46\pic\sources\c99\common\sprcdiv.c"
  1938 ;; Parameters:    Size  Location     Type
  1939 ;;  b               4   17[COMRAM] long 
  1940 ;;  a               4   21[COMRAM] long 
  1941 ;; Auto vars:     Size  Location     Type
  1942 ;;  grs             4   36[COMRAM] unsigned long 
  1943 ;;  rem             4   29[COMRAM] unsigned long 
  1944 ;;  new_exp         2   34[COMRAM] short 
  1945 ;;  aexp            1   41[COMRAM] unsigned char 
  1946 ;;  bexp            1   40[COMRAM] unsigned char 
  1947 ;;  sign            1   33[COMRAM] unsigned char 
  1948 ;; Return value:  Size  Location     Type
  1949 ;;                  4   17[COMRAM] unsigned char 
  1950 ;; Registers used:
  1951 ;;		wreg, status,2, status,0
  1952 ;; Tracked objects:
  1953 ;;		On entry : 0/0
  1954 ;;		On exit  : 0/0
  1955 ;;		Unchanged: 0/0
  1956 ;; Data sizes:     COMRAM   BANK0   BANK1   BANK2   BANK3   BANK4   BANK5   BANK6   BANK7   BANK8   BANK9  BANK10  BANK1
      +1  BANK12  BANK13  BANK14  BANK15
  1957 ;;      Params:         8       0       0       0       0       0       0       0       0       0       0       0       
      +0       0       0       0       0
  1958 ;;      Locals:        13       0       0       0       0       0       0       0       0       0       0       0       
      +0       0       0       0       0
  1959 ;;      Temps:          4       0       0       0       0       0       0       0       0       0       0       0       
      +0       0       0       0       0
  1960 ;;      Totals:        25       0       0       0       0       0       0       0       0       0       0       0       
      +0       0       0       0       0
  1961 ;;Total ram usage:       25 bytes
  1962 ;; Hardware stack levels used: 1
  1963 ;; Hardware stack levels required when called: 3
  1964 ;; This function calls:
  1965 ;;		Nothing
  1966 ;; This function is called by:
  1967 ;;		_EUSART_Baud_Rate_Calculations
  1968 ;; This function uses a non-reentrant model
  1969 ;;
  1970                           
  1971                           	psect	text6
  1972   0019C4                     __ptext6:
  1973                           	callstack 0
  1974   0019C4                     ___fldiv:
  1975                           	callstack 24
  1976   0019C4  5015               	movf	(___fldiv@b+3)^0,w,c
  1977   0019C6  0B80               	andlw	128
  1978   0019C8  6E22               	movwf	___fldiv@sign^0,c
  1979   0019CA  5015               	movf	(___fldiv@b+3)^0,w,c
  1980   0019CC  2415               	addwf	(___fldiv@b+3)^0,w,c
  1981   0019CE  6E29               	movwf	___fldiv@bexp^0,c
  1982   0019D0  AE14               	btfss	(___fldiv@b+2)^0,7,c
  1983   0019D2  EFED  F00C         	goto	u7171
  1984   0019D6  EFEF  F00C         	goto	u7170
  1985   0019DA                     u7171:
  1986   0019DA  EFF0  F00C         	goto	l7341
  1987   0019DE                     u7170:
  1988   0019DE  8029               	bsf	___fldiv@bexp^0,0,c
  1989   0019E0                     l7341:
  1990   0019E0  5029               	movf	___fldiv@bexp^0,w,c
  1991   0019E2  B4D8               	btfsc	status,2,c
  1992   0019E4  EFF6  F00C         	goto	u7181
  1993   0019E8  EFF8  F00C         	goto	u7180
  1994   0019EC                     u7181:
  1995   0019EC  EF0D  F00D         	goto	l7351
  1996   0019F0                     u7180:
  1997   0019F0  2829               	incf	___fldiv@bexp^0,w,c
  1998   0019F2  A4D8               	btfss	status,2,c
  1999   0019F4  EFFE  F00C         	goto	u7191
  2000   0019F8  EF00  F00D         	goto	u7190
  2001   0019FC                     u7191:
  2002   0019FC  EF08  F00D         	goto	l7347
  2003   001A00                     u7190:
  2004   001A00  0E00               	movlw	0
  2005   001A02  6E12               	movwf	___fldiv@b^0,c
  2006   001A04  0E00               	movlw	0
  2007   001A06  6E13               	movwf	(___fldiv@b+1)^0,c
  2008   001A08  0E00               	movlw	0
  2009   001A0A  6E14               	movwf	(___fldiv@b+2)^0,c
  2010   001A0C  0E00               	movlw	0
  2011   001A0E  6E15               	movwf	(___fldiv@b+3)^0,c
  2012   001A10                     l7347:
  2013   001A10  8E14               	bsf	(___fldiv@b+2)^0,7,c
  2014   001A12  0E00               	movlw	0
  2015   001A14  6E15               	movwf	(___fldiv@b+3)^0,c
  2016   001A16  EF15  F00D         	goto	l7353
  2017   001A1A                     l7351:
  2018   001A1A  0E00               	movlw	0
  2019   001A1C  6E12               	movwf	___fldiv@b^0,c
  2020   001A1E  0E00               	movlw	0
  2021   001A20  6E13               	movwf	(___fldiv@b+1)^0,c
  2022   001A22  0E00               	movlw	0
  2023   001A24  6E14               	movwf	(___fldiv@b+2)^0,c
  2024   001A26  0E00               	movlw	0
  2025   001A28  6E15               	movwf	(___fldiv@b+3)^0,c
  2026   001A2A                     l7353:
  2027   001A2A  5019               	movf	(___fldiv@a+3)^0,w,c
  2028   001A2C  0B80               	andlw	128
  2029   001A2E  1A22               	xorwf	___fldiv@sign^0,f,c
  2030   001A30  5019               	movf	(___fldiv@a+3)^0,w,c
  2031   001A32  2419               	addwf	(___fldiv@a+3)^0,w,c
  2032   001A34  6E2A               	movwf	___fldiv@aexp^0,c
  2033   001A36  AE18               	btfss	(___fldiv@a+2)^0,7,c
  2034   001A38  EF20  F00D         	goto	u7201
  2035   001A3C  EF22  F00D         	goto	u7200
  2036   001A40                     u7201:
  2037   001A40  EF23  F00D         	goto	l7361
  2038   001A44                     u7200:
  2039   001A44  802A               	bsf	___fldiv@aexp^0,0,c
  2040   001A46                     l7361:
  2041   001A46  502A               	movf	___fldiv@aexp^0,w,c
  2042   001A48  B4D8               	btfsc	status,2,c
  2043   001A4A  EF29  F00D         	goto	u7211
  2044   001A4E  EF2B  F00D         	goto	u7210
  2045   001A52                     u7211:
  2046   001A52  EF40  F00D         	goto	l7371
  2047   001A56                     u7210:
  2048   001A56  282A               	incf	___fldiv@aexp^0,w,c
  2049   001A58  A4D8               	btfss	status,2,c
  2050   001A5A  EF31  F00D         	goto	u7221
  2051   001A5E  EF33  F00D         	goto	u7220
  2052   001A62                     u7221:
  2053   001A62  EF3B  F00D         	goto	l7367
  2054   001A66                     u7220:
  2055   001A66  0E00               	movlw	0
  2056   001A68  6E16               	movwf	___fldiv@a^0,c
  2057   001A6A  0E00               	movlw	0
  2058   001A6C  6E17               	movwf	(___fldiv@a+1)^0,c
  2059   001A6E  0E00               	movlw	0
  2060   001A70  6E18               	movwf	(___fldiv@a+2)^0,c
  2061   001A72  0E00               	movlw	0
  2062   001A74  6E19               	movwf	(___fldiv@a+3)^0,c
  2063   001A76                     l7367:
  2064   001A76  8E18               	bsf	(___fldiv@a+2)^0,7,c
  2065   001A78  0E00               	movlw	0
  2066   001A7A  6E19               	movwf	(___fldiv@a+3)^0,c
  2067   001A7C  EF48  F00D         	goto	l7373
  2068   001A80                     l7371:
  2069   001A80  0E00               	movlw	0
  2070   001A82  6E16               	movwf	___fldiv@a^0,c
  2071   001A84  0E00               	movlw	0
  2072   001A86  6E17               	movwf	(___fldiv@a+1)^0,c
  2073   001A88  0E00               	movlw	0
  2074   001A8A  6E18               	movwf	(___fldiv@a+2)^0,c
  2075   001A8C  0E00               	movlw	0
  2076   001A8E  6E19               	movwf	(___fldiv@a+3)^0,c
  2077   001A90                     l7373:
  2078   001A90  5016               	movf	___fldiv@a^0,w,c
  2079   001A92  1017               	iorwf	(___fldiv@a+1)^0,w,c
  2080   001A94  1018               	iorwf	(___fldiv@a+2)^0,w,c
  2081   001A96  1019               	iorwf	(___fldiv@a+3)^0,w,c
  2082   001A98  A4D8               	btfss	status,2,c
  2083   001A9A  EF51  F00D         	goto	u7231
  2084   001A9E  EF53  F00D         	goto	u7230
  2085   001AA2                     u7231:
  2086   001AA2  EF6B  F00D         	goto	l7385
  2087   001AA6                     u7230:
  2088   001AA6  0E00               	movlw	0
  2089   001AA8  6E12               	movwf	___fldiv@b^0,c
  2090   001AAA  0E00               	movlw	0
  2091   001AAC  6E13               	movwf	(___fldiv@b+1)^0,c
  2092   001AAE  0E00               	movlw	0
  2093   001AB0  6E14               	movwf	(___fldiv@b+2)^0,c
  2094   001AB2  0E00               	movlw	0
  2095   001AB4  6E15               	movwf	(___fldiv@b+3)^0,c
  2096   001AB6  0E80               	movlw	128
  2097   001AB8  1214               	iorwf	(___fldiv@b+2)^0,f,c
  2098   001ABA  0E7F               	movlw	127
  2099   001ABC  1215               	iorwf	(___fldiv@b+3)^0,f,c
  2100   001ABE                     l7379:
  2101   001ABE  5022               	movf	___fldiv@sign^0,w,c
  2102   001AC0  1215               	iorwf	(___fldiv@b+3)^0,f,c
  2103   001AC2  C012  F012         	movff	___fldiv@b,?___fldiv
  2104   001AC6  C013  F013         	movff	___fldiv@b+1,?___fldiv+1
  2105   001ACA  C014  F014         	movff	___fldiv@b+2,?___fldiv+2
  2106   001ACE  C015  F015         	movff	___fldiv@b+3,?___fldiv+3
  2107   001AD2  EFAE  F00E         	goto	l2001
  2108   001AD6                     l7385:
  2109   001AD6  5029               	movf	___fldiv@bexp^0,w,c
  2110   001AD8  A4D8               	btfss	status,2,c
  2111   001ADA  EF71  F00D         	goto	u7241
  2112   001ADE  EF73  F00D         	goto	u7240
  2113   001AE2                     u7241:
  2114   001AE2  EF7D  F00D         	goto	l7393
  2115   001AE6                     u7240:
  2116   001AE6  0E00               	movlw	0
  2117   001AE8  6E12               	movwf	?___fldiv^0,c
  2118   001AEA  0E00               	movlw	0
  2119   001AEC  6E13               	movwf	(?___fldiv+1)^0,c
  2120   001AEE  0E00               	movlw	0
  2121   001AF0  6E14               	movwf	(?___fldiv+2)^0,c
  2122   001AF2  0E00               	movlw	0
  2123   001AF4  6E15               	movwf	(?___fldiv+3)^0,c
  2124   001AF6  EFAE  F00E         	goto	l2001
  2125   001AFA                     l7393:
  2126   001AFA  502A               	movf	___fldiv@aexp^0,w,c
  2127   001AFC  C029  F01A         	movff	___fldiv@bexp,??___fldiv
  2128   001B00  6A1B               	clrf	(??___fldiv+1)^0,c
  2129   001B02  5E1A               	subwf	??___fldiv^0,f,c
  2130   001B04  0E00               	movlw	0
  2131   001B06  5A1B               	subwfb	(??___fldiv+1)^0,f,c
  2132   001B08  0E7F               	movlw	127
  2133   001B0A  241A               	addwf	??___fldiv^0,w,c
  2134   001B0C  6E23               	movwf	___fldiv@new_exp^0,c
  2135   001B0E  0E00               	movlw	0
  2136   001B10  201B               	addwfc	(??___fldiv+1)^0,w,c
  2137   001B12  6E24               	movwf	(___fldiv@new_exp+1)^0,c
  2138   001B14  C012  F01E         	movff	___fldiv@b,___fldiv@rem
  2139   001B18  C013  F01F         	movff	___fldiv@b+1,___fldiv@rem+1
  2140   001B1C  C014  F020         	movff	___fldiv@b+2,___fldiv@rem+2
  2141   001B20  C015  F021         	movff	___fldiv@b+3,___fldiv@rem+3
  2142   001B24  0E00               	movlw	0
  2143   001B26  6E12               	movwf	___fldiv@b^0,c
  2144   001B28  0E00               	movlw	0
  2145   001B2A  6E13               	movwf	(___fldiv@b+1)^0,c
  2146   001B2C  0E00               	movlw	0
  2147   001B2E  6E14               	movwf	(___fldiv@b+2)^0,c
  2148   001B30  0E00               	movlw	0
  2149   001B32  6E15               	movwf	(___fldiv@b+3)^0,c
  2150   001B34  0E00               	movlw	0
  2151   001B36  6E25               	movwf	___fldiv@grs^0,c
  2152   001B38  0E00               	movlw	0
  2153   001B3A  6E26               	movwf	(___fldiv@grs+1)^0,c
  2154   001B3C  0E00               	movlw	0
  2155   001B3E  6E27               	movwf	(___fldiv@grs+2)^0,c
  2156   001B40  0E00               	movlw	0
  2157   001B42  6E28               	movwf	(___fldiv@grs+3)^0,c
  2158   001B44  0E00               	movlw	0
  2159   001B46  6E2A               	movwf	___fldiv@aexp^0,c
  2160   001B48  EFDE  F00D         	goto	l2003
  2161   001B4C                     l7403:
  2162   001B4C  502A               	movf	___fldiv@aexp^0,w,c
  2163   001B4E  B4D8               	btfsc	status,2,c
  2164   001B50  EFAC  F00D         	goto	u7251
  2165   001B54  EFAE  F00D         	goto	u7250
  2166   001B58                     u7251:
  2167   001B58  EFC5  F00D         	goto	l7411
  2168   001B5C                     u7250:
  2169   001B5C  90D8               	bcf	status,0,c
  2170   001B5E  361E               	rlcf	___fldiv@rem^0,f,c
  2171   001B60  361F               	rlcf	(___fldiv@rem+1)^0,f,c
  2172   001B62  3620               	rlcf	(___fldiv@rem+2)^0,f,c
  2173   001B64  3621               	rlcf	(___fldiv@rem+3)^0,f,c
  2174   001B66  90D8               	bcf	status,0,c
  2175   001B68  3612               	rlcf	___fldiv@b^0,f,c
  2176   001B6A  3613               	rlcf	(___fldiv@b+1)^0,f,c
  2177   001B6C  3614               	rlcf	(___fldiv@b+2)^0,f,c
  2178   001B6E  3615               	rlcf	(___fldiv@b+3)^0,f,c
  2179   001B70  AE28               	btfss	(___fldiv@grs+3)^0,7,c
  2180   001B72  EFBD  F00D         	goto	u7261
  2181   001B76  EFBF  F00D         	goto	u7260
  2182   001B7A                     u7261:
  2183   001B7A  EFC0  F00D         	goto	l2006
  2184   001B7E                     u7260:
  2185   001B7E  8012               	bsf	___fldiv@b^0,0,c
  2186   001B80                     l2006:
  2187   001B80  90D8               	bcf	status,0,c
  2188   001B82  3625               	rlcf	___fldiv@grs^0,f,c
  2189   001B84  3626               	rlcf	(___fldiv@grs+1)^0,f,c
  2190   001B86  3627               	rlcf	(___fldiv@grs+2)^0,f,c
  2191   001B88  3628               	rlcf	(___fldiv@grs+3)^0,f,c
  2192   001B8A                     l7411:
  2193   001B8A  5016               	movf	___fldiv@a^0,w,c
  2194   001B8C  5C1E               	subwf	___fldiv@rem^0,w,c
  2195   001B8E  5017               	movf	(___fldiv@a+1)^0,w,c
  2196   001B90  581F               	subwfb	(___fldiv@rem+1)^0,w,c
  2197   001B92  5018               	movf	(___fldiv@a+2)^0,w,c
  2198   001B94  5820               	subwfb	(___fldiv@rem+2)^0,w,c
  2199   001B96  5019               	movf	(___fldiv@a+3)^0,w,c
  2200   001B98  5821               	subwfb	(___fldiv@rem+3)^0,w,c
  2201   001B9A  A0D8               	btfss	status,0,c
  2202   001B9C  EFD2  F00D         	goto	u7271
  2203   001BA0  EFD4  F00D         	goto	u7270
  2204   001BA4                     u7271:
  2205   001BA4  EFDD  F00D         	goto	l7417
  2206   001BA8                     u7270:
  2207   001BA8  8C28               	bsf	(___fldiv@grs+3)^0,6,c
  2208   001BAA  5016               	movf	___fldiv@a^0,w,c
  2209   001BAC  5E1E               	subwf	___fldiv@rem^0,f,c
  2210   001BAE  5017               	movf	(___fldiv@a+1)^0,w,c
  2211   001BB0  5A1F               	subwfb	(___fldiv@rem+1)^0,f,c
  2212   001BB2  5018               	movf	(___fldiv@a+2)^0,w,c
  2213   001BB4  5A20               	subwfb	(___fldiv@rem+2)^0,f,c
  2214   001BB6  5019               	movf	(___fldiv@a+3)^0,w,c
  2215   001BB8  5A21               	subwfb	(___fldiv@rem+3)^0,f,c
  2216   001BBA                     l7417:
  2217   001BBA  2A2A               	incf	___fldiv@aexp^0,f,c
  2218   001BBC                     l2003:
  2219   001BBC  0E19               	movlw	25
  2220   001BBE  642A               	cpfsgt	___fldiv@aexp^0,c
  2221   001BC0  EFE4  F00D         	goto	u7281
  2222   001BC4  EFE6  F00D         	goto	u7280
  2223   001BC8                     u7281:
  2224   001BC8  EFA6  F00D         	goto	l7403
  2225   001BCC                     u7280:
  2226   001BCC  501E               	movf	___fldiv@rem^0,w,c
  2227   001BCE  101F               	iorwf	(___fldiv@rem+1)^0,w,c
  2228   001BD0  1020               	iorwf	(___fldiv@rem+2)^0,w,c
  2229   001BD2  1021               	iorwf	(___fldiv@rem+3)^0,w,c
  2230   001BD4  B4D8               	btfsc	status,2,c
  2231   001BD6  EFEF  F00D         	goto	u7291
  2232   001BDA  EFF1  F00D         	goto	u7290
  2233   001BDE                     u7291:
  2234   001BDE  EF09  F00E         	goto	l7429
  2235   001BE2                     u7290:
  2236   001BE2  8025               	bsf	___fldiv@grs^0,0,c
  2237   001BE4  EF09  F00E         	goto	l7429
  2238   001BE8                     l7423:
  2239   001BE8  90D8               	bcf	status,0,c
  2240   001BEA  3612               	rlcf	___fldiv@b^0,f,c
  2241   001BEC  3613               	rlcf	(___fldiv@b+1)^0,f,c
  2242   001BEE  3614               	rlcf	(___fldiv@b+2)^0,f,c
  2243   001BF0  3615               	rlcf	(___fldiv@b+3)^0,f,c
  2244   001BF2  AE28               	btfss	(___fldiv@grs+3)^0,7,c
  2245   001BF4  EFFE  F00D         	goto	u7301
  2246   001BF8  EF00  F00E         	goto	u7300
  2247   001BFC                     u7301:
  2248   001BFC  EF01  F00E         	goto	l2012
  2249   001C00                     u7300:
  2250   001C00  8012               	bsf	___fldiv@b^0,0,c
  2251   001C02                     l2012:
  2252   001C02  90D8               	bcf	status,0,c
  2253   001C04  3625               	rlcf	___fldiv@grs^0,f,c
  2254   001C06  3626               	rlcf	(___fldiv@grs+1)^0,f,c
  2255   001C08  3627               	rlcf	(___fldiv@grs+2)^0,f,c
  2256   001C0A  3628               	rlcf	(___fldiv@grs+3)^0,f,c
  2257   001C0C  0623               	decf	___fldiv@new_exp^0,f,c
  2258   001C0E  A0D8               	btfss	status,0,c
  2259   001C10  0624               	decf	(___fldiv@new_exp+1)^0,f,c
  2260   001C12                     l7429:
  2261   001C12  AE14               	btfss	(___fldiv@b+2)^0,7,c
  2262   001C14  EF0E  F00E         	goto	u7311
  2263   001C18  EF10  F00E         	goto	u7310
  2264   001C1C                     u7311:
  2265   001C1C  EFF4  F00D         	goto	l7423
  2266   001C20                     u7310:
  2267   001C20  0E00               	movlw	0
  2268   001C22  6E2A               	movwf	___fldiv@aexp^0,c
  2269   001C24  AE28               	btfss	(___fldiv@grs+3)^0,7,c
  2270   001C26  EF17  F00E         	goto	u7321
  2271   001C2A  EF19  F00E         	goto	u7320
  2272   001C2E                     u7321:
  2273   001C2E  EF3D  F00E         	goto	l2014
  2274   001C32                     u7320:
  2275   001C32  0EFF               	movlw	255
  2276   001C34  1425               	andwf	___fldiv@grs^0,w,c
  2277   001C36  6E1A               	movwf	??___fldiv^0,c
  2278   001C38  0EFF               	movlw	255
  2279   001C3A  1426               	andwf	(___fldiv@grs+1)^0,w,c
  2280   001C3C  6E1B               	movwf	(??___fldiv+1)^0,c
  2281   001C3E  0EFF               	movlw	255
  2282   001C40  1427               	andwf	(___fldiv@grs+2)^0,w,c
  2283   001C42  6E1C               	movwf	(??___fldiv+2)^0,c
  2284   001C44  0E7F               	movlw	127
  2285   001C46  1428               	andwf	(___fldiv@grs+3)^0,w,c
  2286   001C48  6E1D               	movwf	(??___fldiv+3)^0,c
  2287   001C4A  501A               	movf	??___fldiv^0,w,c
  2288   001C4C  101B               	iorwf	(??___fldiv+1)^0,w,c
  2289   001C4E  101C               	iorwf	(??___fldiv+2)^0,w,c
  2290   001C50  101D               	iorwf	(??___fldiv+3)^0,w,c
  2291   001C52  B4D8               	btfsc	status,2,c
  2292   001C54  EF2E  F00E         	goto	u7331
  2293   001C58  EF30  F00E         	goto	u7330
  2294   001C5C                     u7331:
  2295   001C5C  EF34  F00E         	goto	l2015
  2296   001C60                     u7330:
  2297   001C60                     l7437:
  2298   001C60  0E01               	movlw	1
  2299   001C62  6E2A               	movwf	___fldiv@aexp^0,c
  2300   001C64  EF3D  F00E         	goto	l2014
  2301   001C68                     l2015:
  2302   001C68  A012               	btfss	___fldiv@b^0,0,c
  2303   001C6A  EF39  F00E         	goto	u7341
  2304   001C6E  EF3B  F00E         	goto	u7340
  2305   001C72                     u7341:
  2306   001C72  EF3D  F00E         	goto	l2014
  2307   001C76                     u7340:
  2308   001C76  EF30  F00E         	goto	l7437
  2309   001C7A                     l2014:
  2310   001C7A  502A               	movf	___fldiv@aexp^0,w,c
  2311   001C7C  B4D8               	btfsc	status,2,c
  2312   001C7E  EF43  F00E         	goto	u7351
  2313   001C82  EF45  F00E         	goto	u7350
  2314   001C86                     u7351:
  2315   001C86  EF69  F00E         	goto	l7449
  2316   001C8A                     u7350:
  2317   001C8A  0E01               	movlw	1
  2318   001C8C  2612               	addwf	___fldiv@b^0,f,c
  2319   001C8E  0E00               	movlw	0
  2320   001C90  2213               	addwfc	(___fldiv@b+1)^0,f,c
  2321   001C92  2214               	addwfc	(___fldiv@b+2)^0,f,c
  2322   001C94  2215               	addwfc	(___fldiv@b+3)^0,f,c
  2323   001C96  A015               	btfss	(___fldiv@b+3)^0,0,c
  2324   001C98  EF50  F00E         	goto	u7361
  2325   001C9C  EF52  F00E         	goto	u7360
  2326   001CA0                     u7361:
  2327   001CA0  EF69  F00E         	goto	l7449
  2328   001CA4                     u7360:
  2329   001CA4  C012  F01A         	movff	___fldiv@b,??___fldiv
  2330   001CA8  C013  F01B         	movff	___fldiv@b+1,??___fldiv+1
  2331   001CAC  C014  F01C         	movff	___fldiv@b+2,??___fldiv+2
  2332   001CB0  C015  F01D         	movff	___fldiv@b+3,??___fldiv+3
  2333   001CB4  341D               	rlcf	(??___fldiv+3)^0,w,c
  2334   001CB6  321D               	rrcf	(??___fldiv+3)^0,f,c
  2335   001CB8  321C               	rrcf	(??___fldiv+2)^0,f,c
  2336   001CBA  321B               	rrcf	(??___fldiv+1)^0,f,c
  2337   001CBC  321A               	rrcf	??___fldiv^0,f,c
  2338   001CBE  C01A  F012         	movff	??___fldiv,___fldiv@b
  2339   001CC2  C01B  F013         	movff	??___fldiv+1,___fldiv@b+1
  2340   001CC6  C01C  F014         	movff	??___fldiv+2,___fldiv@b+2
  2341   001CCA  C01D  F015         	movff	??___fldiv+3,___fldiv@b+3
  2342   001CCE  4A23               	infsnz	___fldiv@new_exp^0,f,c
  2343   001CD0  2A24               	incf	(___fldiv@new_exp+1)^0,f,c
  2344   001CD2                     l7449:
  2345   001CD2  BE24               	btfsc	(___fldiv@new_exp+1)^0,7,c
  2346   001CD4  EF74  F00E         	goto	u7371
  2347   001CD8  5024               	movf	(___fldiv@new_exp+1)^0,w,c
  2348   001CDA  E108               	bnz	u7370
  2349   001CDC  2823               	incf	___fldiv@new_exp^0,w,c
  2350   001CDE  A0D8               	btfss	status,0,c
  2351   001CE0  EF74  F00E         	goto	u7371
  2352   001CE4  EF76  F00E         	goto	u7370
  2353   001CE8                     u7371:
  2354   001CE8  EF81  F00E         	goto	l7453
  2355   001CEC                     u7370:
  2356   001CEC  0E00               	movlw	0
  2357   001CEE  6E24               	movwf	(___fldiv@new_exp+1)^0,c
  2358   001CF0  6823               	setf	___fldiv@new_exp^0,c
  2359   001CF2  0E00               	movlw	0
  2360   001CF4  6E12               	movwf	___fldiv@b^0,c
  2361   001CF6  0E00               	movlw	0
  2362   001CF8  6E13               	movwf	(___fldiv@b+1)^0,c
  2363   001CFA  0E00               	movlw	0
  2364   001CFC  6E14               	movwf	(___fldiv@b+2)^0,c
  2365   001CFE  0E00               	movlw	0
  2366   001D00  6E15               	movwf	(___fldiv@b+3)^0,c
  2367   001D02                     l7453:
  2368   001D02  BE24               	btfsc	(___fldiv@new_exp+1)^0,7,c
  2369   001D04  EF8E  F00E         	goto	u7380
  2370   001D08  5024               	movf	(___fldiv@new_exp+1)^0,w,c
  2371   001D0A  E106               	bnz	u7381
  2372   001D0C  0423               	decf	___fldiv@new_exp^0,w,c
  2373   001D0E  B0D8               	btfsc	status,0,c
  2374   001D10  EF8C  F00E         	goto	u7381
  2375   001D14  EF8E  F00E         	goto	u7380
  2376   001D18                     u7381:
  2377   001D18  EF9C  F00E         	goto	l7457
  2378   001D1C                     u7380:
  2379   001D1C  0E00               	movlw	0
  2380   001D1E  6E24               	movwf	(___fldiv@new_exp+1)^0,c
  2381   001D20  0E00               	movlw	0
  2382   001D22  6E23               	movwf	___fldiv@new_exp^0,c
  2383   001D24  0E00               	movlw	0
  2384   001D26  6E12               	movwf	___fldiv@b^0,c
  2385   001D28  0E00               	movlw	0
  2386   001D2A  6E13               	movwf	(___fldiv@b+1)^0,c
  2387   001D2C  0E00               	movlw	0
  2388   001D2E  6E14               	movwf	(___fldiv@b+2)^0,c
  2389   001D30  0E00               	movlw	0
  2390   001D32  6E15               	movwf	(___fldiv@b+3)^0,c
  2391   001D34  0E00               	movlw	0
  2392   001D36  6E22               	movwf	___fldiv@sign^0,c
  2393   001D38                     l7457:
  2394   001D38  C023  F029         	movff	___fldiv@new_exp,___fldiv@bexp
  2395   001D3C  A029               	btfss	___fldiv@bexp^0,0,c
  2396   001D3E  EFA3  F00E         	goto	u7391
  2397   001D42  EFA5  F00E         	goto	u7390
  2398   001D46                     u7391:
  2399   001D46  EFA8  F00E         	goto	l7463
  2400   001D4A                     u7390:
  2401   001D4A  8E14               	bsf	(___fldiv@b+2)^0,7,c
  2402   001D4C  EFA9  F00E         	goto	l7465
  2403   001D50                     l7463:
  2404   001D50  9E14               	bcf	(___fldiv@b+2)^0,7,c
  2405   001D52                     l7465:
  2406   001D52  90D8               	bcf	status,0,c
  2407   001D54  3029               	rrcf	___fldiv@bexp^0,w,c
  2408   001D56  6E15               	movwf	(___fldiv@b+3)^0,c
  2409   001D58  EF5F  F00D         	goto	l7379
  2410   001D5C                     l2001:
  2411   001D5C  0012               	return		;funcret
  2412   001D5E                     __end_of___fldiv:
  2413                           	callstack 0
  2414                           
  2415 ;; *************** function ___fladd *****************
  2416 ;; Defined at:
  2417 ;;		line 10 in file "C:\Program Files\Microchip\xc8\v2.46\pic\sources\c99\common\sprcadd.c"
  2418 ;; Parameters:    Size  Location     Type
  2419 ;;  b               4   42[COMRAM] unsigned char 
  2420 ;;  a               4   46[COMRAM] unsigned char 
  2421 ;; Auto vars:     Size  Location     Type
  2422 ;;  grs             1   57[COMRAM] unsigned char 
  2423 ;;  bexp            1   56[COMRAM] unsigned char 
  2424 ;;  aexp            1   55[COMRAM] unsigned char 
  2425 ;;  signs           1   54[COMRAM] unsigned char 
  2426 ;; Return value:  Size  Location     Type
  2427 ;;                  4   42[COMRAM] unsigned char 
  2428 ;; Registers used:
  2429 ;;		wreg, status,2, status,0
  2430 ;; Tracked objects:
  2431 ;;		On entry : 0/0
  2432 ;;		On exit  : 0/0
  2433 ;;		Unchanged: 0/0
  2434 ;; Data sizes:     COMRAM   BANK0   BANK1   BANK2   BANK3   BANK4   BANK5   BANK6   BANK7   BANK8   BANK9  BANK10  BANK1
      +1  BANK12  BANK13  BANK14  BANK15
  2435 ;;      Params:         8       0       0       0       0       0       0       0       0       0       0       0       
      +0       0       0       0       0
  2436 ;;      Locals:         4       0       0       0       0       0       0       0       0       0       0       0       
      +0       0       0       0       0
  2437 ;;      Temps:          4       0       0       0       0       0       0       0       0       0       0       0       
      +0       0       0       0       0
  2438 ;;      Totals:        16       0       0       0       0       0       0       0       0       0       0       0       
      +0       0       0       0       0
  2439 ;;Total ram usage:       16 bytes
  2440 ;; Hardware stack levels used: 1
  2441 ;; Hardware stack levels required when called: 3
  2442 ;; This function calls:
  2443 ;;		Nothing
  2444 ;; This function is called by:
  2445 ;;		_EUSART_Baud_Rate_Calculations
  2446 ;; This function uses a non-reentrant model
  2447 ;;
  2448                           
  2449                           	psect	text7
  2450   001504                     __ptext7:
  2451                           	callstack 0
  2452   001504                     ___fladd:
  2453                           	callstack 24
  2454   001504  502E               	movf	(___fladd@b+3)^0,w,c
  2455   001506  0B80               	andlw	128
  2456   001508  6E37               	movwf	___fladd@signs^0,c
  2457   00150A  502E               	movf	(___fladd@b+3)^0,w,c
  2458   00150C  242E               	addwf	(___fladd@b+3)^0,w,c
  2459   00150E  6E39               	movwf	___fladd@bexp^0,c
  2460   001510  AE2D               	btfss	(___fladd@b+2)^0,7,c
  2461   001512  EF8D  F00A         	goto	u6781
  2462   001516  EF8F  F00A         	goto	u6780
  2463   00151A                     u6781:
  2464   00151A  EF90  F00A         	goto	l7139
  2465   00151E                     u6780:
  2466   00151E  8039               	bsf	___fladd@bexp^0,0,c
  2467   001520                     l7139:
  2468   001520  5039               	movf	___fladd@bexp^0,w,c
  2469   001522  B4D8               	btfsc	status,2,c
  2470   001524  EF96  F00A         	goto	u6791
  2471   001528  EF98  F00A         	goto	u6790
  2472   00152C                     u6791:
  2473   00152C  EFAD  F00A         	goto	l7149
  2474   001530                     u6790:
  2475   001530  2839               	incf	___fladd@bexp^0,w,c
  2476   001532  A4D8               	btfss	status,2,c
  2477   001534  EF9E  F00A         	goto	u6801
  2478   001538  EFA0  F00A         	goto	u6800
  2479   00153C                     u6801:
  2480   00153C  EFA8  F00A         	goto	l7145
  2481   001540                     u6800:
  2482   001540  0E00               	movlw	0
  2483   001542  6E2B               	movwf	___fladd@b^0,c
  2484   001544  0E00               	movlw	0
  2485   001546  6E2C               	movwf	(___fladd@b+1)^0,c
  2486   001548  0E00               	movlw	0
  2487   00154A  6E2D               	movwf	(___fladd@b+2)^0,c
  2488   00154C  0E00               	movlw	0
  2489   00154E  6E2E               	movwf	(___fladd@b+3)^0,c
  2490   001550                     l7145:
  2491   001550  8E2D               	bsf	(___fladd@b+2)^0,7,c
  2492   001552  0E00               	movlw	0
  2493   001554  6E2E               	movwf	(___fladd@b+3)^0,c
  2494   001556  EFB5  F00A         	goto	l7151
  2495   00155A                     l7149:
  2496   00155A  0E00               	movlw	0
  2497   00155C  6E2B               	movwf	___fladd@b^0,c
  2498   00155E  0E00               	movlw	0
  2499   001560  6E2C               	movwf	(___fladd@b+1)^0,c
  2500   001562  0E00               	movlw	0
  2501   001564  6E2D               	movwf	(___fladd@b+2)^0,c
  2502   001566  0E00               	movlw	0
  2503   001568  6E2E               	movwf	(___fladd@b+3)^0,c
  2504   00156A                     l7151:
  2505   00156A  5032               	movf	(___fladd@a+3)^0,w,c
  2506   00156C  0B80               	andlw	128
  2507   00156E  6E38               	movwf	___fladd@aexp^0,c
  2508   001570  5037               	movf	___fladd@signs^0,w,c
  2509   001572  1838               	xorwf	___fladd@aexp^0,w,c
  2510   001574  B4D8               	btfsc	status,2,c
  2511   001576  EFBF  F00A         	goto	u6811
  2512   00157A  EFC1  F00A         	goto	u6810
  2513   00157E                     u6811:
  2514   00157E  EFC2  F00A         	goto	l7157
  2515   001582                     u6810:
  2516   001582  8C37               	bsf	___fladd@signs^0,6,c
  2517   001584                     l7157:
  2518   001584  5032               	movf	(___fladd@a+3)^0,w,c
  2519   001586  2432               	addwf	(___fladd@a+3)^0,w,c
  2520   001588  6E38               	movwf	___fladd@aexp^0,c
  2521   00158A  AE31               	btfss	(___fladd@a+2)^0,7,c
  2522   00158C  EFCA  F00A         	goto	u6821
  2523   001590  EFCC  F00A         	goto	u6820
  2524   001594                     u6821:
  2525   001594  EFCD  F00A         	goto	l7163
  2526   001598                     u6820:
  2527   001598  8038               	bsf	___fladd@aexp^0,0,c
  2528   00159A                     l7163:
  2529   00159A  5038               	movf	___fladd@aexp^0,w,c
  2530   00159C  B4D8               	btfsc	status,2,c
  2531   00159E  EFD3  F00A         	goto	u6831
  2532   0015A2  EFD5  F00A         	goto	u6830
  2533   0015A6                     u6831:
  2534   0015A6  EFEA  F00A         	goto	l7173
  2535   0015AA                     u6830:
  2536   0015AA  2838               	incf	___fladd@aexp^0,w,c
  2537   0015AC  A4D8               	btfss	status,2,c
  2538   0015AE  EFDB  F00A         	goto	u6841
  2539   0015B2  EFDD  F00A         	goto	u6840
  2540   0015B6                     u6841:
  2541   0015B6  EFE5  F00A         	goto	l7169
  2542   0015BA                     u6840:
  2543   0015BA  0E00               	movlw	0
  2544   0015BC  6E2F               	movwf	___fladd@a^0,c
  2545   0015BE  0E00               	movlw	0
  2546   0015C0  6E30               	movwf	(___fladd@a+1)^0,c
  2547   0015C2  0E00               	movlw	0
  2548   0015C4  6E31               	movwf	(___fladd@a+2)^0,c
  2549   0015C6  0E00               	movlw	0
  2550   0015C8  6E32               	movwf	(___fladd@a+3)^0,c
  2551   0015CA                     l7169:
  2552   0015CA  8E31               	bsf	(___fladd@a+2)^0,7,c
  2553   0015CC  0E00               	movlw	0
  2554   0015CE  6E32               	movwf	(___fladd@a+3)^0,c
  2555   0015D0  EFF2  F00A         	goto	l7175
  2556   0015D4                     l7173:
  2557   0015D4  0E00               	movlw	0
  2558   0015D6  6E2F               	movwf	___fladd@a^0,c
  2559   0015D8  0E00               	movlw	0
  2560   0015DA  6E30               	movwf	(___fladd@a+1)^0,c
  2561   0015DC  0E00               	movlw	0
  2562   0015DE  6E31               	movwf	(___fladd@a+2)^0,c
  2563   0015E0  0E00               	movlw	0
  2564   0015E2  6E32               	movwf	(___fladd@a+3)^0,c
  2565   0015E4                     l7175:
  2566   0015E4  5039               	movf	___fladd@bexp^0,w,c
  2567   0015E6  5C38               	subwf	___fladd@aexp^0,w,c
  2568   0015E8  B0D8               	btfsc	status,0,c
  2569   0015EA  EFF9  F00A         	goto	u6851
  2570   0015EE  EFFB  F00A         	goto	u6850
  2571   0015F2                     u6851:
  2572   0015F2  EF22  F00B         	goto	l7211
  2573   0015F6                     u6850:
  2574   0015F6  AC37               	btfss	___fladd@signs^0,6,c
  2575   0015F8  EF00  F00B         	goto	u6861
  2576   0015FC  EF02  F00B         	goto	u6860
  2577   001600                     u6861:
  2578   001600  EF04  F00B         	goto	l7181
  2579   001604                     u6860:
  2580   001604  0E80               	movlw	128
  2581   001606  1A37               	xorwf	___fladd@signs^0,f,c
  2582   001608                     l7181:
  2583   001608  C039  F03A         	movff	___fladd@bexp,___fladd@grs
  2584   00160C  C038  F039         	movff	___fladd@aexp,___fladd@bexp
  2585   001610  C03A  F038         	movff	___fladd@grs,___fladd@aexp
  2586   001614  C02B  F03A         	movff	___fladd@b,___fladd@grs
  2587   001618  C02F  F02B         	movff	___fladd@a,___fladd@b
  2588   00161C  C03A  F02F         	movff	___fladd@grs,___fladd@a
  2589   001620  C02C  F03A         	movff	___fladd@b+1,___fladd@grs
  2590   001624  C030  F02C         	movff	___fladd@a+1,___fladd@b+1
  2591   001628  C03A  F030         	movff	___fladd@grs,___fladd@a+1
  2592   00162C  C02D  F03A         	movff	___fladd@b+2,___fladd@grs
  2593   001630  C031  F02D         	movff	___fladd@a+2,___fladd@b+2
  2594   001634  C03A  F031         	movff	___fladd@grs,___fladd@a+2
  2595   001638  C02E  F03A         	movff	___fladd@b+3,___fladd@grs
  2596   00163C  C032  F02E         	movff	___fladd@a+3,___fladd@b+3
  2597   001640  C03A  F032         	movff	___fladd@grs,___fladd@a+3
  2598   001644                     l7211:
  2599   001644  0E00               	movlw	0
  2600   001646  6E3A               	movwf	___fladd@grs^0,c
  2601   001648  5039               	movf	___fladd@bexp^0,w,c
  2602   00164A  C038  F033         	movff	___fladd@aexp,??___fladd
  2603   00164E  6A34               	clrf	(??___fladd+1)^0,c
  2604   001650  5E33               	subwf	??___fladd^0,f,c
  2605   001652  0E00               	movlw	0
  2606   001654  5A34               	subwfb	(??___fladd+1)^0,f,c
  2607   001656  BE34               	btfsc	(??___fladd+1)^0,7,c
  2608   001658  EF37  F00B         	goto	u6871
  2609   00165C  5034               	movf	(??___fladd+1)^0,w,c
  2610   00165E  E109               	bnz	u6870
  2611   001660  0E1A               	movlw	26
  2612   001662  5C33               	subwf	??___fladd^0,w,c
  2613   001664  A0D8               	btfss	status,0,c
  2614   001666  EF37  F00B         	goto	u6871
  2615   00166A  EF39  F00B         	goto	u6870
  2616   00166E                     u6871:
  2617   00166E  EF70  F00B         	goto	l1948
  2618   001672                     u6870:
  2619   001672  502B               	movf	___fladd@b^0,w,c
  2620   001674  102C               	iorwf	(___fladd@b+1)^0,w,c
  2621   001676  102D               	iorwf	(___fladd@b+2)^0,w,c
  2622   001678  102E               	iorwf	(___fladd@b+3)^0,w,c
  2623   00167A  A4D8               	btfss	status,2,c
  2624   00167C  EF42  F00B         	goto	u6881
  2625   001680  EF45  F00B         	goto	u6880
  2626   001684                     u6881:
  2627   001684  0E01               	movlw	1
  2628   001686  EF46  F00B         	goto	u6890
  2629   00168A                     u6880:
  2630   00168A  0E00               	movlw	0
  2631   00168C                     u6890:
  2632   00168C  6E3A               	movwf	___fladd@grs^0,c
  2633   00168E  0E00               	movlw	0
  2634   001690  6E2B               	movwf	___fladd@b^0,c
  2635   001692  0E00               	movlw	0
  2636   001694  6E2C               	movwf	(___fladd@b+1)^0,c
  2637   001696  0E00               	movlw	0
  2638   001698  6E2D               	movwf	(___fladd@b+2)^0,c
  2639   00169A  0E00               	movlw	0
  2640   00169C  6E2E               	movwf	(___fladd@b+3)^0,c
  2641   00169E  C038  F039         	movff	___fladd@aexp,___fladd@bexp
  2642   0016A2  EF79  F00B         	goto	l1947
  2643   0016A6                     l1949:
  2644   0016A6  A03A               	btfss	___fladd@grs^0,0,c
  2645   0016A8  EF58  F00B         	goto	u6901
  2646   0016AC  EF5A  F00B         	goto	u6900
  2647   0016B0                     u6901:
  2648   0016B0  EF60  F00B         	goto	l7223
  2649   0016B4                     u6900:
  2650   0016B4  90D8               	bcf	status,0,c
  2651   0016B6  303A               	rrcf	___fladd@grs^0,w,c
  2652   0016B8  0901               	iorlw	1
  2653   0016BA  6E3A               	movwf	___fladd@grs^0,c
  2654   0016BC  EF62  F00B         	goto	l7225
  2655   0016C0                     l7223:
  2656   0016C0  90D8               	bcf	status,0,c
  2657   0016C2  323A               	rrcf	___fladd@grs^0,f,c
  2658   0016C4                     l7225:
  2659   0016C4  A02B               	btfss	___fladd@b^0,0,c
  2660   0016C6  EF67  F00B         	goto	u6911
  2661   0016CA  EF69  F00B         	goto	u6910
  2662   0016CE                     u6911:
  2663   0016CE  EF6A  F00B         	goto	l7229
  2664   0016D2                     u6910:
  2665   0016D2  8E3A               	bsf	___fladd@grs^0,7,c
  2666   0016D4                     l7229:
  2667   0016D4  342E               	rlcf	(___fladd@b+3)^0,w,c
  2668   0016D6  322E               	rrcf	(___fladd@b+3)^0,f,c
  2669   0016D8  322D               	rrcf	(___fladd@b+2)^0,f,c
  2670   0016DA  322C               	rrcf	(___fladd@b+1)^0,f,c
  2671   0016DC  322B               	rrcf	___fladd@b^0,f,c
  2672   0016DE  2A39               	incf	___fladd@bexp^0,f,c
  2673   0016E0                     l1948:
  2674   0016E0  5038               	movf	___fladd@aexp^0,w,c
  2675   0016E2  5C39               	subwf	___fladd@bexp^0,w,c
  2676   0016E4  A0D8               	btfss	status,0,c
  2677   0016E6  EF77  F00B         	goto	u6921
  2678   0016EA  EF79  F00B         	goto	u6920
  2679   0016EE                     u6921:
  2680   0016EE  EF53  F00B         	goto	l1949
  2681   0016F2                     u6920:
  2682   0016F2                     l1947:
  2683   0016F2  BC37               	btfsc	___fladd@signs^0,6,c
  2684   0016F4  EF7E  F00B         	goto	u6931
  2685   0016F8  EF80  F00B         	goto	u6930
  2686   0016FC                     u6931:
  2687   0016FC  EFC0  F00B         	goto	l7257
  2688   001700                     u6930:
  2689   001700  5039               	movf	___fladd@bexp^0,w,c
  2690   001702  A4D8               	btfss	status,2,c
  2691   001704  EF86  F00B         	goto	u6941
  2692   001708  EF88  F00B         	goto	u6940
  2693   00170C                     u6941:
  2694   00170C  EF92  F00B         	goto	l7239
  2695   001710                     u6940:
  2696   001710  0E00               	movlw	0
  2697   001712  6E2B               	movwf	?___fladd^0,c
  2698   001714  0E00               	movlw	0
  2699   001716  6E2C               	movwf	(?___fladd+1)^0,c
  2700   001718  0E00               	movlw	0
  2701   00171A  6E2D               	movwf	(?___fladd+2)^0,c
  2702   00171C  0E00               	movlw	0
  2703   00171E  6E2E               	movwf	(?___fladd+3)^0,c
  2704   001720  EFE1  F00C         	goto	l1956
  2705   001724                     l7239:
  2706   001724  502F               	movf	___fladd@a^0,w,c
  2707   001726  262B               	addwf	___fladd@b^0,f,c
  2708   001728  5030               	movf	(___fladd@a+1)^0,w,c
  2709   00172A  222C               	addwfc	(___fladd@b+1)^0,f,c
  2710   00172C  5031               	movf	(___fladd@a+2)^0,w,c
  2711   00172E  222D               	addwfc	(___fladd@b+2)^0,f,c
  2712   001730  5032               	movf	(___fladd@a+3)^0,w,c
  2713   001732  222E               	addwfc	(___fladd@b+3)^0,f,c
  2714   001734  A02E               	btfss	(___fladd@b+3)^0,0,c
  2715   001736  EF9F  F00B         	goto	u6951
  2716   00173A  EFA1  F00B         	goto	u6950
  2717   00173E                     u6951:
  2718   00173E  EF4D  F00C         	goto	l7293
  2719   001742                     u6950:
  2720   001742  A03A               	btfss	___fladd@grs^0,0,c
  2721   001744  EFA6  F00B         	goto	u6961
  2722   001748  EFA8  F00B         	goto	u6960
  2723   00174C                     u6961:
  2724   00174C  EFAE  F00B         	goto	l7247
  2725   001750                     u6960:
  2726   001750  90D8               	bcf	status,0,c
  2727   001752  303A               	rrcf	___fladd@grs^0,w,c
  2728   001754  0901               	iorlw	1
  2729   001756  6E3A               	movwf	___fladd@grs^0,c
  2730   001758  EFB0  F00B         	goto	l7249
  2731   00175C                     l7247:
  2732   00175C  90D8               	bcf	status,0,c
  2733   00175E  323A               	rrcf	___fladd@grs^0,f,c
  2734   001760                     l7249:
  2735   001760  A02B               	btfss	___fladd@b^0,0,c
  2736   001762  EFB5  F00B         	goto	u6971
  2737   001766  EFB7  F00B         	goto	u6970
  2738   00176A                     u6971:
  2739   00176A  EFB8  F00B         	goto	l7253
  2740   00176E                     u6970:
  2741   00176E  8E3A               	bsf	___fladd@grs^0,7,c
  2742   001770                     l7253:
  2743   001770  342E               	rlcf	(___fladd@b+3)^0,w,c
  2744   001772  322E               	rrcf	(___fladd@b+3)^0,f,c
  2745   001774  322D               	rrcf	(___fladd@b+2)^0,f,c
  2746   001776  322C               	rrcf	(___fladd@b+1)^0,f,c
  2747   001778  322B               	rrcf	___fladd@b^0,f,c
  2748   00177A  2A39               	incf	___fladd@bexp^0,f,c
  2749   00177C  EF4D  F00C         	goto	l7293
  2750   001780                     l7257:
  2751   001780  502F               	movf	___fladd@a^0,w,c
  2752   001782  5C2B               	subwf	___fladd@b^0,w,c
  2753   001784  5030               	movf	(___fladd@a+1)^0,w,c
  2754   001786  582C               	subwfb	(___fladd@b+1)^0,w,c
  2755   001788  5031               	movf	(___fladd@a+2)^0,w,c
  2756   00178A  582D               	subwfb	(___fladd@b+2)^0,w,c
  2757   00178C  502E               	movf	(___fladd@b+3)^0,w,c
  2758   00178E  0A80               	xorlw	128
  2759   001790  6E33               	movwf	??___fladd^0,c
  2760   001792  5032               	movf	(___fladd@a+3)^0,w,c
  2761   001794  0A80               	xorlw	128
  2762   001796  5833               	subwfb	??___fladd^0,w,c
  2763   001798  B0D8               	btfsc	status,0,c
  2764   00179A  EFD1  F00B         	goto	u6981
  2765   00179E  EFD3  F00B         	goto	u6980
  2766   0017A2                     u6981:
  2767   0017A2  EFFE  F00B         	goto	l7267
  2768   0017A6                     u6980:
  2769   0017A6  502B               	movf	___fladd@b^0,w,c
  2770   0017A8  5C2F               	subwf	___fladd@a^0,w,c
  2771   0017AA  6E33               	movwf	??___fladd^0,c
  2772   0017AC  502C               	movf	(___fladd@b+1)^0,w,c
  2773   0017AE  5830               	subwfb	(___fladd@a+1)^0,w,c
  2774   0017B0  6E34               	movwf	(??___fladd+1)^0,c
  2775   0017B2  502D               	movf	(___fladd@b+2)^0,w,c
  2776   0017B4  5831               	subwfb	(___fladd@a+2)^0,w,c
  2777   0017B6  6E35               	movwf	(??___fladd+2)^0,c
  2778   0017B8  502E               	movf	(___fladd@b+3)^0,w,c
  2779   0017BA  5832               	subwfb	(___fladd@a+3)^0,w,c
  2780   0017BC  6E36               	movwf	(??___fladd+3)^0,c
  2781   0017BE  0EFF               	movlw	255
  2782   0017C0  2433               	addwf	??___fladd^0,w,c
  2783   0017C2  6E2B               	movwf	___fladd@b^0,c
  2784   0017C4  0EFF               	movlw	255
  2785   0017C6  2034               	addwfc	(??___fladd+1)^0,w,c
  2786   0017C8  6E2C               	movwf	(___fladd@b+1)^0,c
  2787   0017CA  0EFF               	movlw	255
  2788   0017CC  2035               	addwfc	(??___fladd+2)^0,w,c
  2789   0017CE  6E2D               	movwf	(___fladd@b+2)^0,c
  2790   0017D0  0EFF               	movlw	255
  2791   0017D2  2036               	addwfc	(??___fladd+3)^0,w,c
  2792   0017D4  6E2E               	movwf	(___fladd@b+3)^0,c
  2793   0017D6  0E80               	movlw	128
  2794   0017D8  1A37               	xorwf	___fladd@signs^0,f,c
  2795   0017DA  6C3A               	negf	___fladd@grs^0,c
  2796   0017DC  503A               	movf	___fladd@grs^0,w,c
  2797   0017DE  A4D8               	btfss	status,2,c
  2798   0017E0  EFF4  F00B         	goto	u6991
  2799   0017E4  EFF6  F00B         	goto	u6990
  2800   0017E8                     u6991:
  2801   0017E8  EF06  F00C         	goto	l1964
  2802   0017EC                     u6990:
  2803   0017EC  0E01               	movlw	1
  2804   0017EE  262B               	addwf	___fladd@b^0,f,c
  2805   0017F0  0E00               	movlw	0
  2806   0017F2  222C               	addwfc	(___fladd@b+1)^0,f,c
  2807   0017F4  222D               	addwfc	(___fladd@b+2)^0,f,c
  2808   0017F6  222E               	addwfc	(___fladd@b+3)^0,f,c
  2809   0017F8  EF06  F00C         	goto	l1964
  2810   0017FC                     l7267:
  2811   0017FC  502F               	movf	___fladd@a^0,w,c
  2812   0017FE  5E2B               	subwf	___fladd@b^0,f,c
  2813   001800  5030               	movf	(___fladd@a+1)^0,w,c
  2814   001802  5A2C               	subwfb	(___fladd@b+1)^0,f,c
  2815   001804  5031               	movf	(___fladd@a+2)^0,w,c
  2816   001806  5A2D               	subwfb	(___fladd@b+2)^0,f,c
  2817   001808  5032               	movf	(___fladd@a+3)^0,w,c
  2818   00180A  5A2E               	subwfb	(___fladd@b+3)^0,f,c
  2819   00180C                     l1964:
  2820   00180C  502B               	movf	___fladd@b^0,w,c
  2821   00180E  102C               	iorwf	(___fladd@b+1)^0,w,c
  2822   001810  102D               	iorwf	(___fladd@b+2)^0,w,c
  2823   001812  102E               	iorwf	(___fladd@b+3)^0,w,c
  2824   001814  A4D8               	btfss	status,2,c
  2825   001816  EF0F  F00C         	goto	u7001
  2826   00181A  EF11  F00C         	goto	u7000
  2827   00181E                     u7001:
  2828   00181E  EF46  F00C         	goto	l7291
  2829   001822                     u7000:
  2830   001822  503A               	movf	___fladd@grs^0,w,c
  2831   001824  A4D8               	btfss	status,2,c
  2832   001826  EF17  F00C         	goto	u7011
  2833   00182A  EF19  F00C         	goto	u7010
  2834   00182E                     u7011:
  2835   00182E  EF46  F00C         	goto	l7291
  2836   001832                     u7010:
  2837   001832  0E00               	movlw	0
  2838   001834  6E2B               	movwf	?___fladd^0,c
  2839   001836  0E00               	movlw	0
  2840   001838  6E2C               	movwf	(?___fladd+1)^0,c
  2841   00183A  0E00               	movlw	0
  2842   00183C  6E2D               	movwf	(?___fladd+2)^0,c
  2843   00183E  0E00               	movlw	0
  2844   001840  6E2E               	movwf	(?___fladd+3)^0,c
  2845   001842  EFE1  F00C         	goto	l1956
  2846   001846                     l7275:
  2847   001846  90D8               	bcf	status,0,c
  2848   001848  362B               	rlcf	___fladd@b^0,f,c
  2849   00184A  362C               	rlcf	(___fladd@b+1)^0,f,c
  2850   00184C  362D               	rlcf	(___fladd@b+2)^0,f,c
  2851   00184E  362E               	rlcf	(___fladd@b+3)^0,f,c
  2852   001850  AE3A               	btfss	___fladd@grs^0,7,c
  2853   001852  EF2D  F00C         	goto	u7021
  2854   001856  EF2F  F00C         	goto	u7020
  2855   00185A                     u7021:
  2856   00185A  EF30  F00C         	goto	l7281
  2857   00185E                     u7020:
  2858   00185E  802B               	bsf	___fladd@b^0,0,c
  2859   001860                     l7281:
  2860   001860  A03A               	btfss	___fladd@grs^0,0,c
  2861   001862  EF35  F00C         	goto	u7031
  2862   001866  EF37  F00C         	goto	u7030
  2863   00186A                     u7031:
  2864   00186A  EF3B  F00C         	goto	l7285
  2865   00186E                     u7030:
  2866   00186E  80D8               	bsf	status,0,c
  2867   001870  363A               	rlcf	___fladd@grs^0,f,c
  2868   001872  EF3D  F00C         	goto	l7287
  2869   001876                     l7285:
  2870   001876  90D8               	bcf	status,0,c
  2871   001878  363A               	rlcf	___fladd@grs^0,f,c
  2872   00187A                     l7287:
  2873   00187A  5039               	movf	___fladd@bexp^0,w,c
  2874   00187C  B4D8               	btfsc	status,2,c
  2875   00187E  EF43  F00C         	goto	u7041
  2876   001882  EF45  F00C         	goto	u7040
  2877   001886                     u7041:
  2878   001886  EF46  F00C         	goto	l7291
  2879   00188A                     u7040:
  2880   00188A  0639               	decf	___fladd@bexp^0,f,c
  2881   00188C                     l7291:
  2882   00188C  AE2D               	btfss	(___fladd@b+2)^0,7,c
  2883   00188E  EF4B  F00C         	goto	u7051
  2884   001892  EF4D  F00C         	goto	u7050
  2885   001896                     u7051:
  2886   001896  EF23  F00C         	goto	l7275
  2887   00189A                     u7050:
  2888   00189A                     l7293:
  2889   00189A  0E00               	movlw	0
  2890   00189C  6E38               	movwf	___fladd@aexp^0,c
  2891   00189E  AE3A               	btfss	___fladd@grs^0,7,c
  2892   0018A0  EF54  F00C         	goto	u7061
  2893   0018A4  EF56  F00C         	goto	u7060
  2894   0018A8                     u7061:
  2895   0018A8  EF6E  F00C         	goto	l1973
  2896   0018AC                     u7060:
  2897   0018AC  C03A  F033         	movff	___fladd@grs,??___fladd
  2898   0018B0  0E7F               	movlw	127
  2899   0018B2  1633               	andwf	??___fladd^0,f,c
  2900   0018B4  B4D8               	btfsc	status,2,c
  2901   0018B6  EF5F  F00C         	goto	u7071
  2902   0018BA  EF61  F00C         	goto	u7070
  2903   0018BE                     u7071:
  2904   0018BE  EF65  F00C         	goto	l1974
  2905   0018C2                     u7070:
  2906   0018C2                     l7299:
  2907   0018C2  0E01               	movlw	1
  2908   0018C4  6E38               	movwf	___fladd@aexp^0,c
  2909   0018C6  EF6E  F00C         	goto	l1973
  2910   0018CA                     l1974:
  2911   0018CA  A02B               	btfss	___fladd@b^0,0,c
  2912   0018CC  EF6A  F00C         	goto	u7081
  2913   0018D0  EF6C  F00C         	goto	u7080
  2914   0018D4                     u7081:
  2915   0018D4  EF6E  F00C         	goto	l1973
  2916   0018D8                     u7080:
  2917   0018D8  EF61  F00C         	goto	l7299
  2918   0018DC                     l1973:
  2919   0018DC  5038               	movf	___fladd@aexp^0,w,c
  2920   0018DE  B4D8               	btfsc	status,2,c
  2921   0018E0  EF74  F00C         	goto	u7091
  2922   0018E4  EF76  F00C         	goto	u7090
  2923   0018E8                     u7091:
  2924   0018E8  EFA1  F00C         	goto	l7311
  2925   0018EC                     u7090:
  2926   0018EC  0E01               	movlw	1
  2927   0018EE  262B               	addwf	___fladd@b^0,f,c
  2928   0018F0  0E00               	movlw	0
  2929   0018F2  222C               	addwfc	(___fladd@b+1)^0,f,c
  2930   0018F4  222D               	addwfc	(___fladd@b+2)^0,f,c
  2931   0018F6  222E               	addwfc	(___fladd@b+3)^0,f,c
  2932   0018F8  A02E               	btfss	(___fladd@b+3)^0,0,c
  2933   0018FA  EF81  F00C         	goto	u7101
  2934   0018FE  EF83  F00C         	goto	u7100
  2935   001902                     u7101:
  2936   001902  EFA1  F00C         	goto	l7311
  2937   001906                     u7100:
  2938   001906  C02B  F033         	movff	___fladd@b,??___fladd
  2939   00190A  C02C  F034         	movff	___fladd@b+1,??___fladd+1
  2940   00190E  C02D  F035         	movff	___fladd@b+2,??___fladd+2
  2941   001912  C02E  F036         	movff	___fladd@b+3,??___fladd+3
  2942   001916  3436               	rlcf	(??___fladd+3)^0,w,c
  2943   001918  3236               	rrcf	(??___fladd+3)^0,f,c
  2944   00191A  3235               	rrcf	(??___fladd+2)^0,f,c
  2945   00191C  3234               	rrcf	(??___fladd+1)^0,f,c
  2946   00191E  3233               	rrcf	??___fladd^0,f,c
  2947   001920  C033  F02B         	movff	??___fladd,___fladd@b
  2948   001924  C034  F02C         	movff	??___fladd+1,___fladd@b+1
  2949   001928  C035  F02D         	movff	??___fladd+2,___fladd@b+2
  2950   00192C  C036  F02E         	movff	??___fladd+3,___fladd@b+3
  2951   001930  2839               	incf	___fladd@bexp^0,w,c
  2952   001932  B4D8               	btfsc	status,2,c
  2953   001934  EF9E  F00C         	goto	u7111
  2954   001938  EFA0  F00C         	goto	u7110
  2955   00193C                     u7111:
  2956   00193C  EFA1  F00C         	goto	l7311
  2957   001940                     u7110:
  2958   001940  2A39               	incf	___fladd@bexp^0,f,c
  2959   001942                     l7311:
  2960   001942  2839               	incf	___fladd@bexp^0,w,c
  2961   001944  B4D8               	btfsc	status,2,c
  2962   001946  EFA7  F00C         	goto	u7121
  2963   00194A  EFA9  F00C         	goto	u7120
  2964   00194E                     u7121:
  2965   00194E  EFB1  F00C         	goto	l7315
  2966   001952                     u7120:
  2967   001952  5039               	movf	___fladd@bexp^0,w,c
  2968   001954  A4D8               	btfss	status,2,c
  2969   001956  EFAF  F00C         	goto	u7131
  2970   00195A  EFB1  F00C         	goto	u7130
  2971   00195E                     u7131:
  2972   00195E  EFC3  F00C         	goto	l7319
  2973   001962                     u7130:
  2974   001962                     l7315:
  2975   001962  0E00               	movlw	0
  2976   001964  6E2B               	movwf	___fladd@b^0,c
  2977   001966  0E00               	movlw	0
  2978   001968  6E2C               	movwf	(___fladd@b+1)^0,c
  2979   00196A  0E00               	movlw	0
  2980   00196C  6E2D               	movwf	(___fladd@b+2)^0,c
  2981   00196E  0E00               	movlw	0
  2982   001970  6E2E               	movwf	(___fladd@b+3)^0,c
  2983   001972  5039               	movf	___fladd@bexp^0,w,c
  2984   001974  A4D8               	btfss	status,2,c
  2985   001976  EFBF  F00C         	goto	u7141
  2986   00197A  EFC1  F00C         	goto	u7140
  2987   00197E                     u7141:
  2988   00197E  EFC3  F00C         	goto	l7319
  2989   001982                     u7140:
  2990   001982  0E00               	movlw	0
  2991   001984  6E37               	movwf	___fladd@signs^0,c
  2992   001986                     l7319:
  2993   001986  A039               	btfss	___fladd@bexp^0,0,c
  2994   001988  EFC8  F00C         	goto	u7151
  2995   00198C  EFCA  F00C         	goto	u7150
  2996   001990                     u7151:
  2997   001990  EFCD  F00C         	goto	l7323
  2998   001994                     u7150:
  2999   001994  8E2D               	bsf	(___fladd@b+2)^0,7,c
  3000   001996  EFCE  F00C         	goto	l7325
  3001   00199A                     l7323:
  3002   00199A  9E2D               	bcf	(___fladd@b+2)^0,7,c
  3003   00199C                     l7325:
  3004   00199C  90D8               	bcf	status,0,c
  3005   00199E  3039               	rrcf	___fladd@bexp^0,w,c
  3006   0019A0  6E2E               	movwf	(___fladd@b+3)^0,c
  3007   0019A2  AE37               	btfss	___fladd@signs^0,7,c
  3008   0019A4  EFD6  F00C         	goto	u7161
  3009   0019A8  EFD8  F00C         	goto	u7160
  3010   0019AC                     u7161:
  3011   0019AC  EFD9  F00C         	goto	l7331
  3012   0019B0                     u7160:
  3013   0019B0  8E2E               	bsf	(___fladd@b+3)^0,7,c
  3014   0019B2                     l7331:
  3015   0019B2  C02B  F02B         	movff	___fladd@b,?___fladd
  3016   0019B6  C02C  F02C         	movff	___fladd@b+1,?___fladd+1
  3017   0019BA  C02D  F02D         	movff	___fladd@b+2,?___fladd+2
  3018   0019BE  C02E  F02E         	movff	___fladd@b+3,?___fladd+3
  3019   0019C2                     l1956:
  3020   0019C2  0012               	return		;funcret
  3021   0019C4                     __end_of___fladd:
  3022                           	callstack 0
  3023                           
  3024 ;; *************** function _EUSART_ASYN_TX_Init *****************
  3025 ;; Defined at:
  3026 ;;		line 157 in file "MCAL_Layer/USART/hal_usart.c"
  3027 ;; Parameters:    Size  Location     Type
  3028 ;;  _eusart         1    3[COMRAM] PTR const struct .
  3029 ;;		 -> usart_module_int_init@usart_obj(18), usart_module_init@usart_obj(18), 
  3030 ;; Auto vars:     Size  Location     Type
  3031 ;;		None
  3032 ;; Return value:  Size  Location     Type
  3033 ;;                  1    wreg      void 
  3034 ;; Registers used:
  3035 ;;		wreg, fsr2l, fsr2h, status,2, status,0
  3036 ;; Tracked objects:
  3037 ;;		On entry : 0/0
  3038 ;;		On exit  : 0/0
  3039 ;;		Unchanged: 0/0
  3040 ;; Data sizes:     COMRAM   BANK0   BANK1   BANK2   BANK3   BANK4   BANK5   BANK6   BANK7   BANK8   BANK9  BANK10  BANK1
      +1  BANK12  BANK13  BANK14  BANK15
  3041 ;;      Params:         1       0       0       0       0       0       0       0       0       0       0       0       
      +0       0       0       0       0
  3042 ;;      Locals:         0       0       0       0       0       0       0       0       0       0       0       0       
      +0       0       0       0       0
  3043 ;;      Temps:          0       0       0       0       0       0       0       0       0       0       0       0       
      +0       0       0       0       0
  3044 ;;      Totals:         1       0       0       0       0       0       0       0       0       0       0       0       
      +0       0       0       0       0
  3045 ;;Total ram usage:        1 bytes
  3046 ;; Hardware stack levels used: 1
  3047 ;; Hardware stack levels required when called: 3
  3048 ;; This function calls:
  3049 ;;		Nothing
  3050 ;; This function is called by:
  3051 ;;		_EUSART_ASYN_Init
  3052 ;; This function uses a non-reentrant model
  3053 ;;
  3054                           
  3055                           	psect	text8
  3056   002306                     __ptext8:
  3057                           	callstack 0
  3058   002306                     _EUSART_ASYN_TX_Init:
  3059                           	callstack 25
  3060   002306                     
  3061                           ;MCAL_Layer/USART/hal_usart.c: 158:     if (1 == _eusart->usart_tx_cfg.usart_tx_enable){
  3062   002306  5004               	movf	EUSART_ASYN_TX_Init@_eusart^0,w,c
  3063   002308  6ED9               	movwf	fsr2l,c
  3064   00230A  6ADA               	clrf	fsr2h,c
  3065   00230C  0E0D               	movlw	13
  3066   00230E  26D9               	addwf	fsr2l,f,c
  3067   002310  AADF               	btfss	indf2,5,c
  3068   002312  EF8D  F011         	goto	u7571
  3069   002316  EF8F  F011         	goto	u7570
  3070   00231A                     u7571:
  3071   00231A  EFD4  F011         	goto	l1367
  3072   00231E                     u7570:
  3073   00231E                     
  3074                           ;MCAL_Layer/USART/hal_usart.c: 159:         TXSTAbits.TXEN = 1;
  3075   00231E  8AAC               	bsf	172,5,c	;volatile
  3076   002320                     
  3077                           ;MCAL_Layer/USART/hal_usart.c: 161:         if (1 == _eusart->usart_tx_cfg.usart_tx_inte
      +                          rrupt_enable){
  3078   002320  5004               	movf	EUSART_ASYN_TX_Init@_eusart^0,w,c
  3079   002322  6ED9               	movwf	fsr2l,c
  3080   002324  6ADA               	clrf	fsr2h,c
  3081   002326  0E0D               	movlw	13
  3082   002328  26D9               	addwf	fsr2l,f,c
  3083   00232A  ACDF               	btfss	indf2,6,c
  3084   00232C  EF9A  F011         	goto	u7581
  3085   002330  EF9C  F011         	goto	u7580
  3086   002334                     u7581:
  3087   002334  EFA9  F011         	goto	l7615
  3088   002338                     u7580:
  3089   002338                     
  3090                           ;MCAL_Layer/USART/hal_usart.c: 162:             PIE1bits.TXIE = 1;
  3091   002338  889D               	bsf	157,4,c	;volatile
  3092   00233A                     
  3093                           ;MCAL_Layer/USART/hal_usart.c: 163:             EUSART_TXInterruptHandler = _eusart->EUS
      +                          ART_TxDefaultInterruptHandler;
  3094   00233A  5004               	movf	EUSART_ASYN_TX_Init@_eusart^0,w,c
  3095   00233C  6ED9               	movwf	fsr2l,c
  3096   00233E  6ADA               	clrf	fsr2h,c
  3097   002340  CFDE F07F          	movff	postinc2,_EUSART_TXInterruptHandler
  3098   002344  CFDD F080          	movff	postdec2,_EUSART_TXInterruptHandler+1
  3099   002348                     
  3100                           ;MCAL_Layer/USART/hal_usart.c: 165:             (PIE1bits.TXIE = 1);
  3101   002348  889D               	bsf	157,4,c	;volatile
  3102   00234A                     
  3103                           ;MCAL_Layer/USART/hal_usart.c: 178:         (INTCONbits.GIE = 1);
  3104   00234A  8EF2               	bsf	242,7,c	;volatile
  3105   00234C                     
  3106                           ;MCAL_Layer/USART/hal_usart.c: 179:         (INTCONbits.PEIE = 1);
  3107   00234C  8CF2               	bsf	242,6,c	;volatile
  3108                           
  3109                           ;MCAL_Layer/USART/hal_usart.c: 182:         }
  3110   00234E  EFB6  F011         	goto	l7619
  3111   002352                     l7615:
  3112   002352  5004               	movf	EUSART_ASYN_TX_Init@_eusart^0,w,c
  3113   002354  6ED9               	movwf	fsr2l,c
  3114   002356  6ADA               	clrf	fsr2h,c
  3115   002358  0E0D               	movlw	13
  3116   00235A  26D9               	addwf	fsr2l,f,c
  3117   00235C  BCDF               	btfsc	indf2,6,c
  3118   00235E  EFB3  F011         	goto	u7591
  3119   002362  EFB5  F011         	goto	u7590
  3120   002366                     u7591:
  3121   002366  EFB6  F011         	goto	l7619
  3122   00236A                     u7590:
  3123   00236A                     
  3124                           ;MCAL_Layer/USART/hal_usart.c: 184:             PIE1bits.TXIE = 0;
  3125   00236A  989D               	bcf	157,4,c	;volatile
  3126   00236C                     l7619:
  3127                           
  3128                           ;MCAL_Layer/USART/hal_usart.c: 188:         if (1 == _eusart->usart_tx_cfg.usart_tx_9bit
      +                          _enable){
  3129   00236C  5004               	movf	EUSART_ASYN_TX_Init@_eusart^0,w,c
  3130   00236E  6ED9               	movwf	fsr2l,c
  3131   002370  6ADA               	clrf	fsr2h,c
  3132   002372  0E0D               	movlw	13
  3133   002374  26D9               	addwf	fsr2l,f,c
  3134   002376  AEDF               	btfss	indf2,7,c
  3135   002378  EFC0  F011         	goto	u7601
  3136   00237C  EFC2  F011         	goto	u7600
  3137   002380                     u7601:
  3138   002380  EFC5  F011         	goto	l7623
  3139   002384                     u7600:
  3140   002384                     
  3141                           ;MCAL_Layer/USART/hal_usart.c: 189:             TXSTAbits.TX9 = 1;
  3142   002384  8CAC               	bsf	172,6,c	;volatile
  3143                           
  3144                           ;MCAL_Layer/USART/hal_usart.c: 190:         }
  3145   002386  EFD4  F011         	goto	l1367
  3146   00238A                     l7623:
  3147   00238A  5004               	movf	EUSART_ASYN_TX_Init@_eusart^0,w,c
  3148   00238C  6ED9               	movwf	fsr2l,c
  3149   00238E  6ADA               	clrf	fsr2h,c
  3150   002390  0E0D               	movlw	13
  3151   002392  26D9               	addwf	fsr2l,f,c
  3152   002394  BEDF               	btfsc	indf2,7,c
  3153   002396  EFCF  F011         	goto	u7611
  3154   00239A  EFD1  F011         	goto	u7610
  3155   00239E                     u7611:
  3156   00239E  EFD4  F011         	goto	l1363
  3157   0023A2                     u7610:
  3158   0023A2                     
  3159                           ;MCAL_Layer/USART/hal_usart.c: 192:             TXSTAbits.TX9 = 0;
  3160   0023A2  9CAC               	bcf	172,6,c	;volatile
  3161                           
  3162                           ;MCAL_Layer/USART/hal_usart.c: 193:         }
  3163   0023A4  EFD4  F011         	goto	l1367
  3164   0023A8                     l1363:
  3165   0023A8                     l1367:
  3166   0023A8  0012               	return		;funcret
  3167   0023AA                     __end_of_EUSART_ASYN_TX_Init:
  3168                           	callstack 0
  3169                           
  3170 ;; *************** function _EUSART_ASYN_RX_Init *****************
  3171 ;; Defined at:
  3172 ;;		line 199 in file "MCAL_Layer/USART/hal_usart.c"
  3173 ;; Parameters:    Size  Location     Type
  3174 ;;  _eusart         1    3[COMRAM] PTR const struct .
  3175 ;;		 -> usart_module_int_init@usart_obj(18), usart_module_init@usart_obj(18), 
  3176 ;; Auto vars:     Size  Location     Type
  3177 ;;		None
  3178 ;; Return value:  Size  Location     Type
  3179 ;;                  1    wreg      void 
  3180 ;; Registers used:
  3181 ;;		wreg, fsr2l, fsr2h, status,2, status,0
  3182 ;; Tracked objects:
  3183 ;;		On entry : 0/0
  3184 ;;		On exit  : 0/0
  3185 ;;		Unchanged: 0/0
  3186 ;; Data sizes:     COMRAM   BANK0   BANK1   BANK2   BANK3   BANK4   BANK5   BANK6   BANK7   BANK8   BANK9  BANK10  BANK1
      +1  BANK12  BANK13  BANK14  BANK15
  3187 ;;      Params:         1       0       0       0       0       0       0       0       0       0       0       0       
      +0       0       0       0       0
  3188 ;;      Locals:         0       0       0       0       0       0       0       0       0       0       0       0       
      +0       0       0       0       0
  3189 ;;      Temps:          0       0       0       0       0       0       0       0       0       0       0       0       
      +0       0       0       0       0
  3190 ;;      Totals:         1       0       0       0       0       0       0       0       0       0       0       0       
      +0       0       0       0       0
  3191 ;;Total ram usage:        1 bytes
  3192 ;; Hardware stack levels used: 1
  3193 ;; Hardware stack levels required when called: 3
  3194 ;; This function calls:
  3195 ;;		Nothing
  3196 ;; This function is called by:
  3197 ;;		_EUSART_ASYN_Init
  3198 ;; This function uses a non-reentrant model
  3199 ;;
  3200                           
  3201                           	psect	text9
  3202   00223A                     __ptext9:
  3203                           	callstack 0
  3204   00223A                     _EUSART_ASYN_RX_Init:
  3205                           	callstack 25
  3206   00223A                     
  3207                           ;MCAL_Layer/USART/hal_usart.c: 200:     if (1 == _eusart->usart_rx_cfg.usart_rx_enable){
  3208   00223A  5004               	movf	EUSART_ASYN_RX_Init@_eusart^0,w,c
  3209   00223C  6ED9               	movwf	fsr2l,c
  3210   00223E  6ADA               	clrf	fsr2h,c
  3211   002240  0E0F               	movlw	15
  3212   002242  26D9               	addwf	fsr2l,f,c
  3213   002244  AADF               	btfss	indf2,5,c
  3214   002246  EF27  F011         	goto	u7621
  3215   00224A  EF29  F011         	goto	u7620
  3216   00224E                     u7621:
  3217   00224E  EF82  F011         	goto	l1380
  3218   002252                     u7620:
  3219   002252                     
  3220                           ;MCAL_Layer/USART/hal_usart.c: 201:         RCSTAbits.CREN = 1;
  3221   002252  88AB               	bsf	171,4,c	;volatile
  3222   002254                     
  3223                           ;MCAL_Layer/USART/hal_usart.c: 203:         if (1 == _eusart->usart_rx_cfg.usart_rx_inte
      +                          rrupt_enable){
  3224   002254  5004               	movf	EUSART_ASYN_RX_Init@_eusart^0,w,c
  3225   002256  6ED9               	movwf	fsr2l,c
  3226   002258  6ADA               	clrf	fsr2h,c
  3227   00225A  0E0F               	movlw	15
  3228   00225C  26D9               	addwf	fsr2l,f,c
  3229   00225E  ACDF               	btfss	indf2,6,c
  3230   002260  EF34  F011         	goto	u7631
  3231   002264  EF36  F011         	goto	u7630
  3232   002268                     u7631:
  3233   002268  EF57  F011         	goto	l7643
  3234   00226C                     u7630:
  3235   00226C                     
  3236                           ;MCAL_Layer/USART/hal_usart.c: 204:             PIE1bits.RCIE = 1;
  3237   00226C  8A9D               	bsf	157,5,c	;volatile
  3238   00226E                     
  3239                           ;MCAL_Layer/USART/hal_usart.c: 205:             EUSART_RXInterruptHandler = _eusart->EUS
      +                          ART_RxDefaultInterruptHandler;
  3240   00226E  5004               	movf	EUSART_ASYN_RX_Init@_eusart^0,w,c
  3241   002270  6ED9               	movwf	fsr2l,c
  3242   002272  6ADA               	clrf	fsr2h,c
  3243   002274  0E02               	movlw	2
  3244   002276  26D9               	addwf	fsr2l,f,c
  3245   002278  CFDE F07D          	movff	postinc2,_EUSART_RXInterruptHandler
  3246   00227C  CFDD F07E          	movff	postdec2,_EUSART_RXInterruptHandler+1
  3247                           
  3248                           ;MCAL_Layer/USART/hal_usart.c: 206:             EUSART_FramingErrorHandler = _eusart->EU
      +                          SART_FramingErrorHandler;
  3249   002280  5004               	movf	EUSART_ASYN_RX_Init@_eusart^0,w,c
  3250   002282  6ED9               	movwf	fsr2l,c
  3251   002284  6ADA               	clrf	fsr2h,c
  3252   002286  0E04               	movlw	4
  3253   002288  26D9               	addwf	fsr2l,f,c
  3254   00228A  CFDE F07B          	movff	postinc2,_EUSART_FramingErrorHandler
  3255   00228E  CFDD F07C          	movff	postdec2,_EUSART_FramingErrorHandler+1
  3256                           
  3257                           ;MCAL_Layer/USART/hal_usart.c: 207:             EUSART_OverrunErrorHandler = _eusart->EU
      +                          SART_OverrunErrorHandler;
  3258   002292  5004               	movf	EUSART_ASYN_RX_Init@_eusart^0,w,c
  3259   002294  6ED9               	movwf	fsr2l,c
  3260   002296  6ADA               	clrf	fsr2h,c
  3261   002298  0E06               	movlw	6
  3262   00229A  26D9               	addwf	fsr2l,f,c
  3263   00229C  CFDE F079          	movff	postinc2,_EUSART_OverrunErrorHandler
  3264   0022A0  CFDD F07A          	movff	postdec2,_EUSART_OverrunErrorHandler+1
  3265   0022A4                     
  3266                           ;MCAL_Layer/USART/hal_usart.c: 209:             (PIE1bits.RCIE = 1);
  3267   0022A4  8A9D               	bsf	157,5,c	;volatile
  3268   0022A6                     
  3269                           ;MCAL_Layer/USART/hal_usart.c: 222:         (INTCONbits.GIE = 1);
  3270   0022A6  8EF2               	bsf	242,7,c	;volatile
  3271   0022A8                     
  3272                           ;MCAL_Layer/USART/hal_usart.c: 223:         (INTCONbits.PEIE = 1);
  3273   0022A8  8CF2               	bsf	242,6,c	;volatile
  3274                           
  3275                           ;MCAL_Layer/USART/hal_usart.c: 226:         }
  3276   0022AA  EF64  F011         	goto	l7647
  3277   0022AE                     l7643:
  3278   0022AE  5004               	movf	EUSART_ASYN_RX_Init@_eusart^0,w,c
  3279   0022B0  6ED9               	movwf	fsr2l,c
  3280   0022B2  6ADA               	clrf	fsr2h,c
  3281   0022B4  0E0F               	movlw	15
  3282   0022B6  26D9               	addwf	fsr2l,f,c
  3283   0022B8  BCDF               	btfsc	indf2,6,c
  3284   0022BA  EF61  F011         	goto	u7641
  3285   0022BE  EF63  F011         	goto	u7640
  3286   0022C2                     u7641:
  3287   0022C2  EF64  F011         	goto	l7647
  3288   0022C6                     u7640:
  3289   0022C6                     
  3290                           ;MCAL_Layer/USART/hal_usart.c: 228:             PIE1bits.RCIE = 0;
  3291   0022C6  9A9D               	bcf	157,5,c	;volatile
  3292   0022C8                     l7647:
  3293                           
  3294                           ;MCAL_Layer/USART/hal_usart.c: 232:         if (1 == _eusart->usart_rx_cfg.usart_rx_9bit
      +                          _enable){
  3295   0022C8  5004               	movf	EUSART_ASYN_RX_Init@_eusart^0,w,c
  3296   0022CA  6ED9               	movwf	fsr2l,c
  3297   0022CC  6ADA               	clrf	fsr2h,c
  3298   0022CE  0E0F               	movlw	15
  3299   0022D0  26D9               	addwf	fsr2l,f,c
  3300   0022D2  AEDF               	btfss	indf2,7,c
  3301   0022D4  EF6E  F011         	goto	u7651
  3302   0022D8  EF70  F011         	goto	u7650
  3303   0022DC                     u7651:
  3304   0022DC  EF73  F011         	goto	l7651
  3305   0022E0                     u7650:
  3306   0022E0                     
  3307                           ;MCAL_Layer/USART/hal_usart.c: 233:              RCSTAbits.RC9 = 1;
  3308   0022E0  8CAB               	bsf	171,6,c	;volatile
  3309                           
  3310                           ;MCAL_Layer/USART/hal_usart.c: 234:         }
  3311   0022E2  EF82  F011         	goto	l1380
  3312   0022E6                     l7651:
  3313   0022E6  5004               	movf	EUSART_ASYN_RX_Init@_eusart^0,w,c
  3314   0022E8  6ED9               	movwf	fsr2l,c
  3315   0022EA  6ADA               	clrf	fsr2h,c
  3316   0022EC  0E0F               	movlw	15
  3317   0022EE  26D9               	addwf	fsr2l,f,c
  3318   0022F0  BEDF               	btfsc	indf2,7,c
  3319   0022F2  EF7D  F011         	goto	u7661
  3320   0022F6  EF7F  F011         	goto	u7660
  3321   0022FA                     u7661:
  3322   0022FA  EF82  F011         	goto	l1376
  3323   0022FE                     u7660:
  3324   0022FE                     
  3325                           ;MCAL_Layer/USART/hal_usart.c: 236:              RCSTAbits.RC9 = 0;
  3326   0022FE  9CAB               	bcf	171,6,c	;volatile
  3327                           
  3328                           ;MCAL_Layer/USART/hal_usart.c: 237:         }
  3329   002300  EF82  F011         	goto	l1380
  3330   002304                     l1376:
  3331   002304                     l1380:
  3332   002304  0012               	return		;funcret
  3333   002306                     __end_of_EUSART_ASYN_RX_Init:
  3334                           	callstack 0
  3335                           
  3336 ;; *************** function _led_initialize *****************
  3337 ;; Defined at:
  3338 ;;		line 17 in file "ECU_Layer/LED/ecu_led.c"
  3339 ;; Parameters:    Size  Location     Type
  3340 ;;  led             1   14[COMRAM] PTR const struct .
  3341 ;;		 -> led_1(1), 
  3342 ;; Auto vars:     Size  Location     Type
  3343 ;;  pin_obj         1   17[COMRAM] struct .
  3344 ;;  ret             1   16[COMRAM] unsigned char 
  3345 ;; Return value:  Size  Location     Type
  3346 ;;                  1    wreg      unsigned char 
  3347 ;; Registers used:
  3348 ;;		wreg, fsr2l, fsr2h, status,2, status,0, prodl, prodh, cstack
  3349 ;; Tracked objects:
  3350 ;;		On entry : 0/0
  3351 ;;		On exit  : 0/0
  3352 ;;		Unchanged: 0/0
  3353 ;; Data sizes:     COMRAM   BANK0   BANK1   BANK2   BANK3   BANK4   BANK5   BANK6   BANK7   BANK8   BANK9  BANK10  BANK1
      +1  BANK12  BANK13  BANK14  BANK15
  3354 ;;      Params:         1       0       0       0       0       0       0       0       0       0       0       0       
      +0       0       0       0       0
  3355 ;;      Locals:         2       0       0       0       0       0       0       0       0       0       0       0       
      +0       0       0       0       0
  3356 ;;      Temps:          1       0       0       0       0       0       0       0       0       0       0       0       
      +0       0       0       0       0
  3357 ;;      Totals:         4       0       0       0       0       0       0       0       0       0       0       0       
      +0       0       0       0       0
  3358 ;;Total ram usage:        4 bytes
  3359 ;; Hardware stack levels used: 1
  3360 ;; Hardware stack levels required when called: 5
  3361 ;; This function calls:
  3362 ;;		_gpio_pin_intialize
  3363 ;; This function is called by:
  3364 ;;		_main
  3365 ;; This function uses a non-reentrant model
  3366 ;;
  3367                           
  3368                           	psect	text10
  3369   0023AA                     __ptext10:
  3370                           	callstack 0
  3371   0023AA                     _led_initialize:
  3372                           	callstack 25
  3373   0023AA                     
  3374                           ;ECU_Layer/LED/ecu_led.c: 18:     Std_ReturnType ret = (Std_ReturnType)0x01;
  3375   0023AA  0E01               	movlw	1
  3376   0023AC  6E11               	movwf	led_initialize@ret^0,c
  3377                           
  3378                           ;ECU_Layer/LED/ecu_led.c: 20:     if (led == ((void*)0))
  3379   0023AE  500F               	movf	led_initialize@led^0,w,c
  3380   0023B0  A4D8               	btfss	status,2,c
  3381   0023B2  EFDD  F011         	goto	u4811
  3382   0023B6  EFDF  F011         	goto	u4810
  3383   0023BA                     u4811:
  3384   0023BA  EFE3  F011         	goto	l301
  3385   0023BE                     u4810:
  3386   0023BE                     
  3387                           ;ECU_Layer/LED/ecu_led.c: 21:     {;ECU_Layer/LED/ecu_led.c: 22:         ret = (Std_Retu
      +                          rnType)0x00;
  3388   0023BE  0E00               	movlw	0
  3389   0023C0  6E11               	movwf	led_initialize@ret^0,c
  3390                           
  3391                           ;ECU_Layer/LED/ecu_led.c: 23:     }
  3392   0023C2  EF0B  F012         	goto	l5539
  3393   0023C6                     l301:
  3394                           
  3395                           ;ECU_Layer/LED/ecu_led.c: 25:     {;ECU_Layer/LED/ecu_led.c: 26:         pin_config_t pi
      +                          n_obj = {
  3396   0023C6  C04C  F012         	movff	led_initialize@F3310,led_initialize@pin_obj
  3397   0023CA  500F               	movf	led_initialize@led^0,w,c
  3398   0023CC  6ED9               	movwf	fsr2l,c
  3399   0023CE  6ADA               	clrf	fsr2h,c
  3400   0023D0  50DF               	movf	223,w,c
  3401   0023D2  0B0F               	andlw	15
  3402   0023D4  6E10               	movwf	??_led_initialize^0,c
  3403   0023D6  5012               	movf	led_initialize@pin_obj^0,w,c
  3404   0023D8  1810               	xorwf	??_led_initialize^0,w,c
  3405   0023DA  0BF8               	andlw	-8
  3406   0023DC  1810               	xorwf	??_led_initialize^0,w,c
  3407   0023DE  6E12               	movwf	led_initialize@pin_obj^0,c
  3408   0023E0  500F               	movf	led_initialize@led^0,w,c
  3409   0023E2  6ED9               	movwf	fsr2l,c
  3410   0023E4  6ADA               	clrf	fsr2h,c
  3411   0023E6  38DF               	swapf	223,w,c
  3412   0023E8  0B07               	andlw	7
  3413   0023EA  6E10               	movwf	??_led_initialize^0,c
  3414   0023EC  4610               	rlncf	??_led_initialize^0,f,c
  3415   0023EE  4610               	rlncf	??_led_initialize^0,f,c
  3416   0023F0  4610               	rlncf	??_led_initialize^0,f,c
  3417   0023F2  5012               	movf	led_initialize@pin_obj^0,w,c
  3418   0023F4  1810               	xorwf	??_led_initialize^0,w,c
  3419   0023F6  0BC7               	andlw	-57
  3420   0023F8  1810               	xorwf	??_led_initialize^0,w,c
  3421   0023FA  6E12               	movwf	led_initialize@pin_obj^0,c
  3422   0023FC  9C12               	bcf	led_initialize@pin_obj^0,6,c
  3423   0023FE  500F               	movf	led_initialize@led^0,w,c
  3424   002400  6ED9               	movwf	fsr2l,c
  3425   002402  6ADA               	clrf	fsr2h,c
  3426   002404  AEDF               	btfss	indf2,7,c
  3427   002406  D002               	bra	u4825
  3428   002408  8E12               	bsf	led_initialize@pin_obj^0,7,c
  3429   00240A  D001               	bra	u4827
  3430   00240C                     u4825:
  3431   00240C  9E12               	bcf	led_initialize@pin_obj^0,7,c
  3432   00240E                     u4827:
  3433   00240E                     
  3434                           ;ECU_Layer/LED/ecu_led.c: 32:         gpio_pin_intialize(&pin_obj);
  3435   00240E  0E12               	movlw	low led_initialize@pin_obj
  3436   002410  6E0C               	movwf	gpio_pin_intialize@_pin_config^0,c
  3437   002412  EC0D  F012         	call	_gpio_pin_intialize	;wreg free
  3438   002416                     l5539:
  3439                           
  3440                           ;ECU_Layer/LED/ecu_led.c: 34:     return ret;
  3441   002416  5011               	movf	led_initialize@ret^0,w,c
  3442   002418  0012               	return		;funcret
  3443   00241A                     __end_of_led_initialize:
  3444                           	callstack 0
  3445                           
  3446 ;; *************** function _gpio_pin_intialize *****************
  3447 ;; Defined at:
  3448 ;;		line 167 in file "MCAL_Layer/GPIO/hal_gpio.c"
  3449 ;; Parameters:    Size  Location     Type
  3450 ;;  _pin_config     1   11[COMRAM] PTR const struct .
  3451 ;;		 -> relay_initialize@pin_obj(1), led_initialize@pin_obj(1), 
  3452 ;; Auto vars:     Size  Location     Type
  3453 ;;  ret             1   13[COMRAM] unsigned char 
  3454 ;; Return value:  Size  Location     Type
  3455 ;;                  1    wreg      unsigned char 
  3456 ;; Registers used:
  3457 ;;		wreg, fsr2l, fsr2h, status,2, status,0, prodl, prodh, cstack
  3458 ;; Tracked objects:
  3459 ;;		On entry : 0/0
  3460 ;;		On exit  : 0/0
  3461 ;;		Unchanged: 0/0
  3462 ;; Data sizes:     COMRAM   BANK0   BANK1   BANK2   BANK3   BANK4   BANK5   BANK6   BANK7   BANK8   BANK9  BANK10  BANK1
      +1  BANK12  BANK13  BANK14  BANK15
  3463 ;;      Params:         1       0       0       0       0       0       0       0       0       0       0       0       
      +0       0       0       0       0
  3464 ;;      Locals:         1       0       0       0       0       0       0       0       0       0       0       0       
      +0       0       0       0       0
  3465 ;;      Temps:          1       0       0       0       0       0       0       0       0       0       0       0       
      +0       0       0       0       0
  3466 ;;      Totals:         3       0       0       0       0       0       0       0       0       0       0       0       
      +0       0       0       0       0
  3467 ;;Total ram usage:        3 bytes
  3468 ;; Hardware stack levels used: 1
  3469 ;; Hardware stack levels required when called: 4
  3470 ;; This function calls:
  3471 ;;		_gpio_pin_direction_intialize
  3472 ;;		_gpio_pin_write_logic
  3473 ;; This function is called by:
  3474 ;;		_led_initialize
  3475 ;;		_seven_segment_intialize
  3476 ;;		_lcd_4bit_initialize
  3477 ;;		_lcd_8bit_initialize
  3478 ;;		_dc_motor_initialize
  3479 ;;		_keypad_initialize
  3480 ;;		_relay_initialize
  3481 ;;		_CCP_Init
  3482 ;; This function uses a non-reentrant model
  3483 ;;
  3484                           
  3485                           	psect	text11
  3486   00241A                     __ptext11:
  3487                           	callstack 0
  3488   00241A                     _gpio_pin_intialize:
  3489                           	callstack 25
  3490   00241A                     
  3491                           ;MCAL_Layer/GPIO/hal_gpio.c: 169:     if (((void*)0) == _pin_config || _pin_config->pin 
      +                          > 8 -1)
  3492   00241A  500C               	movf	gpio_pin_intialize@_pin_config^0,w,c
  3493   00241C  B4D8               	btfsc	status,2,c
  3494   00241E  EF13  F012         	goto	u4641
  3495   002422  EF15  F012         	goto	u4640
  3496   002426                     u4641:
  3497   002426  EF25  F012         	goto	l5359
  3498   00242A                     u4640:
  3499   00242A  500C               	movf	gpio_pin_intialize@_pin_config^0,w,c
  3500   00242C  6ED9               	movwf	fsr2l,c
  3501   00242E  6ADA               	clrf	fsr2h,c
  3502   002430  30DF               	rrcf	223,w,c
  3503   002432  32E8               	rrcf	wreg,f,c
  3504   002434  32E8               	rrcf	wreg,f,c
  3505   002436  0B07               	andlw	7
  3506   002438  6E0D               	movwf	??_gpio_pin_intialize^0,c
  3507   00243A  0E07               	movlw	7
  3508   00243C  640D               	cpfsgt	??_gpio_pin_intialize^0,c
  3509   00243E  EF23  F012         	goto	u4651
  3510   002442  EF25  F012         	goto	u4650
  3511   002446                     u4651:
  3512   002446  EF29  F012         	goto	l5361
  3513   00244A                     u4650:
  3514   00244A                     l5359:
  3515                           
  3516                           ;MCAL_Layer/GPIO/hal_gpio.c: 170:     {;MCAL_Layer/GPIO/hal_gpio.c: 171:         ret = (
      +                          Std_ReturnType)0x00;
  3517   00244A  0E00               	movlw	0
  3518   00244C  6E0E               	movwf	gpio_pin_intialize@ret^0,c
  3519                           
  3520                           ;MCAL_Layer/GPIO/hal_gpio.c: 172:     }
  3521   00244E  EF3A  F012         	goto	l5363
  3522   002452                     l5361:
  3523                           
  3524                           ;MCAL_Layer/GPIO/hal_gpio.c: 174:     {;MCAL_Layer/GPIO/hal_gpio.c: 175:         ret = g
      +                          pio_pin_direction_intialize(_pin_config);
  3525   002452  C00C  F004         	movff	gpio_pin_intialize@_pin_config,gpio_pin_direction_intialize@_pin_config
  3526   002456  EC89  F00F         	call	_gpio_pin_direction_intialize	;wreg free
  3527   00245A  6E0E               	movwf	gpio_pin_intialize@ret^0,c
  3528                           
  3529                           ;MCAL_Layer/GPIO/hal_gpio.c: 176:         ret = gpio_pin_write_logic(_pin_config , _pin_
      +                          config->logic);
  3530   00245C  C00C  F004         	movff	gpio_pin_intialize@_pin_config,gpio_pin_write_logic@_pin_config
  3531   002460  500C               	movf	gpio_pin_intialize@_pin_config^0,w,c
  3532   002462  6ED9               	movwf	fsr2l,c
  3533   002464  6ADA               	clrf	fsr2h,c
  3534   002466  0E00               	movlw	0
  3535   002468  BEDF               	btfsc	indf2,7,c
  3536   00246A  0E01               	movlw	1
  3537   00246C  6E05               	movwf	gpio_pin_write_logic@logic^0,c
  3538   00246E  EC12  F010         	call	_gpio_pin_write_logic	;wreg free
  3539   002472  6E0E               	movwf	gpio_pin_intialize@ret^0,c
  3540   002474                     l5363:
  3541                           
  3542                           ;MCAL_Layer/GPIO/hal_gpio.c: 179:     return ret;
  3543   002474  500E               	movf	gpio_pin_intialize@ret^0,w,c
  3544   002476  0012               	return		;funcret
  3545   002478                     __end_of_gpio_pin_intialize:
  3546                           	callstack 0
  3547                           
  3548 ;; *************** function _gpio_pin_write_logic *****************
  3549 ;; Defined at:
  3550 ;;		line 84 in file "MCAL_Layer/GPIO/hal_gpio.c"
  3551 ;; Parameters:    Size  Location     Type
  3552 ;;  _pin_config     1    3[COMRAM] PTR const struct .
  3553 ;;		 -> relay_turn_off@pin_obj(1), relay_turn_on@pin_obj(1), relay_initialize@pin_obj(1), led_turn_off@pin_obj(1), 
  3554 ;;		 -> led_turn_on@pin_obj(1), led_initialize@pin_obj(1), 
  3555 ;;  logic           1    4[COMRAM] enum E3230
  3556 ;; Auto vars:     Size  Location     Type
  3557 ;;  ret             1   10[COMRAM] unsigned char 
  3558 ;; Return value:  Size  Location     Type
  3559 ;;                  1    wreg      unsigned char 
  3560 ;; Registers used:
  3561 ;;		wreg, fsr2l, fsr2h, status,2, status,0, prodl, prodh
  3562 ;; Tracked objects:
  3563 ;;		On entry : 0/0
  3564 ;;		On exit  : 0/0
  3565 ;;		Unchanged: 0/0
  3566 ;; Data sizes:     COMRAM   BANK0   BANK1   BANK2   BANK3   BANK4   BANK5   BANK6   BANK7   BANK8   BANK9  BANK10  BANK1
      +1  BANK12  BANK13  BANK14  BANK15
  3567 ;;      Params:         2       0       0       0       0       0       0       0       0       0       0       0       
      +0       0       0       0       0
  3568 ;;      Locals:         1       0       0       0       0       0       0       0       0       0       0       0       
      +0       0       0       0       0
  3569 ;;      Temps:          5       0       0       0       0       0       0       0       0       0       0       0       
      +0       0       0       0       0
  3570 ;;      Totals:         8       0       0       0       0       0       0       0       0       0       0       0       
      +0       0       0       0       0
  3571 ;;Total ram usage:        8 bytes
  3572 ;; Hardware stack levels used: 1
  3573 ;; Hardware stack levels required when called: 3
  3574 ;; This function calls:
  3575 ;;		Nothing
  3576 ;; This function is called by:
  3577 ;;		_gpio_pin_intialize
  3578 ;;		_seven_segment_write_number
  3579 ;;		_lcd_4bit_send_command
  3580 ;;		_lcd_4bit_send_char_data
  3581 ;;		_lcd_8bit_send_command
  3582 ;;		_lcd_8bit_send_char_data
  3583 ;;		_lcd_send_4bits
  3584 ;;		_lcd_send_4bits_enable_signal
  3585 ;;		_lcd_send_8bits_enable_signal
  3586 ;;		_dc_motor_move_right
  3587 ;;		_dc_motor_move_left
  3588 ;;		_dc_motor_stop
  3589 ;;		_keypad_get_value
  3590 ;;		_led_turn_on
  3591 ;;		_led_turn_off
  3592 ;;		_relay_turn_on
  3593 ;;		_relay_turn_off
  3594 ;; This function uses a non-reentrant model
  3595 ;;
  3596                           
  3597                           	psect	text12
  3598   002024                     __ptext12:
  3599                           	callstack 0
  3600   002024                     _gpio_pin_write_logic:
  3601                           	callstack 25
  3602   002024                     
  3603                           ;MCAL_Layer/GPIO/hal_gpio.c: 85:     Std_ReturnType ret = (Std_ReturnType)0x01;
  3604   002024  0E01               	movlw	1
  3605   002026  6E0B               	movwf	gpio_pin_write_logic@ret^0,c
  3606                           
  3607                           ;MCAL_Layer/GPIO/hal_gpio.c: 86:     if (((void*)0) == _pin_config || _pin_config->pin >
      +                           8 -1)
  3608   002028  5004               	movf	gpio_pin_write_logic@_pin_config^0,w,c
  3609   00202A  B4D8               	btfsc	status,2,c
  3610   00202C  EF1A  F010         	goto	u4451
  3611   002030  EF1C  F010         	goto	u4450
  3612   002034                     u4451:
  3613   002034  EF2C  F010         	goto	l5227
  3614   002038                     u4450:
  3615   002038  5004               	movf	gpio_pin_write_logic@_pin_config^0,w,c
  3616   00203A  6ED9               	movwf	fsr2l,c
  3617   00203C  6ADA               	clrf	fsr2h,c
  3618   00203E  30DF               	rrcf	223,w,c
  3619   002040  32E8               	rrcf	wreg,f,c
  3620   002042  32E8               	rrcf	wreg,f,c
  3621   002044  0B07               	andlw	7
  3622   002046  6E06               	movwf	??_gpio_pin_write_logic^0,c
  3623   002048  0E07               	movlw	7
  3624   00204A  6406               	cpfsgt	??_gpio_pin_write_logic^0,c
  3625   00204C  EF2A  F010         	goto	u4461
  3626   002050  EF2C  F010         	goto	u4460
  3627   002054                     u4461:
  3628   002054  EF83  F010         	goto	l5235
  3629   002058                     u4460:
  3630   002058                     l5227:
  3631                           
  3632                           ;MCAL_Layer/GPIO/hal_gpio.c: 87:     {;MCAL_Layer/GPIO/hal_gpio.c: 88:         ret = (St
      +                          d_ReturnType)0x00;
  3633   002058  0E00               	movlw	0
  3634   00205A  6E0B               	movwf	gpio_pin_write_logic@ret^0,c
  3635                           
  3636                           ;MCAL_Layer/GPIO/hal_gpio.c: 89:     }
  3637   00205C  EF98  F010         	goto	l5237
  3638   002060                     l5229:
  3639                           
  3640                           ;MCAL_Layer/GPIO/hal_gpio.c: 95:                 (*lat_registers[_pin_config->port] &= ~
      +                          ((uint8)1<<_pin_config->pin));
  3641   002060  5004               	movf	gpio_pin_write_logic@_pin_config^0,w,c
  3642   002062  6ED9               	movwf	fsr2l,c
  3643   002064  6ADA               	clrf	fsr2h,c
  3644   002066  30DF               	rrcf	223,w,c
  3645   002068  32E8               	rrcf	wreg,f,c
  3646   00206A  32E8               	rrcf	wreg,f,c
  3647   00206C  0B07               	andlw	7
  3648   00206E  6E06               	movwf	??_gpio_pin_write_logic^0,c
  3649   002070  0E01               	movlw	1
  3650   002072  6E07               	movwf	(??_gpio_pin_write_logic+1)^0,c
  3651   002074  2A06               	incf	??_gpio_pin_write_logic^0,f,c
  3652   002076  EF3F  F010         	goto	u4474
  3653   00207A                     u4475:
  3654   00207A  90D8               	bcf	status,0,c
  3655   00207C  3607               	rlcf	(??_gpio_pin_write_logic+1)^0,f,c
  3656   00207E                     u4474:
  3657   00207E  2E06               	decfsz	??_gpio_pin_write_logic^0,f,c
  3658   002080  EF3D  F010         	goto	u4475
  3659   002084  5007               	movf	(??_gpio_pin_write_logic+1)^0,w,c
  3660   002086  0AFF               	xorlw	255
  3661   002088  6E08               	movwf	(??_gpio_pin_write_logic+2)^0,c
  3662   00208A  5004               	movf	gpio_pin_write_logic@_pin_config^0,w,c
  3663   00208C  6ED9               	movwf	fsr2l,c
  3664   00208E  6ADA               	clrf	fsr2h,c
  3665   002090  50DF               	movf	223,w,c
  3666   002092  0B07               	andlw	7
  3667   002094  0D02               	mullw	2
  3668   002096  50F3               	movf	243,w,c
  3669   002098  0FC0               	addlw	low _lat_registers
  3670   00209A  6ED9               	movwf	fsr2l,c
  3671   00209C  6ADA               	clrf	fsr2h,c
  3672   00209E  CFDE F009          	movff	postinc2,??_gpio_pin_write_logic+3
  3673   0020A2  CFDD F00A          	movff	postdec2,??_gpio_pin_write_logic+4
  3674   0020A6  C009  FFD9         	movff	??_gpio_pin_write_logic+3,fsr2l
  3675   0020AA  C00A  FFDA         	movff	??_gpio_pin_write_logic+4,fsr2h
  3676   0020AE  5008               	movf	(??_gpio_pin_write_logic+2)^0,w,c
  3677   0020B0  16DF               	andwf	indf2,f,c
  3678                           
  3679                           ;MCAL_Layer/GPIO/hal_gpio.c: 96:                 break;
  3680   0020B2  EF98  F010         	goto	l5237
  3681   0020B6                     l5231:
  3682                           
  3683                           ;MCAL_Layer/GPIO/hal_gpio.c: 98:                 (*lat_registers[_pin_config->port] |= (
      +                          (uint8)1<<_pin_config->pin));
  3684   0020B6  5004               	movf	gpio_pin_write_logic@_pin_config^0,w,c
  3685   0020B8  6ED9               	movwf	fsr2l,c
  3686   0020BA  6ADA               	clrf	fsr2h,c
  3687   0020BC  30DF               	rrcf	223,w,c
  3688   0020BE  32E8               	rrcf	wreg,f,c
  3689   0020C0  32E8               	rrcf	wreg,f,c
  3690   0020C2  0B07               	andlw	7
  3691   0020C4  6E06               	movwf	??_gpio_pin_write_logic^0,c
  3692   0020C6  0E01               	movlw	1
  3693   0020C8  6E07               	movwf	(??_gpio_pin_write_logic+1)^0,c
  3694   0020CA  2A06               	incf	??_gpio_pin_write_logic^0,f,c
  3695   0020CC  EF6A  F010         	goto	u4484
  3696   0020D0                     u4485:
  3697   0020D0  90D8               	bcf	status,0,c
  3698   0020D2  3607               	rlcf	(??_gpio_pin_write_logic+1)^0,f,c
  3699   0020D4                     u4484:
  3700   0020D4  2E06               	decfsz	??_gpio_pin_write_logic^0,f,c
  3701   0020D6  EF68  F010         	goto	u4485
  3702   0020DA  5004               	movf	gpio_pin_write_logic@_pin_config^0,w,c
  3703   0020DC  6ED9               	movwf	fsr2l,c
  3704   0020DE  6ADA               	clrf	fsr2h,c
  3705   0020E0  50DF               	movf	223,w,c
  3706   0020E2  0B07               	andlw	7
  3707   0020E4  0D02               	mullw	2
  3708   0020E6  50F3               	movf	243,w,c
  3709   0020E8  0FC0               	addlw	low _lat_registers
  3710   0020EA  6ED9               	movwf	fsr2l,c
  3711   0020EC  6ADA               	clrf	fsr2h,c
  3712   0020EE  CFDE F008          	movff	postinc2,??_gpio_pin_write_logic+2
  3713   0020F2  CFDD F009          	movff	postdec2,??_gpio_pin_write_logic+3
  3714   0020F6  C008  FFD9         	movff	??_gpio_pin_write_logic+2,fsr2l
  3715   0020FA  C009  FFDA         	movff	??_gpio_pin_write_logic+3,fsr2h
  3716   0020FE  5007               	movf	(??_gpio_pin_write_logic+1)^0,w,c
  3717   002100  12DF               	iorwf	indf2,f,c
  3718                           
  3719                           ;MCAL_Layer/GPIO/hal_gpio.c: 99:                 break;
  3720   002102  EF98  F010         	goto	l5237
  3721   002106                     l5235:
  3722   002106  5005               	movf	gpio_pin_write_logic@logic^0,w,c
  3723   002108  6E06               	movwf	??_gpio_pin_write_logic^0,c
  3724   00210A  6A07               	clrf	(??_gpio_pin_write_logic+1)^0,c
  3725                           
  3726                           ; Switch on 2 bytes has been partitioned into a top level switch of size 1, and 1 sub-sw
      +                          itches
  3727                           ; Switch size 1, requested type "simple"
  3728                           ; Number of cases is 1, Range of values is 0 to 0
  3729                           ; switch strategies available:
  3730                           ; Name         Instructions Cycles
  3731                           ; simple_byte            4     3 (average)
  3732                           ;	Chosen strategy is simple_byte
  3733   00210C  5007               	movf	(??_gpio_pin_write_logic+1)^0,w,c
  3734   00210E  0A00               	xorlw	0	; case 0
  3735   002110  B4D8               	btfsc	status,2,c
  3736   002112  EF8D  F010         	goto	l7765
  3737   002116  EF2C  F010         	goto	l5227
  3738   00211A                     l7765:
  3739                           
  3740                           ; Switch size 1, requested type "simple"
  3741                           ; Number of cases is 2, Range of values is 0 to 1
  3742                           ; switch strategies available:
  3743                           ; Name         Instructions Cycles
  3744                           ; simple_byte            7     4 (average)
  3745                           ;	Chosen strategy is simple_byte
  3746   00211A  5006               	movf	??_gpio_pin_write_logic^0,w,c
  3747   00211C  0A00               	xorlw	0	; case 0
  3748   00211E  B4D8               	btfsc	status,2,c
  3749   002120  EF30  F010         	goto	l5229
  3750   002124  0A01               	xorlw	1	; case 1
  3751   002126  B4D8               	btfsc	status,2,c
  3752   002128  EF5B  F010         	goto	l5231
  3753   00212C  EF2C  F010         	goto	l5227
  3754   002130                     l5237:
  3755                           
  3756                           ;MCAL_Layer/GPIO/hal_gpio.c: 105:     return ret;
  3757   002130  500B               	movf	gpio_pin_write_logic@ret^0,w,c
  3758   002132  0012               	return		;funcret
  3759   002134                     __end_of_gpio_pin_write_logic:
  3760                           	callstack 0
  3761                           
  3762 ;; *************** function _gpio_pin_direction_intialize *****************
  3763 ;; Defined at:
  3764 ;;		line 27 in file "MCAL_Layer/GPIO/hal_gpio.c"
  3765 ;; Parameters:    Size  Location     Type
  3766 ;;  _pin_config     1    3[COMRAM] PTR const struct .
  3767 ;;		 -> relay_initialize@pin_obj(1), led_initialize@pin_obj(1), 
  3768 ;; Auto vars:     Size  Location     Type
  3769 ;;  ret             1    9[COMRAM] unsigned char 
  3770 ;; Return value:  Size  Location     Type
  3771 ;;                  1    wreg      unsigned char 
  3772 ;; Registers used:
  3773 ;;		wreg, fsr2l, fsr2h, status,2, status,0, prodl, prodh
  3774 ;; Tracked objects:
  3775 ;;		On entry : 0/0
  3776 ;;		On exit  : 0/0
  3777 ;;		Unchanged: 0/0
  3778 ;; Data sizes:     COMRAM   BANK0   BANK1   BANK2   BANK3   BANK4   BANK5   BANK6   BANK7   BANK8   BANK9  BANK10  BANK1
      +1  BANK12  BANK13  BANK14  BANK15
  3779 ;;      Params:         1       0       0       0       0       0       0       0       0       0       0       0       
      +0       0       0       0       0
  3780 ;;      Locals:         1       0       0       0       0       0       0       0       0       0       0       0       
      +0       0       0       0       0
  3781 ;;      Temps:          5       0       0       0       0       0       0       0       0       0       0       0       
      +0       0       0       0       0
  3782 ;;      Totals:         7       0       0       0       0       0       0       0       0       0       0       0       
      +0       0       0       0       0
  3783 ;;Total ram usage:        7 bytes
  3784 ;; Hardware stack levels used: 1
  3785 ;; Hardware stack levels required when called: 3
  3786 ;; This function calls:
  3787 ;;		Nothing
  3788 ;; This function is called by:
  3789 ;;		_gpio_pin_intialize
  3790 ;;		_button_initialize
  3791 ;;		_keypad_initialize
  3792 ;;		_Interrupt_RBx_Init
  3793 ;;		_Interrupt_INTx_Pin_Init
  3794 ;; This function uses a non-reentrant model
  3795 ;;
  3796                           
  3797                           	psect	text13
  3798   001F12                     __ptext13:
  3799                           	callstack 0
  3800   001F12                     _gpio_pin_direction_intialize:
  3801                           	callstack 25
  3802   001F12                     
  3803                           ;MCAL_Layer/GPIO/hal_gpio.c: 28:     Std_ReturnType ret = (Std_ReturnType)0x01;
  3804   001F12  0E01               	movlw	1
  3805   001F14  6E0A               	movwf	gpio_pin_direction_intialize@ret^0,c
  3806                           
  3807                           ;MCAL_Layer/GPIO/hal_gpio.c: 29:     if (((void*)0) == _pin_config || _pin_config->pin >
      +                           8 -1)
  3808   001F16  5004               	movf	gpio_pin_direction_intialize@_pin_config^0,w,c
  3809   001F18  B4D8               	btfsc	status,2,c
  3810   001F1A  EF91  F00F         	goto	u4491
  3811   001F1E  EF93  F00F         	goto	u4490
  3812   001F22                     u4491:
  3813   001F22  EFA3  F00F         	goto	l5249
  3814   001F26                     u4490:
  3815   001F26  5004               	movf	gpio_pin_direction_intialize@_pin_config^0,w,c
  3816   001F28  6ED9               	movwf	fsr2l,c
  3817   001F2A  6ADA               	clrf	fsr2h,c
  3818   001F2C  30DF               	rrcf	223,w,c
  3819   001F2E  32E8               	rrcf	wreg,f,c
  3820   001F30  32E8               	rrcf	wreg,f,c
  3821   001F32  0B07               	andlw	7
  3822   001F34  6E05               	movwf	??_gpio_pin_direction_intialize^0,c
  3823   001F36  0E07               	movlw	7
  3824   001F38  6405               	cpfsgt	??_gpio_pin_direction_intialize^0,c
  3825   001F3A  EFA1  F00F         	goto	u4501
  3826   001F3E  EFA3  F00F         	goto	u4500
  3827   001F42                     u4501:
  3828   001F42  EFFA  F00F         	goto	l5257
  3829   001F46                     u4500:
  3830   001F46                     l5249:
  3831                           
  3832                           ;MCAL_Layer/GPIO/hal_gpio.c: 30:     {;MCAL_Layer/GPIO/hal_gpio.c: 31:         ret = (St
      +                          d_ReturnType)0x00;
  3833   001F46  0E00               	movlw	0
  3834   001F48  6E0A               	movwf	gpio_pin_direction_intialize@ret^0,c
  3835                           
  3836                           ;MCAL_Layer/GPIO/hal_gpio.c: 32:     }
  3837   001F4A  EF10  F010         	goto	l5259
  3838   001F4E                     l5251:
  3839                           
  3840                           ;MCAL_Layer/GPIO/hal_gpio.c: 38:                 (*tris_registers[_pin_config->port] &= 
      +                          ~((uint8)1<<_pin_config->pin));
  3841   001F4E  5004               	movf	gpio_pin_direction_intialize@_pin_config^0,w,c
  3842   001F50  6ED9               	movwf	fsr2l,c
  3843   001F52  6ADA               	clrf	fsr2h,c
  3844   001F54  30DF               	rrcf	223,w,c
  3845   001F56  32E8               	rrcf	wreg,f,c
  3846   001F58  32E8               	rrcf	wreg,f,c
  3847   001F5A  0B07               	andlw	7
  3848   001F5C  6E05               	movwf	??_gpio_pin_direction_intialize^0,c
  3849   001F5E  0E01               	movlw	1
  3850   001F60  6E06               	movwf	(??_gpio_pin_direction_intialize+1)^0,c
  3851   001F62  2A05               	incf	??_gpio_pin_direction_intialize^0,f,c
  3852   001F64  EFB6  F00F         	goto	u4514
  3853   001F68                     u4515:
  3854   001F68  90D8               	bcf	status,0,c
  3855   001F6A  3606               	rlcf	(??_gpio_pin_direction_intialize+1)^0,f,c
  3856   001F6C                     u4514:
  3857   001F6C  2E05               	decfsz	??_gpio_pin_direction_intialize^0,f,c
  3858   001F6E  EFB4  F00F         	goto	u4515
  3859   001F72  5006               	movf	(??_gpio_pin_direction_intialize+1)^0,w,c
  3860   001F74  0AFF               	xorlw	255
  3861   001F76  6E07               	movwf	(??_gpio_pin_direction_intialize+2)^0,c
  3862   001F78  5004               	movf	gpio_pin_direction_intialize@_pin_config^0,w,c
  3863   001F7A  6ED9               	movwf	fsr2l,c
  3864   001F7C  6ADA               	clrf	fsr2h,c
  3865   001F7E  50DF               	movf	223,w,c
  3866   001F80  0B07               	andlw	7
  3867   001F82  0D02               	mullw	2
  3868   001F84  50F3               	movf	243,w,c
  3869   001F86  0FCA               	addlw	low _tris_registers
  3870   001F88  6ED9               	movwf	fsr2l,c
  3871   001F8A  6ADA               	clrf	fsr2h,c
  3872   001F8C  CFDE F008          	movff	postinc2,??_gpio_pin_direction_intialize+3
  3873   001F90  CFDD F009          	movff	postdec2,??_gpio_pin_direction_intialize+4
  3874   001F94  C008  FFD9         	movff	??_gpio_pin_direction_intialize+3,fsr2l
  3875   001F98  C009  FFDA         	movff	??_gpio_pin_direction_intialize+4,fsr2h
  3876   001F9C  5007               	movf	(??_gpio_pin_direction_intialize+2)^0,w,c
  3877   001F9E  16DF               	andwf	indf2,f,c
  3878                           
  3879                           ;MCAL_Layer/GPIO/hal_gpio.c: 39:                 break;
  3880   001FA0  EF10  F010         	goto	l5259
  3881   001FA4                     l5253:
  3882                           
  3883                           ;MCAL_Layer/GPIO/hal_gpio.c: 41:                 (*tris_registers[_pin_config->port] |= 
      +                          ((uint8)1<<_pin_config->pin));
  3884   001FA4  5004               	movf	gpio_pin_direction_intialize@_pin_config^0,w,c
  3885   001FA6  6ED9               	movwf	fsr2l,c
  3886   001FA8  6ADA               	clrf	fsr2h,c
  3887   001FAA  30DF               	rrcf	223,w,c
  3888   001FAC  32E8               	rrcf	wreg,f,c
  3889   001FAE  32E8               	rrcf	wreg,f,c
  3890   001FB0  0B07               	andlw	7
  3891   001FB2  6E05               	movwf	??_gpio_pin_direction_intialize^0,c
  3892   001FB4  0E01               	movlw	1
  3893   001FB6  6E06               	movwf	(??_gpio_pin_direction_intialize+1)^0,c
  3894   001FB8  2A05               	incf	??_gpio_pin_direction_intialize^0,f,c
  3895   001FBA  EFE1  F00F         	goto	u4524
  3896   001FBE                     u4525:
  3897   001FBE  90D8               	bcf	status,0,c
  3898   001FC0  3606               	rlcf	(??_gpio_pin_direction_intialize+1)^0,f,c
  3899   001FC2                     u4524:
  3900   001FC2  2E05               	decfsz	??_gpio_pin_direction_intialize^0,f,c
  3901   001FC4  EFDF  F00F         	goto	u4525
  3902   001FC8  5004               	movf	gpio_pin_direction_intialize@_pin_config^0,w,c
  3903   001FCA  6ED9               	movwf	fsr2l,c
  3904   001FCC  6ADA               	clrf	fsr2h,c
  3905   001FCE  50DF               	movf	223,w,c
  3906   001FD0  0B07               	andlw	7
  3907   001FD2  0D02               	mullw	2
  3908   001FD4  50F3               	movf	243,w,c
  3909   001FD6  0FCA               	addlw	low _tris_registers
  3910   001FD8  6ED9               	movwf	fsr2l,c
  3911   001FDA  6ADA               	clrf	fsr2h,c
  3912   001FDC  CFDE F007          	movff	postinc2,??_gpio_pin_direction_intialize+2
  3913   001FE0  CFDD F008          	movff	postdec2,??_gpio_pin_direction_intialize+3
  3914   001FE4  C007  FFD9         	movff	??_gpio_pin_direction_intialize+2,fsr2l
  3915   001FE8  C008  FFDA         	movff	??_gpio_pin_direction_intialize+3,fsr2h
  3916   001FEC  5006               	movf	(??_gpio_pin_direction_intialize+1)^0,w,c
  3917   001FEE  12DF               	iorwf	indf2,f,c
  3918                           
  3919                           ;MCAL_Layer/GPIO/hal_gpio.c: 42:                 break;
  3920   001FF0  EF10  F010         	goto	l5259
  3921   001FF4                     l5257:
  3922   001FF4  5004               	movf	gpio_pin_direction_intialize@_pin_config^0,w,c
  3923   001FF6  6ED9               	movwf	fsr2l,c
  3924   001FF8  6ADA               	clrf	fsr2h,c
  3925   001FFA  BCDF               	btfsc	indf2,6,c
  3926   001FFC  EF02  F010         	goto	u4531
  3927   002000  EF05  F010         	goto	u4530
  3928   002004                     u4531:
  3929   002004  0E01               	movlw	1
  3930   002006  EF06  F010         	goto	u4536
  3931   00200A                     u4530:
  3932   00200A  0E00               	movlw	0
  3933   00200C                     u4536:
  3934                           
  3935                           ; Switch size 1, requested type "simple"
  3936                           ; Number of cases is 2, Range of values is 0 to 1
  3937                           ; switch strategies available:
  3938                           ; Name         Instructions Cycles
  3939                           ; simple_byte            7     4 (average)
  3940                           ;	Chosen strategy is simple_byte
  3941   00200C  0A00               	xorlw	0	; case 0
  3942   00200E  B4D8               	btfsc	status,2,c
  3943   002010  EFA7  F00F         	goto	l5251
  3944   002014  0A01               	xorlw	1	; case 1
  3945   002016  B4D8               	btfsc	status,2,c
  3946   002018  EFD2  F00F         	goto	l5253
  3947   00201C  EFA3  F00F         	goto	l5249
  3948   002020                     l5259:
  3949                           
  3950                           ;MCAL_Layer/GPIO/hal_gpio.c: 46:     return ret;
  3951   002020  500A               	movf	gpio_pin_direction_intialize@ret^0,w,c
  3952   002022  0012               	return		;funcret
  3953   002024                     __end_of_gpio_pin_direction_intialize:
  3954                           	callstack 0
  3955                           
  3956 ;; *************** function _EUSART_ASYN_WriteStringBlocking *****************
  3957 ;; Defined at:
  3958 ;;		line 105 in file "MCAL_Layer/USART/hal_usart.c"
  3959 ;; Parameters:    Size  Location     Type
  3960 ;;  _data           1    4[COMRAM] PTR unsigned char 
  3961 ;;		 -> STR_4(7), 
  3962 ;;  str_len         2    5[COMRAM] unsigned short 
  3963 ;; Auto vars:     Size  Location     Type
  3964 ;;  char_counter    2    9[COMRAM] unsigned short 
  3965 ;;  ret             1    8[COMRAM] unsigned char 
  3966 ;; Return value:  Size  Location     Type
  3967 ;;                  1    wreg      unsigned char 
  3968 ;; Registers used:
  3969 ;;		wreg, status,2, status,0, tblptrl, tblptrh, tblptru, cstack
  3970 ;; Tracked objects:
  3971 ;;		On entry : 0/0
  3972 ;;		On exit  : 0/0
  3973 ;;		Unchanged: 0/0
  3974 ;; Data sizes:     COMRAM   BANK0   BANK1   BANK2   BANK3   BANK4   BANK5   BANK6   BANK7   BANK8   BANK9  BANK10  BANK1
      +1  BANK12  BANK13  BANK14  BANK15
  3975 ;;      Params:         3       0       0       0       0       0       0       0       0       0       0       0       
      +0       0       0       0       0
  3976 ;;      Locals:         3       0       0       0       0       0       0       0       0       0       0       0       
      +0       0       0       0       0
  3977 ;;      Temps:          1       0       0       0       0       0       0       0       0       0       0       0       
      +0       0       0       0       0
  3978 ;;      Totals:         7       0       0       0       0       0       0       0       0       0       0       0       
      +0       0       0       0       0
  3979 ;;Total ram usage:        7 bytes
  3980 ;; Hardware stack levels used: 1
  3981 ;; Hardware stack levels required when called: 4
  3982 ;; This function calls:
  3983 ;;		_EUSART_ASYN_WriteByteBlocking
  3984 ;; This function is called by:
  3985 ;;		_main
  3986 ;; This function uses a non-reentrant model
  3987 ;;
  3988                           
  3989                           	psect	text14
  3990   0024D0                     __ptext14:
  3991                           	callstack 0
  3992   0024D0                     _EUSART_ASYN_WriteStringBlocking:
  3993                           	callstack 26
  3994   0024D0                     
  3995                           ;MCAL_Layer/USART/hal_usart.c: 106:     Std_ReturnType ret = (Std_ReturnType)0x01;
  3996   0024D0  0E01               	movlw	1
  3997   0024D2  6E09               	movwf	EUSART_ASYN_WriteStringBlocking@ret^0,c
  3998                           
  3999                           ;MCAL_Layer/USART/hal_usart.c: 107:     uint16 char_counter = 0X00;
  4000   0024D4  0E00               	movlw	0
  4001   0024D6  6E0B               	movwf	(EUSART_ASYN_WriteStringBlocking@char_counter+1)^0,c
  4002   0024D8  0E00               	movlw	0
  4003   0024DA  6E0A               	movwf	EUSART_ASYN_WriteStringBlocking@char_counter^0,c
  4004                           
  4005                           ;MCAL_Layer/USART/hal_usart.c: 108:     for (char_counter = 0X00 ; char_counter < str_le
      +                          n ; char_counter++){
  4006   0024DC  0E00               	movlw	0
  4007   0024DE  6E0B               	movwf	(EUSART_ASYN_WriteStringBlocking@char_counter+1)^0,c
  4008   0024E0  0E00               	movlw	0
  4009   0024E2  6E0A               	movwf	EUSART_ASYN_WriteStringBlocking@char_counter^0,c
  4010   0024E4  EF83  F012         	goto	l5725
  4011   0024E8                     l5721:
  4012                           
  4013                           ;MCAL_Layer/USART/hal_usart.c: 109:         ret = EUSART_ASYN_WriteByteBlocking(_data[ch
      +                          ar_counter]);
  4014   0024E8  5005               	movf	EUSART_ASYN_WriteStringBlocking@_data^0,w,c
  4015   0024EA  240A               	addwf	EUSART_ASYN_WriteStringBlocking@char_counter^0,w,c
  4016   0024EC  6E08               	movwf	??_EUSART_ASYN_WriteStringBlocking^0,c
  4017   0024EE  C008  FFF6         	movff	??_EUSART_ASYN_WriteStringBlocking,tblptrl
  4018   0024F2                     	if	1	;There is more than 1 active tblptr byte
  4019   0024F2  0E10               	movlw	high __smallconst
  4020   0024F4  6EF7               	movwf	tblptrh,c
  4021   0024F6                     	endif
  4022   0024F6                     	if	1	;Program memory is < 0x10000, tblptru is always zero
  4023   0024F6  6AF8               	clrf	tblptru,c
  4024   0024F8                     	endif
  4025   0024F8                     	if	0	;tblptru may be non-zero
  4026   0024F8                     	endif
  4027   0024F8  0008               	tblrd		*
  4028   0024FA  50F5               	movf	tablat,w,c
  4029   0024FC  EC44  F013         	call	_EUSART_ASYN_WriteByteBlocking
  4030   002500  6E09               	movwf	EUSART_ASYN_WriteStringBlocking@ret^0,c
  4031   002502                     
  4032                           ;MCAL_Layer/USART/hal_usart.c: 110:     }
  4033   002502  4A0A               	infsnz	EUSART_ASYN_WriteStringBlocking@char_counter^0,f,c
  4034   002504  2A0B               	incf	(EUSART_ASYN_WriteStringBlocking@char_counter+1)^0,f,c
  4035   002506                     l5725:
  4036   002506  5006               	movf	EUSART_ASYN_WriteStringBlocking@str_len^0,w,c
  4037   002508  5C0A               	subwf	EUSART_ASYN_WriteStringBlocking@char_counter^0,w,c
  4038   00250A  5007               	movf	(EUSART_ASYN_WriteStringBlocking@str_len+1)^0,w,c
  4039   00250C  580B               	subwfb	(EUSART_ASYN_WriteStringBlocking@char_counter+1)^0,w,c
  4040   00250E  A0D8               	btfss	status,0,c
  4041   002510  EF8C  F012         	goto	u4931
  4042   002514  EF8E  F012         	goto	u4930
  4043   002518                     u4931:
  4044   002518  EF74  F012         	goto	l5721
  4045   00251C                     u4930:
  4046   00251C                     
  4047                           ;MCAL_Layer/USART/hal_usart.c: 112:     return ret;
  4048   00251C  5009               	movf	EUSART_ASYN_WriteStringBlocking@ret^0,w,c
  4049   00251E  0012               	return		;funcret
  4050   002520                     __end_of_EUSART_ASYN_WriteStringBlocking:
  4051                           	callstack 0
  4052                           
  4053 ;; *************** function _EUSART_ASYN_WriteByteBlocking *****************
  4054 ;; Defined at:
  4055 ;;		line 62 in file "MCAL_Layer/USART/hal_usart.c"
  4056 ;; Parameters:    Size  Location     Type
  4057 ;;  _data           1    wreg     unsigned char 
  4058 ;; Auto vars:     Size  Location     Type
  4059 ;;  _data           1    3[COMRAM] unsigned char 
  4060 ;;  ret             1    0        unsigned char 
  4061 ;; Return value:  Size  Location     Type
  4062 ;;                  1    wreg      unsigned char 
  4063 ;; Registers used:
  4064 ;;		wreg, status,2
  4065 ;; Tracked objects:
  4066 ;;		On entry : 0/0
  4067 ;;		On exit  : 0/0
  4068 ;;		Unchanged: 0/0
  4069 ;; Data sizes:     COMRAM   BANK0   BANK1   BANK2   BANK3   BANK4   BANK5   BANK6   BANK7   BANK8   BANK9  BANK10  BANK1
      +1  BANK12  BANK13  BANK14  BANK15
  4070 ;;      Params:         0       0       0       0       0       0       0       0       0       0       0       0       
      +0       0       0       0       0
  4071 ;;      Locals:         1       0       0       0       0       0       0       0       0       0       0       0       
      +0       0       0       0       0
  4072 ;;      Temps:          0       0       0       0       0       0       0       0       0       0       0       0       
      +0       0       0       0       0
  4073 ;;      Totals:         1       0       0       0       0       0       0       0       0       0       0       0       
      +0       0       0       0       0
  4074 ;;Total ram usage:        1 bytes
  4075 ;; Hardware stack levels used: 1
  4076 ;; Hardware stack levels required when called: 3
  4077 ;; This function calls:
  4078 ;;		Nothing
  4079 ;; This function is called by:
  4080 ;;		_EUSART_ASYN_WriteStringBlocking
  4081 ;; This function uses a non-reentrant model
  4082 ;;
  4083                           
  4084                           	psect	text15
  4085   002688                     __ptext15:
  4086                           	callstack 0
  4087   002688                     _EUSART_ASYN_WriteByteBlocking:
  4088                           	callstack 26
  4089                           
  4090                           ;incstack = 0
  4091                           ;EUSART_ASYN_WriteByteBlocking@_data stored from wreg
  4092   002688  6E04               	movwf	EUSART_ASYN_WriteByteBlocking@_data^0,c
  4093   00268A                     l1314:
  4094   00268A  A2AC               	btfss	172,1,c	;volatile
  4095   00268C  EF4A  F013         	goto	u4741
  4096   002690  EF4C  F013         	goto	u4740
  4097   002694                     u4741:
  4098   002694  EF45  F013         	goto	l1314
  4099   002698                     u4740:
  4100   002698                     
  4101                           ;MCAL_Layer/USART/hal_usart.c: 66:     (PIE1bits.TXIE = 1);
  4102   002698  889D               	bsf	157,4,c	;volatile
  4103   00269A                     
  4104                           ;MCAL_Layer/USART/hal_usart.c: 68:     TXREG = _data;
  4105   00269A  C004  FFAD         	movff	EUSART_ASYN_WriteByteBlocking@_data,4013	;volatile
  4106   00269E  0012               	return		;funcret
  4107   0026A0                     __end_of_EUSART_ASYN_WriteByteBlocking:
  4108                           	callstack 0
  4109                           
  4110 ;; *************** function _InterruptManager *****************
  4111 ;; Defined at:
  4112 ;;		line 35 in file "MCAL_Layer/interrupt/mcal_interrupt_manager.c"
  4113 ;; Parameters:    Size  Location     Type
  4114 ;;		None
  4115 ;; Auto vars:     Size  Location     Type
  4116 ;;		None
  4117 ;; Return value:  Size  Location     Type
  4118 ;;                  1    wreg      void 
  4119 ;; Registers used:
  4120 ;;		wreg, status,2, status,0, pcl, pclath, pclatu, tosl, cstack
  4121 ;; Tracked objects:
  4122 ;;		On entry : 0/0
  4123 ;;		On exit  : 0/0
  4124 ;;		Unchanged: 0/0
  4125 ;; Data sizes:     COMRAM   BANK0   BANK1   BANK2   BANK3   BANK4   BANK5   BANK6   BANK7   BANK8   BANK9  BANK10  BANK1
      +1  BANK12  BANK13  BANK14  BANK15
  4126 ;;      Params:         0       0       0       0       0       0       0       0       0       0       0       0       
      +0       0       0       0       0
  4127 ;;      Locals:         0       0       0       0       0       0       0       0       0       0       0       0       
      +0       0       0       0       0
  4128 ;;      Temps:          2       0       0       0       0       0       0       0       0       0       0       0       
      +0       0       0       0       0
  4129 ;;      Totals:         2       0       0       0       0       0       0       0       0       0       0       0       
      +0       0       0       0       0
  4130 ;;Total ram usage:        2 bytes
  4131 ;; Hardware stack levels used: 1
  4132 ;; Hardware stack levels required when called: 2
  4133 ;; This function calls:
  4134 ;;		_ADC_ISR
  4135 ;;		_CCP1_ISR
  4136 ;;		_CCP2_ISR
  4137 ;;		_EUSART_RX_ISR
  4138 ;;		_EUSART_TX_ISR
  4139 ;;		_INT0_ISR
  4140 ;;		_INT1_ISR
  4141 ;;		_INT2_ISR
  4142 ;;		_RB4_ISR
  4143 ;;		_RB5_ISR
  4144 ;;		_RB6_ISR
  4145 ;;		_RB7_ISR
  4146 ;;		_TMR0_ISR
  4147 ;;		_TMR1_ISR
  4148 ;;		_TMR2_ISR
  4149 ;;		_TMR3_ISR
  4150 ;; This function is called by:
  4151 ;;		Interrupt level 2
  4152 ;; This function uses a non-reentrant model
  4153 ;;
  4154                           
  4155                           	psect	intcode
  4156   000008                     __pintcode:
  4157                           	callstack 0
  4158   000008                     _InterruptManager:
  4159                           	callstack 24
  4160                           
  4161                           ;incstack = 0
  4162   000008  824D               	bsf	int$flags,1,c	;set compiler interrupt flag (level 2)
  4163   00000A  CFFA F002          	movff	pclath,??_InterruptManager
  4164   00000E  CFFB F003          	movff	pclatu,??_InterruptManager+1
  4165   000012                     
  4166                           ;MCAL_Layer/interrupt/mcal_interrupt_manager.c: 38:     if ((INTCONbits.INT0IE == 1) && 
      +                          (INTCONbits.INT0IF == 1))
  4167   000012  A8F2               	btfss	242,4,c	;volatile
  4168   000014  EF0E  F000         	goto	i2u598_41
  4169   000018  EF10  F000         	goto	i2u598_40
  4170   00001C                     i2u598_41:
  4171   00001C  EF19  F000         	goto	i2l801
  4172   000020                     i2u598_40:
  4173   000020  A2F2               	btfss	242,1,c	;volatile
  4174   000022  EF15  F000         	goto	i2u599_41
  4175   000026  EF17  F000         	goto	i2u599_40
  4176   00002A                     i2u599_41:
  4177   00002A  EF19  F000         	goto	i2l801
  4178   00002E                     i2u599_40:
  4179   00002E                     
  4180                           ;MCAL_Layer/interrupt/mcal_interrupt_manager.c: 39:     {;MCAL_Layer/interrupt/mcal_inte
      +                          rrupt_manager.c: 40:         INT0_ISR();
  4181   00002E  EC77  F013         	call	_INT0_ISR	;wreg free
  4182   000032                     i2l801:
  4183                           
  4184                           ;MCAL_Layer/interrupt/mcal_interrupt_manager.c: 43:     if ((INTCON3bits.INT1IE == 1) &&
      +                           (INTCON3bits.INT1IF == 1))
  4185   000032  A6F0               	btfss	240,3,c	;volatile
  4186   000034  EF1E  F000         	goto	i2u600_41
  4187   000038  EF20  F000         	goto	i2u600_40
  4188   00003C                     i2u600_41:
  4189   00003C  EF29  F000         	goto	i2l803
  4190   000040                     i2u600_40:
  4191   000040  A0F0               	btfss	240,0,c	;volatile
  4192   000042  EF25  F000         	goto	i2u601_41
  4193   000046  EF27  F000         	goto	i2u601_40
  4194   00004A                     i2u601_41:
  4195   00004A  EF29  F000         	goto	i2l803
  4196   00004E                     i2u601_40:
  4197   00004E                     
  4198                           ;MCAL_Layer/interrupt/mcal_interrupt_manager.c: 44:     {;MCAL_Layer/interrupt/mcal_inte
      +                          rrupt_manager.c: 45:         INT1_ISR();
  4199   00004E  EC75  F013         	call	_INT1_ISR	;wreg free
  4200   000052                     i2l803:
  4201                           
  4202                           ;MCAL_Layer/interrupt/mcal_interrupt_manager.c: 48:     if ((INTCON3bits.INT2IE == 1) &&
      +                           (INTCON3bits.INT2IF == 1))
  4203   000052  A8F0               	btfss	240,4,c	;volatile
  4204   000054  EF2E  F000         	goto	i2u602_41
  4205   000058  EF30  F000         	goto	i2u602_40
  4206   00005C                     i2u602_41:
  4207   00005C  EF39  F000         	goto	i2l805
  4208   000060                     i2u602_40:
  4209   000060  A2F0               	btfss	240,1,c	;volatile
  4210   000062  EF35  F000         	goto	i2u603_41
  4211   000066  EF37  F000         	goto	i2u603_40
  4212   00006A                     i2u603_41:
  4213   00006A  EF39  F000         	goto	i2l805
  4214   00006E                     i2u603_40:
  4215   00006E                     
  4216                           ;MCAL_Layer/interrupt/mcal_interrupt_manager.c: 49:     {;MCAL_Layer/interrupt/mcal_inte
      +                          rrupt_manager.c: 50:         INT2_ISR();
  4217   00006E  EC73  F013         	call	_INT2_ISR	;wreg free
  4218   000072                     i2l805:
  4219                           
  4220                           ;MCAL_Layer/interrupt/mcal_interrupt_manager.c: 56:     if ((INTCONbits.RBIE == 1) && (I
      +                          NTCONbits.RBIF == 1) &&
  4221   000072  A6F2               	btfss	242,3,c	;volatile
  4222   000074  EF3E  F000         	goto	i2u604_41
  4223   000078  EF40  F000         	goto	i2u604_40
  4224   00007C                     i2u604_41:
  4225   00007C  EF5B  F000         	goto	i2l807
  4226   000080                     i2u604_40:
  4227   000080  A0F2               	btfss	242,0,c	;volatile
  4228   000082  EF45  F000         	goto	i2u605_41
  4229   000086  EF47  F000         	goto	i2u605_40
  4230   00008A                     i2u605_41:
  4231   00008A  EF5B  F000         	goto	i2l807
  4232   00008E                     i2u605_40:
  4233   00008E  A881               	btfss	129,4,c	;volatile
  4234   000090  EF4C  F000         	goto	i2u606_41
  4235   000094  EF4E  F000         	goto	i2u606_40
  4236   000098                     i2u606_41:
  4237   000098  EF5B  F000         	goto	i2l807
  4238   00009C                     i2u606_40:
  4239   00009C  044B               	decf	_RB4_Flag^0,w,c	;volatile
  4240   00009E  A4D8               	btfss	status,2,c
  4241   0000A0  EF54  F000         	goto	i2u607_41
  4242   0000A4  EF56  F000         	goto	i2u607_40
  4243   0000A8                     i2u607_41:
  4244   0000A8  EF5B  F000         	goto	i2l807
  4245   0000AC                     i2u607_40:
  4246   0000AC                     
  4247                           ;MCAL_Layer/interrupt/mcal_interrupt_manager.c: 58:     {;MCAL_Layer/interrupt/mcal_inte
      +                          rrupt_manager.c: 59:         RB4_Flag = 0;
  4248   0000AC  0E00               	movlw	0
  4249   0000AE  6E4B               	movwf	_RB4_Flag^0,c	;volatile
  4250   0000B0                     
  4251                           ;MCAL_Layer/interrupt/mcal_interrupt_manager.c: 60:         RB4_ISR(1);
  4252   0000B0  0E01               	movlw	1
  4253   0000B2  EC37  F013         	call	_RB4_ISR
  4254   0000B6                     i2l807:
  4255                           
  4256                           ;MCAL_Layer/interrupt/mcal_interrupt_manager.c: 63:     if ((INTCONbits.RBIE == 1) && (I
      +                          NTCONbits.RBIF == 1) &&
  4257   0000B6  A6F2               	btfss	242,3,c	;volatile
  4258   0000B8  EF60  F000         	goto	i2u608_41
  4259   0000BC  EF62  F000         	goto	i2u608_40
  4260   0000C0                     i2u608_41:
  4261   0000C0  EF7D  F000         	goto	i2l809
  4262   0000C4                     i2u608_40:
  4263   0000C4  A0F2               	btfss	242,0,c	;volatile
  4264   0000C6  EF67  F000         	goto	i2u609_41
  4265   0000CA  EF69  F000         	goto	i2u609_40
  4266   0000CE                     i2u609_41:
  4267   0000CE  EF7D  F000         	goto	i2l809
  4268   0000D2                     i2u609_40:
  4269   0000D2  B881               	btfsc	129,4,c	;volatile
  4270   0000D4  EF6E  F000         	goto	i2u610_41
  4271   0000D8  EF70  F000         	goto	i2u610_40
  4272   0000DC                     i2u610_41:
  4273   0000DC  EF7D  F000         	goto	i2l809
  4274   0000E0                     i2u610_40:
  4275   0000E0  504B               	movf	_RB4_Flag^0,w,c	;volatile
  4276   0000E2  A4D8               	btfss	status,2,c
  4277   0000E4  EF76  F000         	goto	i2u611_41
  4278   0000E8  EF78  F000         	goto	i2u611_40
  4279   0000EC                     i2u611_41:
  4280   0000EC  EF7D  F000         	goto	i2l809
  4281   0000F0                     i2u611_40:
  4282   0000F0                     
  4283                           ;MCAL_Layer/interrupt/mcal_interrupt_manager.c: 65:     {;MCAL_Layer/interrupt/mcal_inte
      +                          rrupt_manager.c: 66:         RB4_Flag = 1;
  4284   0000F0  0E01               	movlw	1
  4285   0000F2  6E4B               	movwf	_RB4_Flag^0,c	;volatile
  4286   0000F4                     
  4287                           ;MCAL_Layer/interrupt/mcal_interrupt_manager.c: 67:         RB4_ISR(0);
  4288   0000F4  0E00               	movlw	0
  4289   0000F6  EC37  F013         	call	_RB4_ISR
  4290   0000FA                     i2l809:
  4291                           
  4292                           ;MCAL_Layer/interrupt/mcal_interrupt_manager.c: 70:     if ((INTCONbits.RBIE == 1) && (I
      +                          NTCONbits.RBIF == 1) &&
  4293   0000FA  A6F2               	btfss	242,3,c	;volatile
  4294   0000FC  EF82  F000         	goto	i2u612_41
  4295   000100  EF84  F000         	goto	i2u612_40
  4296   000104                     i2u612_41:
  4297   000104  EF9F  F000         	goto	i2l811
  4298   000108                     i2u612_40:
  4299   000108  A0F2               	btfss	242,0,c	;volatile
  4300   00010A  EF89  F000         	goto	i2u613_41
  4301   00010E  EF8B  F000         	goto	i2u613_40
  4302   000112                     i2u613_41:
  4303   000112  EF9F  F000         	goto	i2l811
  4304   000116                     i2u613_40:
  4305   000116  AA81               	btfss	129,5,c	;volatile
  4306   000118  EF90  F000         	goto	i2u614_41
  4307   00011C  EF92  F000         	goto	i2u614_40
  4308   000120                     i2u614_41:
  4309   000120  EF9F  F000         	goto	i2l811
  4310   000124                     i2u614_40:
  4311   000124  044A               	decf	_RB5_Flag^0,w,c	;volatile
  4312   000126  A4D8               	btfss	status,2,c
  4313   000128  EF98  F000         	goto	i2u615_41
  4314   00012C  EF9A  F000         	goto	i2u615_40
  4315   000130                     i2u615_41:
  4316   000130  EF9F  F000         	goto	i2l811
  4317   000134                     i2u615_40:
  4318   000134                     
  4319                           ;MCAL_Layer/interrupt/mcal_interrupt_manager.c: 72:     {;MCAL_Layer/interrupt/mcal_inte
      +                          rrupt_manager.c: 73:         RB5_Flag = 0;
  4320   000134  0E00               	movlw	0
  4321   000136  6E4A               	movwf	_RB5_Flag^0,c	;volatile
  4322   000138                     
  4323                           ;MCAL_Layer/interrupt/mcal_interrupt_manager.c: 74:         RB5_ISR(1);
  4324   000138  0E01               	movlw	1
  4325   00013A  EC2A  F013         	call	_RB5_ISR
  4326   00013E                     i2l811:
  4327                           
  4328                           ;MCAL_Layer/interrupt/mcal_interrupt_manager.c: 77:     if ((INTCONbits.RBIE == 1) && (I
      +                          NTCONbits.RBIF == 1) &&
  4329   00013E  A6F2               	btfss	242,3,c	;volatile
  4330   000140  EFA4  F000         	goto	i2u616_41
  4331   000144  EFA6  F000         	goto	i2u616_40
  4332   000148                     i2u616_41:
  4333   000148  EFC1  F000         	goto	i2l6723
  4334   00014C                     i2u616_40:
  4335   00014C  A0F2               	btfss	242,0,c	;volatile
  4336   00014E  EFAB  F000         	goto	i2u617_41
  4337   000152  EFAD  F000         	goto	i2u617_40
  4338   000156                     i2u617_41:
  4339   000156  EFC1  F000         	goto	i2l6723
  4340   00015A                     i2u617_40:
  4341   00015A  BA81               	btfsc	129,5,c	;volatile
  4342   00015C  EFB2  F000         	goto	i2u618_41
  4343   000160  EFB4  F000         	goto	i2u618_40
  4344   000164                     i2u618_41:
  4345   000164  EFC1  F000         	goto	i2l6723
  4346   000168                     i2u618_40:
  4347   000168  504A               	movf	_RB5_Flag^0,w,c	;volatile
  4348   00016A  A4D8               	btfss	status,2,c
  4349   00016C  EFBA  F000         	goto	i2u619_41
  4350   000170  EFBC  F000         	goto	i2u619_40
  4351   000174                     i2u619_41:
  4352   000174  EFC1  F000         	goto	i2l6723
  4353   000178                     i2u619_40:
  4354   000178                     
  4355                           ;MCAL_Layer/interrupt/mcal_interrupt_manager.c: 79:     {;MCAL_Layer/interrupt/mcal_inte
      +                          rrupt_manager.c: 80:         RB5_Flag = 1;
  4356   000178  0E01               	movlw	1
  4357   00017A  6E4A               	movwf	_RB5_Flag^0,c	;volatile
  4358   00017C                     
  4359                           ;MCAL_Layer/interrupt/mcal_interrupt_manager.c: 81:         RB5_ISR(0);
  4360   00017C  0E00               	movlw	0
  4361   00017E  EC2A  F013         	call	_RB5_ISR
  4362   000182                     i2l6723:
  4363                           
  4364                           ;MCAL_Layer/interrupt/mcal_interrupt_manager.c: 84:     if ((INTCONbits.RBIE == 1) && (I
      +                          NTCONbits.RBIF == 1) &&
  4365   000182  A6F2               	btfss	242,3,c	;volatile
  4366   000184  EFC6  F000         	goto	i2u620_41
  4367   000188  EFC8  F000         	goto	i2u620_40
  4368   00018C                     i2u620_41:
  4369   00018C  EFE3  F000         	goto	i2l814
  4370   000190                     i2u620_40:
  4371   000190  A0F2               	btfss	242,0,c	;volatile
  4372   000192  EFCD  F000         	goto	i2u621_41
  4373   000196  EFCF  F000         	goto	i2u621_40
  4374   00019A                     i2u621_41:
  4375   00019A  EFE3  F000         	goto	i2l814
  4376   00019E                     i2u621_40:
  4377   00019E  AC81               	btfss	129,6,c	;volatile
  4378   0001A0  EFD4  F000         	goto	i2u622_41
  4379   0001A4  EFD6  F000         	goto	i2u622_40
  4380   0001A8                     i2u622_41:
  4381   0001A8  EFE3  F000         	goto	i2l814
  4382   0001AC                     i2u622_40:
  4383   0001AC  0449               	decf	_RB6_Flag^0,w,c	;volatile
  4384   0001AE  A4D8               	btfss	status,2,c
  4385   0001B0  EFDC  F000         	goto	i2u623_41
  4386   0001B4  EFDE  F000         	goto	i2u623_40
  4387   0001B8                     i2u623_41:
  4388   0001B8  EFE3  F000         	goto	i2l814
  4389   0001BC                     i2u623_40:
  4390   0001BC                     
  4391                           ;MCAL_Layer/interrupt/mcal_interrupt_manager.c: 86:     {;MCAL_Layer/interrupt/mcal_inte
      +                          rrupt_manager.c: 87:         RB6_Flag = 0;
  4392   0001BC  0E00               	movlw	0
  4393   0001BE  6E49               	movwf	_RB6_Flag^0,c	;volatile
  4394   0001C0                     
  4395                           ;MCAL_Layer/interrupt/mcal_interrupt_manager.c: 88:         RB6_ISR(1);
  4396   0001C0  0E01               	movlw	1
  4397   0001C2  EC1D  F013         	call	_RB6_ISR
  4398   0001C6                     i2l814:
  4399                           
  4400                           ;MCAL_Layer/interrupt/mcal_interrupt_manager.c: 91:     if ((INTCONbits.RBIE == 1) && (I
      +                          NTCONbits.RBIF == 1) &&
  4401   0001C6  A6F2               	btfss	242,3,c	;volatile
  4402   0001C8  EFE8  F000         	goto	i2u624_41
  4403   0001CC  EFEA  F000         	goto	i2u624_40
  4404   0001D0                     i2u624_41:
  4405   0001D0  EF05  F001         	goto	i2l6745
  4406   0001D4                     i2u624_40:
  4407   0001D4  A0F2               	btfss	242,0,c	;volatile
  4408   0001D6  EFEF  F000         	goto	i2u625_41
  4409   0001DA  EFF1  F000         	goto	i2u625_40
  4410   0001DE                     i2u625_41:
  4411   0001DE  EF05  F001         	goto	i2l6745
  4412   0001E2                     i2u625_40:
  4413   0001E2  BC81               	btfsc	129,6,c	;volatile
  4414   0001E4  EFF6  F000         	goto	i2u626_41
  4415   0001E8  EFF8  F000         	goto	i2u626_40
  4416   0001EC                     i2u626_41:
  4417   0001EC  EF05  F001         	goto	i2l6745
  4418   0001F0                     i2u626_40:
  4419   0001F0  5049               	movf	_RB6_Flag^0,w,c	;volatile
  4420   0001F2  A4D8               	btfss	status,2,c
  4421   0001F4  EFFE  F000         	goto	i2u627_41
  4422   0001F8  EF00  F001         	goto	i2u627_40
  4423   0001FC                     i2u627_41:
  4424   0001FC  EF05  F001         	goto	i2l6745
  4425   000200                     i2u627_40:
  4426   000200                     
  4427                           ;MCAL_Layer/interrupt/mcal_interrupt_manager.c: 93:     {;MCAL_Layer/interrupt/mcal_inte
      +                          rrupt_manager.c: 94:         RB6_Flag = 1;
  4428   000200  0E01               	movlw	1
  4429   000202  6E49               	movwf	_RB6_Flag^0,c	;volatile
  4430   000204                     
  4431                           ;MCAL_Layer/interrupt/mcal_interrupt_manager.c: 95:         RB6_ISR(0);
  4432   000204  0E00               	movlw	0
  4433   000206  EC1D  F013         	call	_RB6_ISR
  4434   00020A                     i2l6745:
  4435                           
  4436                           ;MCAL_Layer/interrupt/mcal_interrupt_manager.c: 98:     if ((INTCONbits.RBIE == 1) && (I
      +                          NTCONbits.RBIF == 1) &&
  4437   00020A  A6F2               	btfss	242,3,c	;volatile
  4438   00020C  EF0A  F001         	goto	i2u628_41
  4439   000210  EF0C  F001         	goto	i2u628_40
  4440   000214                     i2u628_41:
  4441   000214  EF27  F001         	goto	i2l817
  4442   000218                     i2u628_40:
  4443   000218  A0F2               	btfss	242,0,c	;volatile
  4444   00021A  EF11  F001         	goto	i2u629_41
  4445   00021E  EF13  F001         	goto	i2u629_40
  4446   000222                     i2u629_41:
  4447   000222  EF27  F001         	goto	i2l817
  4448   000226                     i2u629_40:
  4449   000226  AE81               	btfss	129,7,c	;volatile
  4450   000228  EF18  F001         	goto	i2u630_41
  4451   00022C  EF1A  F001         	goto	i2u630_40
  4452   000230                     i2u630_41:
  4453   000230  EF27  F001         	goto	i2l817
  4454   000234                     i2u630_40:
  4455   000234  0448               	decf	_RB7_Flag^0,w,c	;volatile
  4456   000236  A4D8               	btfss	status,2,c
  4457   000238  EF20  F001         	goto	i2u631_41
  4458   00023C  EF22  F001         	goto	i2u631_40
  4459   000240                     i2u631_41:
  4460   000240  EF27  F001         	goto	i2l817
  4461   000244                     i2u631_40:
  4462   000244                     
  4463                           ;MCAL_Layer/interrupt/mcal_interrupt_manager.c: 100:     {;MCAL_Layer/interrupt/mcal_int
      +                          errupt_manager.c: 101:         RB7_Flag = 0;
  4464   000244  0E00               	movlw	0
  4465   000246  6E48               	movwf	_RB7_Flag^0,c	;volatile
  4466   000248                     
  4467                           ;MCAL_Layer/interrupt/mcal_interrupt_manager.c: 102:         RB7_ISR(1);
  4468   000248  0E01               	movlw	1
  4469   00024A  EC10  F013         	call	_RB7_ISR
  4470   00024E                     i2l817:
  4471                           
  4472                           ;MCAL_Layer/interrupt/mcal_interrupt_manager.c: 105:     if ((INTCONbits.RBIE == 1) && (
      +                          INTCONbits.RBIF == 1) &&
  4473   00024E  A6F2               	btfss	242,3,c	;volatile
  4474   000250  EF2C  F001         	goto	i2u632_41
  4475   000254  EF2E  F001         	goto	i2u632_40
  4476   000258                     i2u632_41:
  4477   000258  EF49  F001         	goto	i2l819
  4478   00025C                     i2u632_40:
  4479   00025C  A0F2               	btfss	242,0,c	;volatile
  4480   00025E  EF33  F001         	goto	i2u633_41
  4481   000262  EF35  F001         	goto	i2u633_40
  4482   000266                     i2u633_41:
  4483   000266  EF49  F001         	goto	i2l819
  4484   00026A                     i2u633_40:
  4485   00026A  BE81               	btfsc	129,7,c	;volatile
  4486   00026C  EF3A  F001         	goto	i2u634_41
  4487   000270  EF3C  F001         	goto	i2u634_40
  4488   000274                     i2u634_41:
  4489   000274  EF49  F001         	goto	i2l819
  4490   000278                     i2u634_40:
  4491   000278  5048               	movf	_RB7_Flag^0,w,c	;volatile
  4492   00027A  A4D8               	btfss	status,2,c
  4493   00027C  EF42  F001         	goto	i2u635_41
  4494   000280  EF44  F001         	goto	i2u635_40
  4495   000284                     i2u635_41:
  4496   000284  EF49  F001         	goto	i2l819
  4497   000288                     i2u635_40:
  4498   000288                     
  4499                           ;MCAL_Layer/interrupt/mcal_interrupt_manager.c: 107:     {;MCAL_Layer/interrupt/mcal_int
      +                          errupt_manager.c: 108:         RB7_Flag = 1;
  4500   000288  0E01               	movlw	1
  4501   00028A  6E48               	movwf	_RB7_Flag^0,c	;volatile
  4502   00028C                     
  4503                           ;MCAL_Layer/interrupt/mcal_interrupt_manager.c: 109:         RB7_ISR(0);
  4504   00028C  0E00               	movlw	0
  4505   00028E  EC10  F013         	call	_RB7_ISR
  4506   000292                     i2l819:
  4507                           
  4508                           ;MCAL_Layer/interrupt/mcal_interrupt_manager.c: 115:     if ((PIE1bits.ADIE == 1) && (PI
      +                          R1bits.ADIF == 1)){
  4509   000292  AC9D               	btfss	157,6,c	;volatile
  4510   000294  EF4E  F001         	goto	i2u636_41
  4511   000298  EF50  F001         	goto	i2u636_40
  4512   00029C                     i2u636_41:
  4513   00029C  EF59  F001         	goto	i2l821
  4514   0002A0                     i2u636_40:
  4515   0002A0  AC9E               	btfss	158,6,c	;volatile
  4516   0002A2  EF55  F001         	goto	i2u637_41
  4517   0002A6  EF57  F001         	goto	i2u637_40
  4518   0002AA                     i2u637_41:
  4519   0002AA  EF59  F001         	goto	i2l821
  4520   0002AE                     i2u637_40:
  4521   0002AE                     
  4522                           ;MCAL_Layer/interrupt/mcal_interrupt_manager.c: 116:         ADC_ISR();
  4523   0002AE  EC7D  F013         	call	_ADC_ISR	;wreg free
  4524   0002B2                     i2l821:
  4525                           
  4526                           ;MCAL_Layer/interrupt/mcal_interrupt_manager.c: 121:     if ((INTCONbits.TMR0IE == 1) &&
      +                           (INTCONbits.TMR0IF == 1)){
  4527   0002B2  AAF2               	btfss	242,5,c	;volatile
  4528   0002B4  EF5E  F001         	goto	i2u638_41
  4529   0002B8  EF60  F001         	goto	i2u638_40
  4530   0002BC                     i2u638_41:
  4531   0002BC  EF69  F001         	goto	i2l823
  4532   0002C0                     i2u638_40:
  4533   0002C0  A4F2               	btfss	242,2,c	;volatile
  4534   0002C2  EF65  F001         	goto	i2u639_41
  4535   0002C6  EF67  F001         	goto	i2u639_40
  4536   0002CA                     i2u639_41:
  4537   0002CA  EF69  F001         	goto	i2l823
  4538   0002CE                     i2u639_40:
  4539   0002CE                     
  4540                           ;MCAL_Layer/interrupt/mcal_interrupt_manager.c: 122:         TMR0_ISR();
  4541   0002CE  EC66  F013         	call	_TMR0_ISR	;wreg free
  4542   0002D2                     i2l823:
  4543                           
  4544                           ;MCAL_Layer/interrupt/mcal_interrupt_manager.c: 127:     if ((PIE1bits.TMR1IE == 1) && (
      +                          PIR1bits.TMR1IF == 1)){
  4545   0002D2  A09D               	btfss	157,0,c	;volatile
  4546   0002D4  EF6E  F001         	goto	i2u640_41
  4547   0002D8  EF70  F001         	goto	i2u640_40
  4548   0002DC                     i2u640_41:
  4549   0002DC  EF79  F001         	goto	i2l825
  4550   0002E0                     i2u640_40:
  4551   0002E0  A09E               	btfss	158,0,c	;volatile
  4552   0002E2  EF75  F001         	goto	i2u641_41
  4553   0002E6  EF77  F001         	goto	i2u641_40
  4554   0002EA                     i2u641_41:
  4555   0002EA  EF79  F001         	goto	i2l825
  4556   0002EE                     i2u641_40:
  4557   0002EE                     
  4558                           ;MCAL_Layer/interrupt/mcal_interrupt_manager.c: 128:         TMR1_ISR();
  4559   0002EE  EC5F  F013         	call	_TMR1_ISR	;wreg free
  4560   0002F2                     i2l825:
  4561                           
  4562                           ;MCAL_Layer/interrupt/mcal_interrupt_manager.c: 133:     if ((PIE1bits.TMR2IE == 1) && (
      +                          PIR1bits.TMR2IF == 1)){
  4563   0002F2  A29D               	btfss	157,1,c	;volatile
  4564   0002F4  EF7E  F001         	goto	i2u642_41
  4565   0002F8  EF80  F001         	goto	i2u642_40
  4566   0002FC                     i2u642_41:
  4567   0002FC  EF89  F001         	goto	i2l827
  4568   000300                     i2u642_40:
  4569   000300  A29E               	btfss	158,1,c	;volatile
  4570   000302  EF85  F001         	goto	i2u643_41
  4571   000306  EF87  F001         	goto	i2u643_40
  4572   00030A                     i2u643_41:
  4573   00030A  EF89  F001         	goto	i2l827
  4574   00030E                     i2u643_40:
  4575   00030E                     
  4576                           ;MCAL_Layer/interrupt/mcal_interrupt_manager.c: 134:         TMR2_ISR();
  4577   00030E  EC6D  F013         	call	_TMR2_ISR	;wreg free
  4578   000312                     i2l827:
  4579                           
  4580                           ;MCAL_Layer/interrupt/mcal_interrupt_manager.c: 139:     if ((PIE2bits.TMR3IE == 1) && (
      +                          PIR2bits.TMR3IF == 1)){
  4581   000312  A2A0               	btfss	160,1,c	;volatile
  4582   000314  EF8E  F001         	goto	i2u644_41
  4583   000318  EF90  F001         	goto	i2u644_40
  4584   00031C                     i2u644_41:
  4585   00031C  EF99  F001         	goto	i2l829
  4586   000320                     i2u644_40:
  4587   000320  A2A1               	btfss	161,1,c	;volatile
  4588   000322  EF95  F001         	goto	i2u645_41
  4589   000326  EF97  F001         	goto	i2u645_40
  4590   00032A                     i2u645_41:
  4591   00032A  EF99  F001         	goto	i2l829
  4592   00032E                     i2u645_40:
  4593   00032E                     
  4594                           ;MCAL_Layer/interrupt/mcal_interrupt_manager.c: 140:         TMR3_ISR();
  4595   00032E  EC58  F013         	call	_TMR3_ISR	;wreg free
  4596   000332                     i2l829:
  4597                           
  4598                           ;MCAL_Layer/interrupt/mcal_interrupt_manager.c: 145:     if ((PIE1bits.CCP1IE == 1) && (
      +                          PIR1bits.CCP1IF == 1)){
  4599   000332  A49D               	btfss	157,2,c	;volatile
  4600   000334  EF9E  F001         	goto	i2u646_41
  4601   000338  EFA0  F001         	goto	i2u646_40
  4602   00033C                     i2u646_41:
  4603   00033C  EFA9  F001         	goto	i2l831
  4604   000340                     i2u646_40:
  4605   000340  A49E               	btfss	158,2,c	;volatile
  4606   000342  EFA5  F001         	goto	i2u647_41
  4607   000346  EFA7  F001         	goto	i2u647_40
  4608   00034A                     i2u647_41:
  4609   00034A  EFA9  F001         	goto	i2l831
  4610   00034E                     i2u647_40:
  4611   00034E                     
  4612                           ;MCAL_Layer/interrupt/mcal_interrupt_manager.c: 146:         CCP1_ISR();
  4613   00034E  EC7B  F013         	call	_CCP1_ISR	;wreg free
  4614   000352                     i2l831:
  4615                           
  4616                           ;MCAL_Layer/interrupt/mcal_interrupt_manager.c: 150:     if ((PIE2bits.CCP2IE == 1) && (
      +                          PIR2bits.CCP2IF == 1)){
  4617   000352  A0A0               	btfss	160,0,c	;volatile
  4618   000354  EFAE  F001         	goto	i2u648_41
  4619   000358  EFB0  F001         	goto	i2u648_40
  4620   00035C                     i2u648_41:
  4621   00035C  EFB9  F001         	goto	i2l833
  4622   000360                     i2u648_40:
  4623   000360  A0A1               	btfss	161,0,c	;volatile
  4624   000362  EFB5  F001         	goto	i2u649_41
  4625   000366  EFB7  F001         	goto	i2u649_40
  4626   00036A                     i2u649_41:
  4627   00036A  EFB9  F001         	goto	i2l833
  4628   00036E                     i2u649_40:
  4629   00036E                     
  4630                           ;MCAL_Layer/interrupt/mcal_interrupt_manager.c: 151:         CCP2_ISR();
  4631   00036E  EC79  F013         	call	_CCP2_ISR	;wreg free
  4632   000372                     i2l833:
  4633                           
  4634                           ;MCAL_Layer/interrupt/mcal_interrupt_manager.c: 156:     if ((PIE1bits.TXIE == 1) && ( P
      +                          IR1bits.TXIF == 1)){
  4635   000372  A89D               	btfss	157,4,c	;volatile
  4636   000374  EFBE  F001         	goto	i2u650_41
  4637   000378  EFC0  F001         	goto	i2u650_40
  4638   00037C                     i2u650_41:
  4639   00037C  EFC9  F001         	goto	i2l835
  4640   000380                     i2u650_40:
  4641   000380  A89E               	btfss	158,4,c	;volatile
  4642   000382  EFC5  F001         	goto	i2u651_41
  4643   000386  EFC7  F001         	goto	i2u651_40
  4644   00038A                     i2u651_41:
  4645   00038A  EFC9  F001         	goto	i2l835
  4646   00038E                     i2u651_40:
  4647   00038E                     
  4648                           ;MCAL_Layer/interrupt/mcal_interrupt_manager.c: 157:         EUSART_TX_ISR();
  4649   00038E  ECD6  F012         	call	_EUSART_TX_ISR	;wreg free
  4650   000392                     i2l835:
  4651                           
  4652                           ;MCAL_Layer/interrupt/mcal_interrupt_manager.c: 162:     if ((PIE1bits.RCIE == 1) && (PI
      +                          R1bits.RCIF == 1)){
  4653   000392  AA9D               	btfss	157,5,c	;volatile
  4654   000394  EFCE  F001         	goto	i2u652_41
  4655   000398  EFD0  F001         	goto	i2u652_40
  4656   00039C                     i2u652_41:
  4657   00039C  EFD9  F001         	goto	i2l838
  4658   0003A0                     i2u652_40:
  4659   0003A0  AA9E               	btfss	158,5,c	;volatile
  4660   0003A2  EFD5  F001         	goto	i2u653_41
  4661   0003A6  EFD7  F001         	goto	i2u653_40
  4662   0003AA                     i2u653_41:
  4663   0003AA  EFD9  F001         	goto	i2l838
  4664   0003AE                     i2u653_40:
  4665   0003AE                     
  4666                           ;MCAL_Layer/interrupt/mcal_interrupt_manager.c: 163:         EUSART_RX_ISR();
  4667   0003AE  EC7F  F013         	call	_EUSART_RX_ISR	;wreg free
  4668   0003B2                     i2l838:
  4669   0003B2  C003  FFFB         	movff	??_InterruptManager+1,pclatu
  4670   0003B6  C002  FFFA         	movff	??_InterruptManager,pclath
  4671   0003BA  924D               	bcf	int$flags,1,c	;clear compiler interrupt flag (level 2)
  4672   0003BC  0011               	retfie		f
  4673   0003BE                     __end_of_InterruptManager:
  4674                           	callstack 0
  4675                           
  4676 ;; *************** function _TMR3_ISR *****************
  4677 ;; Defined at:
  4678 ;;		line 92 in file "MCAL_Layer/Timer3/hal_timer3.c"
  4679 ;; Parameters:    Size  Location     Type
  4680 ;;		None
  4681 ;; Auto vars:     Size  Location     Type
  4682 ;;		None
  4683 ;; Return value:  Size  Location     Type
  4684 ;;                  1    wreg      void 
  4685 ;; Registers used:
  4686 ;;		wreg, status,2
  4687 ;; Tracked objects:
  4688 ;;		On entry : 0/0
  4689 ;;		On exit  : 0/0
  4690 ;;		Unchanged: 0/0
  4691 ;; Data sizes:     COMRAM   BANK0   BANK1   BANK2   BANK3   BANK4   BANK5   BANK6   BANK7   BANK8   BANK9  BANK10  BANK1
      +1  BANK12  BANK13  BANK14  BANK15
  4692 ;;      Params:         0       0       0       0       0       0       0       0       0       0       0       0       
      +0       0       0       0       0
  4693 ;;      Locals:         0       0       0       0       0       0       0       0       0       0       0       0       
      +0       0       0       0       0
  4694 ;;      Temps:          0       0       0       0       0       0       0       0       0       0       0       0       
      +0       0       0       0       0
  4695 ;;      Totals:         0       0       0       0       0       0       0       0       0       0       0       0       
      +0       0       0       0       0
  4696 ;;Total ram usage:        0 bytes
  4697 ;; Hardware stack levels used: 1
  4698 ;; This function calls:
  4699 ;;		Nothing
  4700 ;; This function is called by:
  4701 ;;		_InterruptManager
  4702 ;; This function uses a non-reentrant model
  4703 ;;
  4704                           
  4705                           	psect	text17
  4706   0026B0                     __ptext17:
  4707                           	callstack 0
  4708   0026B0                     _TMR3_ISR:
  4709                           	callstack 25
  4710   0026B0                     
  4711                           ;MCAL_Layer/Timer3/hal_timer3.c: 93:     (PIR2bits.TMR3IF = 0);
  4712   0026B0  92A1               	bcf	161,1,c	;volatile
  4713   0026B2                     
  4714                           ;MCAL_Layer/Timer3/hal_timer3.c: 94:     TMR3H = ((timer3_preload) >> 8);
  4715   0026B2  0100               	movlb	0	; () banked
  4716   0026B4  5182               	movf	(_timer3_preload+1)& (0+255),w,b
  4717   0026B6  6EB3               	movwf	179,c	;volatile
  4718   0026B8                     
  4719                           ; BSR set to: 0
  4720                           ;MCAL_Layer/Timer3/hal_timer3.c: 95:     TMR3L = (uint8)(timer3_preload) ;
  4721   0026B8  C081  FFB2         	movff	_timer3_preload,4018	;volatile
  4722   0026BC                     
  4723                           ; BSR set to: 0
  4724   0026BC  0012               	return		;funcret
  4725   0026BE                     __end_of_TMR3_ISR:
  4726                           	callstack 0
  4727                           
  4728 ;; *************** function _TMR2_ISR *****************
  4729 ;; Defined at:
  4730 ;;		line 87 in file "MCAL_Layer/Timer2/hal_timer2.c"
  4731 ;; Parameters:    Size  Location     Type
  4732 ;;		None
  4733 ;; Auto vars:     Size  Location     Type
  4734 ;;		None
  4735 ;; Return value:  Size  Location     Type
  4736 ;;                  1    wreg      void 
  4737 ;; Registers used:
  4738 ;;		None
  4739 ;; Tracked objects:
  4740 ;;		On entry : 0/0
  4741 ;;		On exit  : 0/0
  4742 ;;		Unchanged: 0/0
  4743 ;; Data sizes:     COMRAM   BANK0   BANK1   BANK2   BANK3   BANK4   BANK5   BANK6   BANK7   BANK8   BANK9  BANK10  BANK1
      +1  BANK12  BANK13  BANK14  BANK15
  4744 ;;      Params:         0       0       0       0       0       0       0       0       0       0       0       0       
      +0       0       0       0       0
  4745 ;;      Locals:         0       0       0       0       0       0       0       0       0       0       0       0       
      +0       0       0       0       0
  4746 ;;      Temps:          0       0       0       0       0       0       0       0       0       0       0       0       
      +0       0       0       0       0
  4747 ;;      Totals:         0       0       0       0       0       0       0       0       0       0       0       0       
      +0       0       0       0       0
  4748 ;;Total ram usage:        0 bytes
  4749 ;; Hardware stack levels used: 1
  4750 ;; This function calls:
  4751 ;;		Nothing
  4752 ;; This function is called by:
  4753 ;;		_InterruptManager
  4754 ;; This function uses a non-reentrant model
  4755 ;;
  4756                           
  4757                           	psect	text18
  4758   0026DA                     __ptext18:
  4759                           	callstack 0
  4760   0026DA                     _TMR2_ISR:
  4761                           	callstack 25
  4762   0026DA                     
  4763                           ;MCAL_Layer/Timer2/hal_timer2.c: 88:     (PIR1bits.TMR2IF = 0);
  4764   0026DA  929E               	bcf	158,1,c	;volatile
  4765                           
  4766                           ;MCAL_Layer/Timer2/hal_timer2.c: 89:     TMR2 = timer2_preload;
  4767   0026DC  C0AE  FFCC         	movff	_timer2_preload,4044	;volatile
  4768   0026E0  0012               	return		;funcret
  4769   0026E2                     __end_of_TMR2_ISR:
  4770                           	callstack 0
  4771                           
  4772 ;; *************** function _TMR1_ISR *****************
  4773 ;; Defined at:
  4774 ;;		line 95 in file "MCAL_Layer/Timer1/hal_timer1.c"
  4775 ;; Parameters:    Size  Location     Type
  4776 ;;		None
  4777 ;; Auto vars:     Size  Location     Type
  4778 ;;		None
  4779 ;; Return value:  Size  Location     Type
  4780 ;;                  1    wreg      void 
  4781 ;; Registers used:
  4782 ;;		wreg, status,2
  4783 ;; Tracked objects:
  4784 ;;		On entry : 0/0
  4785 ;;		On exit  : 0/0
  4786 ;;		Unchanged: 0/0
  4787 ;; Data sizes:     COMRAM   BANK0   BANK1   BANK2   BANK3   BANK4   BANK5   BANK6   BANK7   BANK8   BANK9  BANK10  BANK1
      +1  BANK12  BANK13  BANK14  BANK15
  4788 ;;      Params:         0       0       0       0       0       0       0       0       0       0       0       0       
      +0       0       0       0       0
  4789 ;;      Locals:         0       0       0       0       0       0       0       0       0       0       0       0       
      +0       0       0       0       0
  4790 ;;      Temps:          0       0       0       0       0       0       0       0       0       0       0       0       
      +0       0       0       0       0
  4791 ;;      Totals:         0       0       0       0       0       0       0       0       0       0       0       0       
      +0       0       0       0       0
  4792 ;;Total ram usage:        0 bytes
  4793 ;; Hardware stack levels used: 1
  4794 ;; This function calls:
  4795 ;;		Nothing
  4796 ;; This function is called by:
  4797 ;;		_InterruptManager
  4798 ;; This function uses a non-reentrant model
  4799 ;;
  4800                           
  4801                           	psect	text19
  4802   0026BE                     __ptext19:
  4803                           	callstack 0
  4804   0026BE                     _TMR1_ISR:
  4805                           	callstack 25
  4806   0026BE                     
  4807                           ;MCAL_Layer/Timer1/hal_timer1.c: 96:     (PIR1bits.TMR1IF = 0);
  4808   0026BE  909E               	bcf	158,0,c	;volatile
  4809   0026C0                     
  4810                           ;MCAL_Layer/Timer1/hal_timer1.c: 97:     TMR1H = ((timer1_preload) >> 8);
  4811   0026C0  0100               	movlb	0	; () banked
  4812   0026C2  5188               	movf	(_timer1_preload+1)& (0+255),w,b
  4813   0026C4  6ECF               	movwf	207,c	;volatile
  4814   0026C6                     
  4815                           ; BSR set to: 0
  4816                           ;MCAL_Layer/Timer1/hal_timer1.c: 98:     TMR1L = (uint8)(timer1_preload) ;
  4817   0026C6  C087  FFCE         	movff	_timer1_preload,4046	;volatile
  4818   0026CA                     
  4819                           ; BSR set to: 0
  4820   0026CA  0012               	return		;funcret
  4821   0026CC                     __end_of_TMR1_ISR:
  4822                           	callstack 0
  4823                           
  4824 ;; *************** function _TMR0_ISR *****************
  4825 ;; Defined at:
  4826 ;;		line 100 in file "MCAL_Layer/Timer0/hal_timer0.c"
  4827 ;; Parameters:    Size  Location     Type
  4828 ;;		None
  4829 ;; Auto vars:     Size  Location     Type
  4830 ;;		None
  4831 ;; Return value:  Size  Location     Type
  4832 ;;                  1    wreg      void 
  4833 ;; Registers used:
  4834 ;;		wreg, status,2
  4835 ;; Tracked objects:
  4836 ;;		On entry : 0/0
  4837 ;;		On exit  : 0/0
  4838 ;;		Unchanged: 0/0
  4839 ;; Data sizes:     COMRAM   BANK0   BANK1   BANK2   BANK3   BANK4   BANK5   BANK6   BANK7   BANK8   BANK9  BANK10  BANK1
      +1  BANK12  BANK13  BANK14  BANK15
  4840 ;;      Params:         0       0       0       0       0       0       0       0       0       0       0       0       
      +0       0       0       0       0
  4841 ;;      Locals:         0       0       0       0       0       0       0       0       0       0       0       0       
      +0       0       0       0       0
  4842 ;;      Temps:          0       0       0       0       0       0       0       0       0       0       0       0       
      +0       0       0       0       0
  4843 ;;      Totals:         0       0       0       0       0       0       0       0       0       0       0       0       
      +0       0       0       0       0
  4844 ;;Total ram usage:        0 bytes
  4845 ;; Hardware stack levels used: 1
  4846 ;; This function calls:
  4847 ;;		Nothing
  4848 ;; This function is called by:
  4849 ;;		_InterruptManager
  4850 ;; This function uses a non-reentrant model
  4851 ;;
  4852                           
  4853                           	psect	text20
  4854   0026CC                     __ptext20:
  4855                           	callstack 0
  4856   0026CC                     _TMR0_ISR:
  4857                           	callstack 25
  4858   0026CC                     
  4859                           ;MCAL_Layer/Timer0/hal_timer0.c: 101:     (INTCONbits.TMR0IF = 0);
  4860   0026CC  94F2               	bcf	242,2,c	;volatile
  4861   0026CE                     
  4862                           ;MCAL_Layer/Timer0/hal_timer0.c: 102:     TMR0H = ((timer0_preload) >> 8);
  4863   0026CE  0100               	movlb	0	; () banked
  4864   0026D0  518C               	movf	(_timer0_preload+1)& (0+255),w,b
  4865   0026D2  6ED7               	movwf	215,c	;volatile
  4866   0026D4                     
  4867                           ; BSR set to: 0
  4868                           ;MCAL_Layer/Timer0/hal_timer0.c: 103:     TMR0L = (uint8)(timer0_preload) ;
  4869   0026D4  C08B  FFD6         	movff	_timer0_preload,4054	;volatile
  4870   0026D8                     
  4871                           ; BSR set to: 0
  4872   0026D8  0012               	return		;funcret
  4873   0026DA                     __end_of_TMR0_ISR:
  4874                           	callstack 0
  4875                           
  4876 ;; *************** function _RB7_ISR *****************
  4877 ;; Defined at:
  4878 ;;		line 167 in file "MCAL_Layer/interrupt/mcal_external_interrupt.c"
  4879 ;; Parameters:    Size  Location     Type
  4880 ;;  RB7_source      1    wreg     unsigned char 
  4881 ;; Auto vars:     Size  Location     Type
  4882 ;;  RB7_source      1    0[COMRAM] unsigned char 
  4883 ;; Return value:  Size  Location     Type
  4884 ;;                  1    wreg      void 
  4885 ;; Registers used:
  4886 ;;		wreg, status,2, status,0
  4887 ;; Tracked objects:
  4888 ;;		On entry : 0/0
  4889 ;;		On exit  : 0/0
  4890 ;;		Unchanged: 0/0
  4891 ;; Data sizes:     COMRAM   BANK0   BANK1   BANK2   BANK3   BANK4   BANK5   BANK6   BANK7   BANK8   BANK9  BANK10  BANK1
      +1  BANK12  BANK13  BANK14  BANK15
  4892 ;;      Params:         0       0       0       0       0       0       0       0       0       0       0       0       
      +0       0       0       0       0
  4893 ;;      Locals:         1       0       0       0       0       0       0       0       0       0       0       0       
      +0       0       0       0       0
  4894 ;;      Temps:          0       0       0       0       0       0       0       0       0       0       0       0       
      +0       0       0       0       0
  4895 ;;      Totals:         1       0       0       0       0       0       0       0       0       0       0       0       
      +0       0       0       0       0
  4896 ;;Total ram usage:        1 bytes
  4897 ;; Hardware stack levels used: 1
  4898 ;; This function calls:
  4899 ;;		Nothing
  4900 ;; This function is called by:
  4901 ;;		_InterruptManager
  4902 ;; This function uses a non-reentrant model
  4903 ;;
  4904                           
  4905                           	psect	text21
  4906   002620                     __ptext21:
  4907                           	callstack 0
  4908   002620                     _RB7_ISR:
  4909                           	callstack 25
  4910                           
  4911                           ; BSR set to: 0
  4912                           ;incstack = 0
  4913                           ;RB7_ISR@RB7_source stored from wreg
  4914   002620  6E01               	movwf	RB7_ISR@RB7_source^0,c
  4915   002622                     
  4916                           ;MCAL_Layer/interrupt/mcal_external_interrupt.c: 169:     (INTCONbits.RBIF = 0);
  4917   002622  90F2               	bcf	242,0,c	;volatile
  4918   002624                     
  4919                           ;MCAL_Layer/interrupt/mcal_external_interrupt.c: 174:     if (0 == RB7_source)
  4920   002624  5001               	movf	RB7_ISR@RB7_source^0,w,c
  4921   002626  A4D8               	btfss	status,2,c
  4922   002628  EF18  F013         	goto	i2u487_41
  4923   00262C  EF1A  F013         	goto	i2u487_40
  4924   002630                     i2u487_41:
  4925   002630  EF1C  F013         	goto	i2l5631
  4926   002634                     i2u487_40:
  4927   002634  EF1C  F013         	goto	i2l937
  4928   002638                     i2l5631:
  4929   002638                     i2l937:
  4930   002638  0012               	return		;funcret
  4931   00263A                     __end_of_RB7_ISR:
  4932                           	callstack 0
  4933                           
  4934 ;; *************** function _RB6_ISR *****************
  4935 ;; Defined at:
  4936 ;;		line 149 in file "MCAL_Layer/interrupt/mcal_external_interrupt.c"
  4937 ;; Parameters:    Size  Location     Type
  4938 ;;  RB6_source      1    wreg     unsigned char 
  4939 ;; Auto vars:     Size  Location     Type
  4940 ;;  RB6_source      1    0[COMRAM] unsigned char 
  4941 ;; Return value:  Size  Location     Type
  4942 ;;                  1    wreg      void 
  4943 ;; Registers used:
  4944 ;;		wreg, status,2, status,0
  4945 ;; Tracked objects:
  4946 ;;		On entry : 0/0
  4947 ;;		On exit  : 0/0
  4948 ;;		Unchanged: 0/0
  4949 ;; Data sizes:     COMRAM   BANK0   BANK1   BANK2   BANK3   BANK4   BANK5   BANK6   BANK7   BANK8   BANK9  BANK10  BANK1
      +1  BANK12  BANK13  BANK14  BANK15
  4950 ;;      Params:         0       0       0       0       0       0       0       0       0       0       0       0       
      +0       0       0       0       0
  4951 ;;      Locals:         1       0       0       0       0       0       0       0       0       0       0       0       
      +0       0       0       0       0
  4952 ;;      Temps:          0       0       0       0       0       0       0       0       0       0       0       0       
      +0       0       0       0       0
  4953 ;;      Totals:         1       0       0       0       0       0       0       0       0       0       0       0       
      +0       0       0       0       0
  4954 ;;Total ram usage:        1 bytes
  4955 ;; Hardware stack levels used: 1
  4956 ;; This function calls:
  4957 ;;		Nothing
  4958 ;; This function is called by:
  4959 ;;		_InterruptManager
  4960 ;; This function uses a non-reentrant model
  4961 ;;
  4962                           
  4963                           	psect	text22
  4964   00263A                     __ptext22:
  4965                           	callstack 0
  4966   00263A                     _RB6_ISR:
  4967                           	callstack 25
  4968                           
  4969                           ;incstack = 0
  4970                           ;RB6_ISR@RB6_source stored from wreg
  4971   00263A  6E01               	movwf	RB6_ISR@RB6_source^0,c
  4972   00263C                     
  4973                           ;MCAL_Layer/interrupt/mcal_external_interrupt.c: 151:     (INTCONbits.RBIF = 0);
  4974   00263C  90F2               	bcf	242,0,c	;volatile
  4975   00263E                     
  4976                           ;MCAL_Layer/interrupt/mcal_external_interrupt.c: 156:     if (0 == RB6_source)
  4977   00263E  5001               	movf	RB6_ISR@RB6_source^0,w,c
  4978   002640  A4D8               	btfss	status,2,c
  4979   002642  EF25  F013         	goto	i2u486_41
  4980   002646  EF27  F013         	goto	i2u486_40
  4981   00264A                     i2u486_41:
  4982   00264A  EF29  F013         	goto	i2l5617
  4983   00264E                     i2u486_40:
  4984   00264E  EF29  F013         	goto	i2l927
  4985   002652                     i2l5617:
  4986   002652                     i2l927:
  4987   002652  0012               	return		;funcret
  4988   002654                     __end_of_RB6_ISR:
  4989                           	callstack 0
  4990                           
  4991 ;; *************** function _RB5_ISR *****************
  4992 ;; Defined at:
  4993 ;;		line 131 in file "MCAL_Layer/interrupt/mcal_external_interrupt.c"
  4994 ;; Parameters:    Size  Location     Type
  4995 ;;  RB5_source      1    wreg     unsigned char 
  4996 ;; Auto vars:     Size  Location     Type
  4997 ;;  RB5_source      1    0[COMRAM] unsigned char 
  4998 ;; Return value:  Size  Location     Type
  4999 ;;                  1    wreg      void 
  5000 ;; Registers used:
  5001 ;;		wreg, status,2, status,0
  5002 ;; Tracked objects:
  5003 ;;		On entry : 0/0
  5004 ;;		On exit  : 0/0
  5005 ;;		Unchanged: 0/0
  5006 ;; Data sizes:     COMRAM   BANK0   BANK1   BANK2   BANK3   BANK4   BANK5   BANK6   BANK7   BANK8   BANK9  BANK10  BANK1
      +1  BANK12  BANK13  BANK14  BANK15
  5007 ;;      Params:         0       0       0       0       0       0       0       0       0       0       0       0       
      +0       0       0       0       0
  5008 ;;      Locals:         1       0       0       0       0       0       0       0       0       0       0       0       
      +0       0       0       0       0
  5009 ;;      Temps:          0       0       0       0       0       0       0       0       0       0       0       0       
      +0       0       0       0       0
  5010 ;;      Totals:         1       0       0       0       0       0       0       0       0       0       0       0       
      +0       0       0       0       0
  5011 ;;Total ram usage:        1 bytes
  5012 ;; Hardware stack levels used: 1
  5013 ;; This function calls:
  5014 ;;		Nothing
  5015 ;; This function is called by:
  5016 ;;		_InterruptManager
  5017 ;; This function uses a non-reentrant model
  5018 ;;
  5019                           
  5020                           	psect	text23
  5021   002654                     __ptext23:
  5022                           	callstack 0
  5023   002654                     _RB5_ISR:
  5024                           	callstack 25
  5025                           
  5026                           ;incstack = 0
  5027                           ;RB5_ISR@RB5_source stored from wreg
  5028   002654  6E01               	movwf	RB5_ISR@RB5_source^0,c
  5029   002656                     
  5030                           ;MCAL_Layer/interrupt/mcal_external_interrupt.c: 133:     (INTCONbits.RBIF = 0);
  5031   002656  90F2               	bcf	242,0,c	;volatile
  5032   002658                     
  5033                           ;MCAL_Layer/interrupt/mcal_external_interrupt.c: 137:     if (0 == RB5_source)
  5034   002658  5001               	movf	RB5_ISR@RB5_source^0,w,c
  5035   00265A  A4D8               	btfss	status,2,c
  5036   00265C  EF32  F013         	goto	i2u485_41
  5037   002660  EF34  F013         	goto	i2u485_40
  5038   002664                     i2u485_41:
  5039   002664  EF36  F013         	goto	i2l5603
  5040   002668                     i2u485_40:
  5041   002668  EF36  F013         	goto	i2l917
  5042   00266C                     i2l5603:
  5043   00266C                     i2l917:
  5044   00266C  0012               	return		;funcret
  5045   00266E                     __end_of_RB5_ISR:
  5046                           	callstack 0
  5047                           
  5048 ;; *************** function _RB4_ISR *****************
  5049 ;; Defined at:
  5050 ;;		line 113 in file "MCAL_Layer/interrupt/mcal_external_interrupt.c"
  5051 ;; Parameters:    Size  Location     Type
  5052 ;;  RB4_source      1    wreg     unsigned char 
  5053 ;; Auto vars:     Size  Location     Type
  5054 ;;  RB4_source      1    0[COMRAM] unsigned char 
  5055 ;; Return value:  Size  Location     Type
  5056 ;;                  1    wreg      void 
  5057 ;; Registers used:
  5058 ;;		wreg, status,2, status,0
  5059 ;; Tracked objects:
  5060 ;;		On entry : 0/0
  5061 ;;		On exit  : 0/0
  5062 ;;		Unchanged: 0/0
  5063 ;; Data sizes:     COMRAM   BANK0   BANK1   BANK2   BANK3   BANK4   BANK5   BANK6   BANK7   BANK8   BANK9  BANK10  BANK1
      +1  BANK12  BANK13  BANK14  BANK15
  5064 ;;      Params:         0       0       0       0       0       0       0       0       0       0       0       0       
      +0       0       0       0       0
  5065 ;;      Locals:         1       0       0       0       0       0       0       0       0       0       0       0       
      +0       0       0       0       0
  5066 ;;      Temps:          0       0       0       0       0       0       0       0       0       0       0       0       
      +0       0       0       0       0
  5067 ;;      Totals:         1       0       0       0       0       0       0       0       0       0       0       0       
      +0       0       0       0       0
  5068 ;;Total ram usage:        1 bytes
  5069 ;; Hardware stack levels used: 1
  5070 ;; This function calls:
  5071 ;;		Nothing
  5072 ;; This function is called by:
  5073 ;;		_InterruptManager
  5074 ;; This function uses a non-reentrant model
  5075 ;;
  5076                           
  5077                           	psect	text24
  5078   00266E                     __ptext24:
  5079                           	callstack 0
  5080   00266E                     _RB4_ISR:
  5081                           	callstack 25
  5082                           
  5083                           ;incstack = 0
  5084                           ;RB4_ISR@RB4_source stored from wreg
  5085   00266E  6E01               	movwf	RB4_ISR@RB4_source^0,c
  5086   002670                     
  5087                           ;MCAL_Layer/interrupt/mcal_external_interrupt.c: 115:     (INTCONbits.RBIF = 0);
  5088   002670  90F2               	bcf	242,0,c	;volatile
  5089   002672                     
  5090                           ;MCAL_Layer/interrupt/mcal_external_interrupt.c: 119:     if (0 == RB4_source)
  5091   002672  5001               	movf	RB4_ISR@RB4_source^0,w,c
  5092   002674  A4D8               	btfss	status,2,c
  5093   002676  EF3F  F013         	goto	i2u484_41
  5094   00267A  EF41  F013         	goto	i2u484_40
  5095   00267E                     i2u484_41:
  5096   00267E  EF43  F013         	goto	i2l5589
  5097   002682                     i2u484_40:
  5098   002682  EF43  F013         	goto	i2l907
  5099   002686                     i2l5589:
  5100   002686                     i2l907:
  5101   002686  0012               	return		;funcret
  5102   002688                     __end_of_RB4_ISR:
  5103                           	callstack 0
  5104                           
  5105 ;; *************** function _INT2_ISR *****************
  5106 ;; Defined at:
  5107 ;;		line 100 in file "MCAL_Layer/interrupt/mcal_external_interrupt.c"
  5108 ;; Parameters:    Size  Location     Type
  5109 ;;		None
  5110 ;; Auto vars:     Size  Location     Type
  5111 ;;		None
  5112 ;; Return value:  Size  Location     Type
  5113 ;;                  1    wreg      void 
  5114 ;; Registers used:
  5115 ;;		None
  5116 ;; Tracked objects:
  5117 ;;		On entry : 0/0
  5118 ;;		On exit  : 0/0
  5119 ;;		Unchanged: 0/0
  5120 ;; Data sizes:     COMRAM   BANK0   BANK1   BANK2   BANK3   BANK4   BANK5   BANK6   BANK7   BANK8   BANK9  BANK10  BANK1
      +1  BANK12  BANK13  BANK14  BANK15
  5121 ;;      Params:         0       0       0       0       0       0       0       0       0       0       0       0       
      +0       0       0       0       0
  5122 ;;      Locals:         0       0       0       0       0       0       0       0       0       0       0       0       
      +0       0       0       0       0
  5123 ;;      Temps:          0       0       0       0       0       0       0       0       0       0       0       0       
      +0       0       0       0       0
  5124 ;;      Totals:         0       0       0       0       0       0       0       0       0       0       0       0       
      +0       0       0       0       0
  5125 ;;Total ram usage:        0 bytes
  5126 ;; Hardware stack levels used: 1
  5127 ;; This function calls:
  5128 ;;		Nothing
  5129 ;; This function is called by:
  5130 ;;		_InterruptManager
  5131 ;; This function uses a non-reentrant model
  5132 ;;
  5133                           
  5134                           	psect	text25
  5135   0026E6                     __ptext25:
  5136                           	callstack 0
  5137   0026E6                     _INT2_ISR:
  5138                           	callstack 25
  5139   0026E6                     
  5140                           ;MCAL_Layer/interrupt/mcal_external_interrupt.c: 102:     (INTCON3bits.INT2IF = 0);
  5141   0026E6  92F0               	bcf	240,1,c	;volatile
  5142   0026E8  0012               	return		;funcret
  5143   0026EA                     __end_of_INT2_ISR:
  5144                           	callstack 0
  5145                           
  5146 ;; *************** function _INT1_ISR *****************
  5147 ;; Defined at:
  5148 ;;		line 87 in file "MCAL_Layer/interrupt/mcal_external_interrupt.c"
  5149 ;; Parameters:    Size  Location     Type
  5150 ;;		None
  5151 ;; Auto vars:     Size  Location     Type
  5152 ;;		None
  5153 ;; Return value:  Size  Location     Type
  5154 ;;                  1    wreg      void 
  5155 ;; Registers used:
  5156 ;;		None
  5157 ;; Tracked objects:
  5158 ;;		On entry : 0/0
  5159 ;;		On exit  : 0/0
  5160 ;;		Unchanged: 0/0
  5161 ;; Data sizes:     COMRAM   BANK0   BANK1   BANK2   BANK3   BANK4   BANK5   BANK6   BANK7   BANK8   BANK9  BANK10  BANK1
      +1  BANK12  BANK13  BANK14  BANK15
  5162 ;;      Params:         0       0       0       0       0       0       0       0       0       0       0       0       
      +0       0       0       0       0
  5163 ;;      Locals:         0       0       0       0       0       0       0       0       0       0       0       0       
      +0       0       0       0       0
  5164 ;;      Temps:          0       0       0       0       0       0       0       0       0       0       0       0       
      +0       0       0       0       0
  5165 ;;      Totals:         0       0       0       0       0       0       0       0       0       0       0       0       
      +0       0       0       0       0
  5166 ;;Total ram usage:        0 bytes
  5167 ;; Hardware stack levels used: 1
  5168 ;; This function calls:
  5169 ;;		Nothing
  5170 ;; This function is called by:
  5171 ;;		_InterruptManager
  5172 ;; This function uses a non-reentrant model
  5173 ;;
  5174                           
  5175                           	psect	text26
  5176   0026EA                     __ptext26:
  5177                           	callstack 0
  5178   0026EA                     _INT1_ISR:
  5179                           	callstack 25
  5180   0026EA                     
  5181                           ;MCAL_Layer/interrupt/mcal_external_interrupt.c: 89:     (INTCON3bits.INT1IF = 0);
  5182   0026EA  90F0               	bcf	240,0,c	;volatile
  5183   0026EC  0012               	return		;funcret
  5184   0026EE                     __end_of_INT1_ISR:
  5185                           	callstack 0
  5186                           
  5187 ;; *************** function _INT0_ISR *****************
  5188 ;; Defined at:
  5189 ;;		line 72 in file "MCAL_Layer/interrupt/mcal_external_interrupt.c"
  5190 ;; Parameters:    Size  Location     Type
  5191 ;;		None
  5192 ;; Auto vars:     Size  Location     Type
  5193 ;;		None
  5194 ;; Return value:  Size  Location     Type
  5195 ;;                  1    wreg      void 
  5196 ;; Registers used:
  5197 ;;		None
  5198 ;; Tracked objects:
  5199 ;;		On entry : 0/0
  5200 ;;		On exit  : 0/0
  5201 ;;		Unchanged: 0/0
  5202 ;; Data sizes:     COMRAM   BANK0   BANK1   BANK2   BANK3   BANK4   BANK5   BANK6   BANK7   BANK8   BANK9  BANK10  BANK1
      +1  BANK12  BANK13  BANK14  BANK15
  5203 ;;      Params:         0       0       0       0       0       0       0       0       0       0       0       0       
      +0       0       0       0       0
  5204 ;;      Locals:         0       0       0       0       0       0       0       0       0       0       0       0       
      +0       0       0       0       0
  5205 ;;      Temps:          0       0       0       0       0       0       0       0       0       0       0       0       
      +0       0       0       0       0
  5206 ;;      Totals:         0       0       0       0       0       0       0       0       0       0       0       0       
      +0       0       0       0       0
  5207 ;;Total ram usage:        0 bytes
  5208 ;; Hardware stack levels used: 1
  5209 ;; This function calls:
  5210 ;;		Nothing
  5211 ;; This function is called by:
  5212 ;;		_InterruptManager
  5213 ;; This function uses a non-reentrant model
  5214 ;;
  5215                           
  5216                           	psect	text27
  5217   0026EE                     __ptext27:
  5218                           	callstack 0
  5219   0026EE                     _INT0_ISR:
  5220                           	callstack 25
  5221   0026EE                     
  5222                           ;MCAL_Layer/interrupt/mcal_external_interrupt.c: 74:     (INTCONbits.INT0IF = 0);
  5223   0026EE  92F2               	bcf	242,1,c	;volatile
  5224   0026F0  0012               	return		;funcret
  5225   0026F2                     __end_of_INT0_ISR:
  5226                           	callstack 0
  5227                           
  5228 ;; *************** function _EUSART_TX_ISR *****************
  5229 ;; Defined at:
  5230 ;;		line 81 in file "MCAL_Layer/USART/hal_usart.c"
  5231 ;; Parameters:    Size  Location     Type
  5232 ;;		None
  5233 ;; Auto vars:     Size  Location     Type
  5234 ;;		None
  5235 ;; Return value:  Size  Location     Type
  5236 ;;                  1    wreg      void 
  5237 ;; Registers used:
  5238 ;;		wreg, status,2, status,0, pcl, pclath, pclatu, tosl, cstack
  5239 ;; Tracked objects:
  5240 ;;		On entry : 0/0
  5241 ;;		On exit  : 0/0
  5242 ;;		Unchanged: 0/0
  5243 ;; Data sizes:     COMRAM   BANK0   BANK1   BANK2   BANK3   BANK4   BANK5   BANK6   BANK7   BANK8   BANK9  BANK10  BANK1
      +1  BANK12  BANK13  BANK14  BANK15
  5244 ;;      Params:         0       0       0       0       0       0       0       0       0       0       0       0       
      +0       0       0       0       0
  5245 ;;      Locals:         0       0       0       0       0       0       0       0       0       0       0       0       
      +0       0       0       0       0
  5246 ;;      Temps:          0       0       0       0       0       0       0       0       0       0       0       0       
      +0       0       0       0       0
  5247 ;;      Totals:         0       0       0       0       0       0       0       0       0       0       0       0       
      +0       0       0       0       0
  5248 ;;Total ram usage:        0 bytes
  5249 ;; Hardware stack levels used: 1
  5250 ;; Hardware stack levels required when called: 1
  5251 ;; This function calls:
  5252 ;;		NULL
  5253 ;;		_EUSART_TxDefaultInterruptHandler
  5254 ;; This function is called by:
  5255 ;;		_InterruptManager
  5256 ;; This function uses a non-reentrant model
  5257 ;;
  5258                           
  5259                           	psect	text28
  5260   0025AC                     __ptext28:
  5261                           	callstack 0
  5262   0025AC                     _EUSART_TX_ISR:
  5263                           	callstack 24
  5264   0025AC                     
  5265                           ;MCAL_Layer/USART/hal_usart.c: 83:     (PIE1bits.TXIE = 0);
  5266   0025AC  989D               	bcf	157,4,c	;volatile
  5267   0025AE                     
  5268                           ;MCAL_Layer/USART/hal_usart.c: 85:     if (EUSART_TXInterruptHandler){
  5269   0025AE  0100               	movlb	0	; () banked
  5270   0025B0  517F               	movf	_EUSART_TXInterruptHandler& (0+255),w,b
  5271   0025B2  1180               	iorwf	(_EUSART_TXInterruptHandler+1)& (0+255),w,b
  5272   0025B4  B4D8               	btfsc	status,2,c
  5273   0025B6  EFDF  F012         	goto	i2u488_41
  5274   0025BA  EFE1  F012         	goto	i2u488_40
  5275   0025BE                     i2u488_41:
  5276   0025BE  EFED  F012         	goto	i2l1327
  5277   0025C2                     i2u488_40:
  5278   0025C2                     
  5279                           ; BSR set to: 0
  5280                           ;MCAL_Layer/USART/hal_usart.c: 86:         EUSART_TXInterruptHandler();
  5281   0025C2  D802               	call	i2u489_48
  5282   0025C4  EFED  F012         	goto	i2u489_49
  5283   0025C8                     i2u489_48:
  5284   0025C8  0005               	push	
  5285   0025CA  6EFA               	movwf	pclath,c
  5286   0025CC  517F               	movf	_EUSART_TXInterruptHandler& (0+255),w,b
  5287   0025CE  6EFD               	movwf	tosl,c
  5288   0025D0  5180               	movf	(_EUSART_TXInterruptHandler+1)& (0+255),w,b
  5289   0025D2  6EFE               	movwf	tosh,c
  5290   0025D4  6AFF               	clrf	tosu,c
  5291   0025D6  50FA               	movf	pclath,w,c
  5292   0025D8  0012               	return		;indir
  5293   0025DA                     i2u489_49:
  5294   0025DA                     i2l1327:
  5295   0025DA  0012               	return		;funcret
  5296   0025DC                     __end_of_EUSART_TX_ISR:
  5297                           	callstack 0
  5298                           
  5299 ;; *************** function _EUSART_TxDefaultInterruptHandler *****************
  5300 ;; Defined at:
  5301 ;;		line 93 in file "application.c"
  5302 ;; Parameters:    Size  Location     Type
  5303 ;;		None
  5304 ;; Auto vars:     Size  Location     Type
  5305 ;;		None
  5306 ;; Return value:  Size  Location     Type
  5307 ;;                  1    wreg      void 
  5308 ;; Registers used:
  5309 ;;		wreg, status,2, status,0
  5310 ;; Tracked objects:
  5311 ;;		On entry : 0/0
  5312 ;;		On exit  : 0/0
  5313 ;;		Unchanged: 0/0
  5314 ;; Data sizes:     COMRAM   BANK0   BANK1   BANK2   BANK3   BANK4   BANK5   BANK6   BANK7   BANK8   BANK9  BANK10  BANK1
      +1  BANK12  BANK13  BANK14  BANK15
  5315 ;;      Params:         0       0       0       0       0       0       0       0       0       0       0       0       
      +0       0       0       0       0
  5316 ;;      Locals:         0       0       0       0       0       0       0       0       0       0       0       0       
      +0       0       0       0       0
  5317 ;;      Temps:          0       0       0       0       0       0       0       0       0       0       0       0       
      +0       0       0       0       0
  5318 ;;      Totals:         0       0       0       0       0       0       0       0       0       0       0       0       
      +0       0       0       0       0
  5319 ;;Total ram usage:        0 bytes
  5320 ;; Hardware stack levels used: 1
  5321 ;; This function calls:
  5322 ;;		Nothing
  5323 ;; This function is called by:
  5324 ;;		_usart_module_int_init
  5325 ;;		_EUSART_TX_ISR
  5326 ;; This function uses a non-reentrant model
  5327 ;;
  5328                           
  5329                           	psect	text29
  5330   0026A0                     __ptext29:
  5331                           	callstack 0
  5332   0026A0                     _EUSART_TxDefaultInterruptHandler:
  5333                           	callstack 24
  5334   0026A0                     
  5335                           ;application.c: 95:     valid_usart_counter++;
  5336   0026A0  0E01               	movlw	1
  5337   0026A2  0100               	movlb	0	; () banked
  5338   0026A4  2771               	addwf	_valid_usart_counter& (0+255),f,b	;volatile
  5339   0026A6  0E00               	movlw	0
  5340   0026A8  2372               	addwfc	(_valid_usart_counter+1)& (0+255),f,b	;volatile
  5341   0026AA  2373               	addwfc	(_valid_usart_counter+2)& (0+255),f,b	;volatile
  5342   0026AC  2374               	addwfc	(_valid_usart_counter+3)& (0+255),f,b	;volatile
  5343   0026AE                     
  5344                           ; BSR set to: 0
  5345   0026AE  0012               	return		;funcret
  5346   0026B0                     __end_of_EUSART_TxDefaultInterruptHandler:
  5347                           	callstack 0
  5348                           
  5349 ;; *************** function _EUSART_RX_ISR *****************
  5350 ;; Defined at:
  5351 ;;		line 90 in file "MCAL_Layer/USART/hal_usart.c"
  5352 ;; Parameters:    Size  Location     Type
  5353 ;;		None
  5354 ;; Auto vars:     Size  Location     Type
  5355 ;;		None
  5356 ;; Return value:  Size  Location     Type
  5357 ;;                  1    wreg      void 
  5358 ;; Registers used:
  5359 ;;		wreg, status,2, status,0
  5360 ;; Tracked objects:
  5361 ;;		On entry : 0/0
  5362 ;;		On exit  : 0/0
  5363 ;;		Unchanged: 0/0
  5364 ;; Data sizes:     COMRAM   BANK0   BANK1   BANK2   BANK3   BANK4   BANK5   BANK6   BANK7   BANK8   BANK9  BANK10  BANK1
      +1  BANK12  BANK13  BANK14  BANK15
  5365 ;;      Params:         0       0       0       0       0       0       0       0       0       0       0       0       
      +0       0       0       0       0
  5366 ;;      Locals:         0       0       0       0       0       0       0       0       0       0       0       0       
      +0       0       0       0       0
  5367 ;;      Temps:          0       0       0       0       0       0       0       0       0       0       0       0       
      +0       0       0       0       0
  5368 ;;      Totals:         0       0       0       0       0       0       0       0       0       0       0       0       
      +0       0       0       0       0
  5369 ;;Total ram usage:        0 bytes
  5370 ;; Hardware stack levels used: 1
  5371 ;; This function calls:
  5372 ;;		Nothing
  5373 ;; This function is called by:
  5374 ;;		_InterruptManager
  5375 ;; This function uses a non-reentrant model
  5376 ;;
  5377                           
  5378                           	psect	text30
  5379   0026FE                     __ptext30:
  5380                           	callstack 0
  5381   0026FE                     _EUSART_RX_ISR:
  5382                           	callstack 25
  5383   0026FE  0012               	return		;funcret
  5384   002700                     __end_of_EUSART_RX_ISR:
  5385                           	callstack 0
  5386                           
  5387 ;; *************** function _CCP2_ISR *****************
  5388 ;; Defined at:
  5389 ;;		line 114 in file "MCAL_Layer/CCP/hal_ccp.c"
  5390 ;; Parameters:    Size  Location     Type
  5391 ;;		None
  5392 ;; Auto vars:     Size  Location     Type
  5393 ;;		None
  5394 ;; Return value:  Size  Location     Type
  5395 ;;                  1    wreg      void 
  5396 ;; Registers used:
  5397 ;;		None
  5398 ;; Tracked objects:
  5399 ;;		On entry : 0/0
  5400 ;;		On exit  : 0/0
  5401 ;;		Unchanged: 0/0
  5402 ;; Data sizes:     COMRAM   BANK0   BANK1   BANK2   BANK3   BANK4   BANK5   BANK6   BANK7   BANK8   BANK9  BANK10  BANK1
      +1  BANK12  BANK13  BANK14  BANK15
  5403 ;;      Params:         0       0       0       0       0       0       0       0       0       0       0       0       
      +0       0       0       0       0
  5404 ;;      Locals:         0       0       0       0       0       0       0       0       0       0       0       0       
      +0       0       0       0       0
  5405 ;;      Temps:          0       0       0       0       0       0       0       0       0       0       0       0       
      +0       0       0       0       0
  5406 ;;      Totals:         0       0       0       0       0       0       0       0       0       0       0       0       
      +0       0       0       0       0
  5407 ;;Total ram usage:        0 bytes
  5408 ;; Hardware stack levels used: 1
  5409 ;; This function calls:
  5410 ;;		Nothing
  5411 ;; This function is called by:
  5412 ;;		_InterruptManager
  5413 ;; This function uses a non-reentrant model
  5414 ;;
  5415                           
  5416                           	psect	text31
  5417   0026F2                     __ptext31:
  5418                           	callstack 0
  5419   0026F2                     _CCP2_ISR:
  5420                           	callstack 25
  5421   0026F2                     
  5422                           ;MCAL_Layer/CCP/hal_ccp.c: 115:     (PIR1bits.CCP1IF = 0);
  5423   0026F2  949E               	bcf	158,2,c	;volatile
  5424   0026F4  0012               	return		;funcret
  5425   0026F6                     __end_of_CCP2_ISR:
  5426                           	callstack 0
  5427                           
  5428 ;; *************** function _CCP1_ISR *****************
  5429 ;; Defined at:
  5430 ;;		line 105 in file "MCAL_Layer/CCP/hal_ccp.c"
  5431 ;; Parameters:    Size  Location     Type
  5432 ;;		None
  5433 ;; Auto vars:     Size  Location     Type
  5434 ;;		None
  5435 ;; Return value:  Size  Location     Type
  5436 ;;                  1    wreg      void 
  5437 ;; Registers used:
  5438 ;;		None
  5439 ;; Tracked objects:
  5440 ;;		On entry : 0/0
  5441 ;;		On exit  : 0/0
  5442 ;;		Unchanged: 0/0
  5443 ;; Data sizes:     COMRAM   BANK0   BANK1   BANK2   BANK3   BANK4   BANK5   BANK6   BANK7   BANK8   BANK9  BANK10  BANK1
      +1  BANK12  BANK13  BANK14  BANK15
  5444 ;;      Params:         0       0       0       0       0       0       0       0       0       0       0       0       
      +0       0       0       0       0
  5445 ;;      Locals:         0       0       0       0       0       0       0       0       0       0       0       0       
      +0       0       0       0       0
  5446 ;;      Temps:          0       0       0       0       0       0       0       0       0       0       0       0       
      +0       0       0       0       0
  5447 ;;      Totals:         0       0       0       0       0       0       0       0       0       0       0       0       
      +0       0       0       0       0
  5448 ;;Total ram usage:        0 bytes
  5449 ;; Hardware stack levels used: 1
  5450 ;; This function calls:
  5451 ;;		Nothing
  5452 ;; This function is called by:
  5453 ;;		_InterruptManager
  5454 ;; This function uses a non-reentrant model
  5455 ;;
  5456                           
  5457                           	psect	text32
  5458   0026F6                     __ptext32:
  5459                           	callstack 0
  5460   0026F6                     _CCP1_ISR:
  5461                           	callstack 25
  5462   0026F6                     
  5463                           ;MCAL_Layer/CCP/hal_ccp.c: 106:     (PIR1bits.CCP1IF = 0);
  5464   0026F6  949E               	bcf	158,2,c	;volatile
  5465   0026F8  0012               	return		;funcret
  5466   0026FA                     __end_of_CCP1_ISR:
  5467                           	callstack 0
  5468                           
  5469 ;; *************** function _ADC_ISR *****************
  5470 ;; Defined at:
  5471 ;;		line 326 in file "MCAL_Layer/ADC/hal_adc.c"
  5472 ;; Parameters:    Size  Location     Type
  5473 ;;		None
  5474 ;; Auto vars:     Size  Location     Type
  5475 ;;		None
  5476 ;; Return value:  Size  Location     Type
  5477 ;;                  1    wreg      void 
  5478 ;; Registers used:
  5479 ;;		None
  5480 ;; Tracked objects:
  5481 ;;		On entry : 0/0
  5482 ;;		On exit  : 0/0
  5483 ;;		Unchanged: 0/0
  5484 ;; Data sizes:     COMRAM   BANK0   BANK1   BANK2   BANK3   BANK4   BANK5   BANK6   BANK7   BANK8   BANK9  BANK10  BANK1
      +1  BANK12  BANK13  BANK14  BANK15
  5485 ;;      Params:         0       0       0       0       0       0       0       0       0       0       0       0       
      +0       0       0       0       0
  5486 ;;      Locals:         0       0       0       0       0       0       0       0       0       0       0       0       
      +0       0       0       0       0
  5487 ;;      Temps:          0       0       0       0       0       0       0       0       0       0       0       0       
      +0       0       0       0       0
  5488 ;;      Totals:         0       0       0       0       0       0       0       0       0       0       0       0       
      +0       0       0       0       0
  5489 ;;Total ram usage:        0 bytes
  5490 ;; Hardware stack levels used: 1
  5491 ;; This function calls:
  5492 ;;		Nothing
  5493 ;; This function is called by:
  5494 ;;		_InterruptManager
  5495 ;; This function uses a non-reentrant model
  5496 ;;
  5497                           
  5498                           	psect	text33
  5499   0026FA                     __ptext33:
  5500                           	callstack 0
  5501   0026FA                     _ADC_ISR:
  5502                           	callstack 25
  5503   0026FA                     
  5504                           ;MCAL_Layer/ADC/hal_adc.c: 327:     (PIR1bits.ADIF = 0);
  5505   0026FA  9C9E               	bcf	158,6,c	;volatile
  5506   0026FC  0012               	return		;funcret
  5507   0026FE                     __end_of_ADC_ISR:
  5508                           	callstack 0
  5509                           
  5510                           	psect	rparam
  5511   000000                     
  5512                           	psect	temp
  5513   00004D                     btemp:
  5514                           	callstack 0
  5515   00004D                     	ds	1
  5516   000000                     int$flags	set	btemp
  5517   000000                     wtemp8	set	btemp+1
  5518   000000                     ttemp5	set	btemp+1
  5519   000000                     ttemp6	set	btemp+4
  5520   000000                     ttemp7	set	btemp+8
  5521                           
  5522                           	psect	config
  5523                           
  5524                           ; Padding undefined space
  5525   300000                     	org	3145728
  5526   300000  FF                 	db	255
  5527                           
  5528                           ;Config register CONFIG1H @ 0x300001
  5529                           ;	Oscillator Selection bits
  5530                           ;	FOSC = RCIO6, External RC oscillator, port function on RA6
  5531                           ;	Fail-Safe Clock Monitor Enable bit
  5532                           ;	FCMEN = OFF, Fail-Safe Clock Monitor disabled
  5533                           ;	Internal/External Oscillator Switchover bit
  5534                           ;	IESO = OFF, Oscillator Switchover mode disabled
  5535   300001                     	org	3145729
  5536   300001  07                 	db	7
  5537                           
  5538                           ;Config register CONFIG2L @ 0x300002
  5539                           ;	Power-up Timer Enable bit
  5540                           ;	PWRTEN = OFF, PWRT disabled
  5541                           ;	Brown-out Reset Enable bits
  5542                           ;	BOREN = SBORDIS, Brown-out Reset enabled in hardware only (SBOREN is disabled)
  5543                           ;	Brown Out Reset Voltage bits
  5544                           ;	BORV = 18, VBOR set to 1.8 V nominal
  5545   300002                     	org	3145730
  5546   300002  1F                 	db	31
  5547                           
  5548                           ;Config register CONFIG2H @ 0x300003
  5549                           ;	Watchdog Timer Enable bit
  5550                           ;	WDTEN = ON, WDT is always enabled. SWDTEN bit has no effect
  5551                           ;	Watchdog Timer Postscale Select bits
  5552                           ;	WDTPS = 32768, 1:32768
  5553   300003                     	org	3145731
  5554   300003  1F                 	db	31
  5555                           
  5556                           ; Padding undefined space
  5557   300004                     	org	3145732
  5558   300004  FF                 	db	255
  5559                           
  5560                           ;Config register CONFIG3H @ 0x300005
  5561                           ;	CCP2 MUX bit
  5562                           ;	CCP2MX = PORTC, CCP2 input/output is multiplexed with RC1
  5563                           ;	PORTB A/D Enable bit
  5564                           ;	PBADEN = OFF, PORTB<4:0> pins are configured as digital I/O on Reset
  5565                           ;	Low-Power Timer1 Oscillator Enable bit
  5566                           ;	LPT1OSC = OFF, Timer1 configured for higher power operation
  5567                           ;	HFINTOSC Fast Start-up
  5568                           ;	HFOFST = ON, HFINTOSC starts clocking the CPU without waiting for the oscillator to st
      +                          ablize.
  5569                           ;	MCLR Pin Enable bit
  5570                           ;	MCLRE = ON, MCLR pin enabled; RE3 input pin disabled
  5571   300005                     	org	3145733
  5572   300005  89                 	db	137
  5573                           
  5574                           ;Config register CONFIG4L @ 0x300006
  5575                           ;	Stack Full/Underflow Reset Enable bit
  5576                           ;	STVREN = ON, Stack full/underflow will cause Reset
  5577                           ;	Single-Supply ICSP Enable bit
  5578                           ;	LVP = ON, Single-Supply ICSP enabled
  5579                           ;	Extended Instruction Set Enable bit
  5580                           ;	XINST = OFF, Instruction set extension and Indexed Addressing mode disabled (Legacy mo
      +                          de)
  5581                           ;	Background Debugger Enable bit
  5582                           ;	DEBUG = 0x1, unprogrammed default
  5583   300006                     	org	3145734
  5584   300006  85                 	db	133
  5585                           
  5586                           ; Padding undefined space
  5587   300007                     	org	3145735
  5588   300007  FF                 	db	255
  5589                           
  5590                           ;Config register CONFIG5L @ 0x300008
  5591                           ;	Code Protection Block 0
  5592                           ;	CP0 = OFF, Block 0 (000800-003FFFh) not code-protected
  5593                           ;	Code Protection Block 1
  5594                           ;	CP1 = OFF, Block 1 (004000-007FFFh) not code-protected
  5595                           ;	Code Protection Block 2
  5596                           ;	CP2 = OFF, Block 2 (008000-00BFFFh) not code-protected
  5597                           ;	Code Protection Block 3
  5598                           ;	CP3 = OFF, Block 3 (00C000-00FFFFh) not code-protected
  5599   300008                     	org	3145736
  5600   300008  0F                 	db	15
  5601                           
  5602                           ;Config register CONFIG5H @ 0x300009
  5603                           ;	Boot Block Code Protection bit
  5604                           ;	CPB = OFF, Boot block (000000-0007FFh) not code-protected
  5605                           ;	Data EEPROM Code Protection bit
  5606                           ;	CPD = OFF, Data EEPROM not code-protected
  5607   300009                     	org	3145737
  5608   300009  C0                 	db	192
  5609                           
  5610                           ;Config register CONFIG6L @ 0x30000A
  5611                           ;	Write Protection Block 0
  5612                           ;	WRT0 = OFF, Block 0 (000800-003FFFh) not write-protected
  5613                           ;	Write Protection Block 1
  5614                           ;	WRT1 = OFF, Block 1 (004000-007FFFh) not write-protected
  5615                           ;	Write Protection Block 2
  5616                           ;	WRT2 = OFF, Block 2 (008000-00BFFFh) not write-protected
  5617                           ;	Write Protection Block 3
  5618                           ;	WRT3 = OFF, Block 3 (00C000h-00FFFFh) not write-protected
  5619   30000A                     	org	3145738
  5620   30000A  0F                 	db	15
  5621                           
  5622                           ;Config register CONFIG6H @ 0x30000B
  5623                           ;	Configuration Register Write Protection bit
  5624                           ;	WRTC = OFF, Configuration registers (300000-3000FFh) not write-protected
  5625                           ;	Boot Block Write Protection bit
  5626                           ;	WRTB = OFF, Boot Block (000000-0007FFh) not write-protected
  5627                           ;	Data EEPROM Write Protection bit
  5628                           ;	WRTD = OFF, Data EEPROM not write-protected
  5629   30000B                     	org	3145739
  5630   30000B  E0                 	db	224
  5631                           
  5632                           ;Config register CONFIG7L @ 0x30000C
  5633                           ;	Table Read Protection Block 0
  5634                           ;	EBTR0 = OFF, Block 0 (000800-003FFFh) not protected from table reads executed in other
      +                           blocks
  5635                           ;	Table Read Protection Block 1
  5636                           ;	EBTR1 = OFF, Block 1 (004000-007FFFh) not protected from table reads executed in other
      +                           blocks
  5637                           ;	Table Read Protection Block 2
  5638                           ;	EBTR2 = OFF, Block 2 (008000-00BFFFh) not protected from table reads executed in other
      +                           blocks
  5639                           ;	Table Read Protection Block 3
  5640                           ;	EBTR3 = OFF, Block 3 (00C000-00FFFFh) not protected from table reads executed in other
      +                           blocks
  5641   30000C                     	org	3145740
  5642   30000C  0F                 	db	15
  5643                           
  5644                           ;Config register CONFIG7H @ 0x30000D
  5645                           ;	Boot Block Table Read Protection bit
  5646                           ;	EBTRB = OFF, Boot Block (000000-0007FFh) not protected from table reads executed in ot
      +                          her blocks
  5647   30000D                     	org	3145741
  5648   30000D  40                 	db	64
  5649                           tosu	equ	0xFFF
  5650                           tosh	equ	0xFFE
  5651                           tosl	equ	0xFFD
  5652                           stkptr	equ	0xFFC
  5653                           pclatu	equ	0xFFB
  5654                           pclath	equ	0xFFA
  5655                           pcl	equ	0xFF9
  5656                           tblptru	equ	0xFF8
  5657                           tblptrh	equ	0xFF7
  5658                           tblptrl	equ	0xFF6
  5659                           tablat	equ	0xFF5
  5660                           prodh	equ	0xFF4
  5661                           prodl	equ	0xFF3
  5662                           indf0	equ	0xFEF
  5663                           postinc0	equ	0xFEE
  5664                           postdec0	equ	0xFED
  5665                           preinc0	equ	0xFEC
  5666                           plusw0	equ	0xFEB
  5667                           fsr0h	equ	0xFEA
  5668                           fsr0l	equ	0xFE9
  5669                           wreg	equ	0xFE8
  5670                           indf1	equ	0xFE7
  5671                           postinc1	equ	0xFE6
  5672                           postdec1	equ	0xFE5
  5673                           preinc1	equ	0xFE4
  5674                           plusw1	equ	0xFE3
  5675                           fsr1h	equ	0xFE2
  5676                           fsr1l	equ	0xFE1
  5677                           bsr	equ	0xFE0
  5678                           indf2	equ	0xFDF
  5679                           postinc2	equ	0xFDE
  5680                           postdec2	equ	0xFDD
  5681                           preinc2	equ	0xFDC
  5682                           plusw2	equ	0xFDB
  5683                           fsr2h	equ	0xFDA
  5684                           fsr2l	equ	0xFD9
  5685                           status	equ	0xFD8

Data Sizes:
    Strings     10
    Constant    16
    Data        35
    BSS         87
    Persistent  0
    Stack       0

Auto Spaces:
    Space          Size  Autos    Used
    COMRAM           94     71      76
    BANK0           160     18     135
    BANK1           256      0       0
    BANK2           256      0       0
    BANK3           256      0       0
    BANK4           256      0       0
    BANK5           256      0       0
    BANK6           256      0       0
    BANK7           256      0       0
    BANK8           256      0       0
    BANK9           256      0       0
    BANK10          256      0       0
    BANK11          256      0       0
    BANK12          256      0       0
    BANK13          256      0       0
    BANK14          256      0       0
    BANK15           96      0       0

Pointer List with Targets:

    ADC_GetConversionResult@_adc$ADC_InterruptHandler	PTR FTN()void  size(2) Largest target is 0

    ADC_Init@_adc$ADC_InterruptHandler	PTR FTN()void  size(2) Largest target is 0

    ADC_InterruptHandler	PTR FTN()void  size(2) Largest target is 1
		 -> NULL(), 

    CCP1_InterruptHandler	PTR FTN()void  size(2) Largest target is 1
		 -> NULL(), 

    CCP2_InterruptHandler	PTR FTN()void  size(2) Largest target is 1
		 -> NULL(), 

    CCP_Compare_Mode_Set_Value@_ccp_obj$CCP1_InterruptHandler	PTR FTN()void  size(2) Largest target is 0

    CCP_Compare_Mode_Set_Value@_ccp_obj$CCP2_InterruptHandler	PTR FTN()void  size(2) Largest target is 0

    CCP_DeInit@_ccp_obj$CCP1_InterruptHandler	PTR FTN()void  size(2) Largest target is 0

    CCP_DeInit@_ccp_obj$CCP2_InterruptHandler	PTR FTN()void  size(2) Largest target is 0

    CCP_Init@_ccp_obj$CCP1_InterruptHandler	PTR FTN()void  size(2) Largest target is 0

    CCP_Init@_ccp_obj$CCP2_InterruptHandler	PTR FTN()void  size(2) Largest target is 0

    CCP_Interrupt_Config@_ccp_obj$CCP1_InterruptHandler	PTR FTN()void  size(2) Largest target is 0

    CCP_Interrupt_Config@_ccp_obj$CCP2_InterruptHandler	PTR FTN()void  size(2) Largest target is 0

    CCP_Mode_Timer_Select@_ccp_obj$CCP1_InterruptHandler	PTR FTN()void  size(2) Largest target is 0

    CCP_Mode_Timer_Select@_ccp_obj$CCP2_InterruptHandler	PTR FTN()void  size(2) Largest target is 0

    configure_voltage_reference@_adc$ADC_InterruptHandler	PTR FTN()void  size(2) Largest target is 0

    EUSART_ASYN_Init@_eusart	PTR const struct . size(1) Largest target is 18
		 -> usart_module_init@usart_obj(COMRAM[18]), usart_module_int_init@usart_obj(BANK0[18]), 

    EUSART_ASYN_RX_Init@_eusart	PTR const struct . size(1) Largest target is 18
		 -> usart_module_init@usart_obj(COMRAM[18]), usart_module_int_init@usart_obj(BANK0[18]), 

    EUSART_ASYN_RX_Init@_eusart$EUSART_FramingErrorHandler	PTR FTN()void  size(2) Largest target is 0
		 -> NULL(NULL[0]), 

    EUSART_ASYN_RX_Init@_eusart$EUSART_OverrunErrorHandler	PTR FTN()void  size(2) Largest target is 0
		 -> NULL(NULL[0]), 

    EUSART_ASYN_RX_Init@_eusart$EUSART_RxDefaultInterruptHandler	PTR FTN()void  size(2) Largest target is 0
		 -> NULL(NULL[0]), 

    EUSART_ASYN_RX_Init@_eusart$EUSART_TxDefaultInterruptHandler	PTR FTN()void  size(2) Largest target is 1
		 -> EUSART_TxDefaultInterruptHandler(), NULL(NULL[0]), 

    EUSART_ASYN_TX_Init@_eusart	PTR const struct . size(1) Largest target is 18
		 -> usart_module_init@usart_obj(COMRAM[18]), usart_module_int_init@usart_obj(BANK0[18]), 

    EUSART_ASYN_TX_Init@_eusart$EUSART_FramingErrorHandler	PTR FTN()void  size(2) Largest target is 0
		 -> NULL(NULL[0]), 

    EUSART_ASYN_TX_Init@_eusart$EUSART_OverrunErrorHandler	PTR FTN()void  size(2) Largest target is 0
		 -> NULL(NULL[0]), 

    EUSART_ASYN_TX_Init@_eusart$EUSART_RxDefaultInterruptHandler	PTR FTN()void  size(2) Largest target is 0
		 -> NULL(NULL[0]), 

    EUSART_ASYN_TX_Init@_eusart$EUSART_TxDefaultInterruptHandler	PTR FTN()void  size(2) Largest target is 1
		 -> EUSART_TxDefaultInterruptHandler(), NULL(NULL[0]), 

    EUSART_ASYN_WriteStringBlocking@_data	PTR unsigned char  size(1) Largest target is 7
		 -> STR_4(CODE[7]), 

    EUSART_Baud_Rate_Calculations@_eusart	PTR const struct . size(1) Largest target is 18
		 -> usart_module_init@usart_obj(COMRAM[18]), usart_module_int_init@usart_obj(BANK0[18]), 

    EUSART_Baud_Rate_Calculations@_eusart$EUSART_FramingErrorHandler	PTR FTN()void  size(2) Largest target is 0
		 -> NULL(NULL[0]), 

    EUSART_Baud_Rate_Calculations@_eusart$EUSART_OverrunErrorHandler	PTR FTN()void  size(2) Largest target is 0
		 -> NULL(NULL[0]), 

    EUSART_Baud_Rate_Calculations@_eusart$EUSART_RxDefaultInterruptHandler	PTR FTN()void  size(2) Largest target is 0
		 -> NULL(NULL[0]), 

    EUSART_Baud_Rate_Calculations@_eusart$EUSART_TxDefaultInterruptHandler	PTR FTN()void  size(2) Largest target is 1
		 -> EUSART_TxDefaultInterruptHandler(), NULL(NULL[0]), 

    EUSART_FramingErrorHandler	PTR FTN()void  size(2) Largest target is 1
		 -> NULL(), NULL(NULL[0]), 

    EUSART_OverrunErrorHandler	PTR FTN()void  size(2) Largest target is 1
		 -> NULL(), NULL(NULL[0]), 

    EUSART_RXInterruptHandler	PTR FTN()void  size(2) Largest target is 1
		 -> NULL(), NULL(NULL[0]), 

    EUSART_TXInterruptHandler	PTR FTN()void  size(2) Largest target is 1
		 -> EUSART_TxDefaultInterruptHandler(), NULL(), NULL(NULL[0]), 

    f$.$buffer	PTR unsigned char  size(2) Largest target is 0

    f$.$source	PTR const unsigned char  size(2) Largest target is 0

    gpio_pin_direction_intialize@_pin_config	PTR const struct . size(1) Largest target is 1
		 -> led_initialize@pin_obj(COMRAM[1]), relay_initialize@pin_obj(COMRAM[1]), 

    gpio_pin_intialize@_pin_config	PTR const struct . size(1) Largest target is 1
		 -> led_initialize@pin_obj(COMRAM[1]), relay_initialize@pin_obj(COMRAM[1]), 

    gpio_pin_write_logic@_pin_config	PTR const struct . size(1) Largest target is 1
		 -> led_initialize@pin_obj(COMRAM[1]), led_turn_off@pin_obj(COMRAM[1]), led_turn_on@pin_obj(COMRAM[1]), relay_initialize@pin_obj(COMRAM[1]), 
		 -> relay_turn_off@pin_obj(COMRAM[1]), relay_turn_on@pin_obj(COMRAM[1]), 

    INT0_InterruptHandler	PTR FTN()void  size(2) Largest target is 1
		 -> NULL(), 

    INT1_InterruptHandler	PTR FTN()void  size(2) Largest target is 1
		 -> NULL(), 

    INT2_InterruptHandler	PTR FTN()void  size(2) Largest target is 1
		 -> NULL(), 

    Interrupt_INTx_Clear_Flag@int_obj$EXT_InterruptHandler	PTR FTN()void  size(2) Largest target is 0

    Interrupt_INTx_Disable@int_obj$EXT_InterruptHandler	PTR FTN()void  size(2) Largest target is 0

    Interrupt_INTx_Edge_Init@int_obj$EXT_InterruptHandler	PTR FTN()void  size(2) Largest target is 0

    Interrupt_INTx_Enable@int_obj$EXT_InterruptHandler	PTR FTN()void  size(2) Largest target is 0

    Interrupt_INTx_Pin_Init@int_obj$EXT_InterruptHandler	PTR FTN()void  size(2) Largest target is 0

    Interrupt_INTx_SetInterruptHandler@int_obj$EXT_InterruptHandler	PTR FTN()void  size(2) Largest target is 0

    Interrupt_RBx_Init@int_obj$EXT_InterruptHandler_HIGH	PTR FTN()void  size(2) Largest target is 0

    Interrupt_RBx_Init@int_obj$EXT_InterruptHandler_LOW	PTR FTN()void  size(2) Largest target is 0

    lat_registers	PTR volatile unsigned char [5] size(2) Largest target is 1
		 -> LATA(BITBIGSFRllllll[1]), LATB(BITBIGSFRllllh[1]), LATC(BITBIGSFRllllh[1]), LATD(BITBIGSFRllllh[1]), 
		 -> LATE(BITBIGSFRllllh[1]), 

    led_initialize@led	PTR const struct . size(1) Largest target is 1
		 -> led_1(BANK0[1]), 

    port_registers	PTR volatile unsigned char [5] size(2) Largest target is 1
		 -> PORTA(BITBIGSFRllllll[1]), PORTB(BITBIGSFRlllllh[1]), PORTC(BITBIGSFRlllllh[1]), PORTD(BITBIGSFRlllllh[1]), 
		 -> PORTE(BITBIGSFRlllllh[1]), 

    RB4_InterruptHandler_HIGH	PTR FTN()void  size(2) Largest target is 1
		 -> NULL(), 

    RB4_InterruptHandler_LOW	PTR FTN()void  size(2) Largest target is 1
		 -> NULL(), 

    RB5_InterruptHandler_HIGH	PTR FTN()void  size(2) Largest target is 1
		 -> NULL(), 

    RB5_InterruptHandler_LOW	PTR FTN()void  size(2) Largest target is 1
		 -> NULL(), 

    RB6_InterruptHandler_HIGH	PTR FTN()void  size(2) Largest target is 1
		 -> NULL(), 

    RB6_InterruptHandler_LOW	PTR FTN()void  size(2) Largest target is 1
		 -> NULL(), 

    RB7_InterruptHandler_HIGH	PTR FTN()void  size(2) Largest target is 1
		 -> NULL(), 

    RB7_InterruptHandler_LOW	PTR FTN()void  size(2) Largest target is 1
		 -> NULL(), 

    S1073$CCP1_InterruptHandler	PTR FTN()void  size(2) Largest target is 0

    S1073$CCP2_InterruptHandler	PTR FTN()void  size(2) Largest target is 0

    S2028$EXT_InterruptHandler	PTR FTN()void  size(2) Largest target is 0

    S2126$EXT_InterruptHandler_HIGH	PTR FTN()void  size(2) Largest target is 0

    S2126$EXT_InterruptHandler_LOW	PTR FTN()void  size(2) Largest target is 0

    S2345$TMR0_InterruptHandler	PTR FTN()void  size(2) Largest target is 0

    S2506$TMR1_InterruptHandler	PTR FTN()void  size(2) Largest target is 0

    S2695$TMR2_InterruptHandler	PTR FTN()void  size(2) Largest target is 0

    S2826$TMR3_InterruptHandler	PTR FTN()void  size(2) Largest target is 0

    S3028$EUSART_FramingErrorHandler	PTR FTN()void  size(2) Largest target is 0
		 -> NULL(NULL[0]), 

    S3028$EUSART_OverrunErrorHandler	PTR FTN()void  size(2) Largest target is 0
		 -> NULL(NULL[0]), 

    S3028$EUSART_RxDefaultInterruptHandler	PTR FTN()void  size(2) Largest target is 0
		 -> NULL(NULL[0]), 

    S3028$EUSART_TxDefaultInterruptHandler	PTR FTN()void  size(2) Largest target is 1
		 -> EUSART_TxDefaultInterruptHandler(), NULL(NULL[0]), 

    S4051$buffer	PTR unsigned char  size(2) Largest target is 0

    S4051$source	PTR const unsigned char  size(2) Largest target is 0

    S665$ADC_InterruptHandler	PTR FTN()void  size(2) Largest target is 0

    select_result_format@_adc$ADC_InterruptHandler	PTR FTN()void  size(2) Largest target is 0

    sp__memset	PTR void  size(2) Largest target is 0

    Timer0_Init@_timer$TMR0_InterruptHandler	PTR FTN()void  size(2) Largest target is 0

    Timer0_Mode_Select@_timer$TMR0_InterruptHandler	PTR FTN()void  size(2) Largest target is 0

    timer0_prescaler_config@_timer$TMR0_InterruptHandler	PTR FTN()void  size(2) Largest target is 0

    Timer0_Register_Size_Config@_timer$TMR0_InterruptHandler	PTR FTN()void  size(2) Largest target is 0

    Timer1_Init@_timer$TMR1_InterruptHandler	PTR FTN()void  size(2) Largest target is 0

    Timer1_Mode_Select@_timer$TMR1_InterruptHandler	PTR FTN()void  size(2) Largest target is 0

    Timer2_Init@_timer$TMR2_InterruptHandler	PTR FTN()void  size(2) Largest target is 0

    Timer3_Init@_timer$TMR3_InterruptHandler	PTR FTN()void  size(2) Largest target is 0

    Timer3_Mode_Select@_timer$TMR3_InterruptHandler	PTR FTN()void  size(2) Largest target is 0

    TMR0_InterruptHandler	PTR FTN()void  size(2) Largest target is 1
		 -> NULL(), 

    TMR1_InterruptHandler	PTR FTN()void  size(2) Largest target is 1
		 -> NULL(), 

    TMR2_InterruptHandler	PTR FTN()void  size(2) Largest target is 1
		 -> NULL(), 

    TMR3_InterruptHandler	PTR FTN()void  size(2) Largest target is 1
		 -> NULL(), 

    tris_registers	PTR volatile unsigned char [5] size(2) Largest target is 1
		 -> TRISA(BITBIGSFRllllll[1]), TRISB(ABS[1]), TRISC(ABS[1]), TRISD(ABS[1]), 
		 -> TRISE(ABS[1]), 

    usart_obj$EUSART_FramingErrorHandler	PTR FTN()void  size(2) Largest target is 0
		 -> NULL(NULL[0]), 

    usart_obj$EUSART_OverrunErrorHandler	PTR FTN()void  size(2) Largest target is 0
		 -> NULL(NULL[0]), 

    usart_obj$EUSART_RxDefaultInterruptHandler	PTR FTN()void  size(2) Largest target is 0
		 -> NULL(NULL[0]), 

    usart_obj$EUSART_TxDefaultInterruptHandler	PTR FTN()void  size(2) Largest target is 1
		 -> EUSART_TxDefaultInterruptHandler(), NULL(NULL[0]), 

    vfprintf$0	PTR struct _IO_FILE size(1) Largest target is 12
		 -> sprintf@f(COMRAM[12]), 

    vfprintf$1	PTR const unsigned char  size(1) Largest target is 3
		 -> STR_1(CODE[3]), STR_2(CODE[3]), STR_3(CODE[3]), 

    vfprintf$2	PTR PTR void  size(1) Largest target is 1
		 -> sprintf@ap(COMRAM[1]), 


Critical Paths under _main in COMRAM

    _usart_module_int_init->_EUSART_ASYN_Init
    _EUSART_ASYN_Init->_EUSART_Baud_Rate_Calculations
    _EUSART_Baud_Rate_Calculations->___fladd
    ___fldiv->___xxtofl
    ___fladd->___fldiv
    _led_initialize->_gpio_pin_intialize
    _gpio_pin_intialize->_gpio_pin_write_logic
    _EUSART_ASYN_WriteStringBlocking->_EUSART_ASYN_WriteByteBlocking

Critical Paths under _InterruptManager in COMRAM

    _InterruptManager->_RB4_ISR
    _InterruptManager->_RB5_ISR
    _InterruptManager->_RB6_ISR
    _InterruptManager->_RB7_ISR

Critical Paths under _main in BANK0

    _main->_usart_module_int_init

Critical Paths under _InterruptManager in BANK0

    None.

Critical Paths under _main in BANK1

    None.

Critical Paths under _InterruptManager in BANK1

    None.

Critical Paths under _main in BANK2

    None.

Critical Paths under _InterruptManager in BANK2

    None.

Critical Paths under _main in BANK3

    None.

Critical Paths under _InterruptManager in BANK3

    None.

Critical Paths under _main in BANK4

    None.

Critical Paths under _InterruptManager in BANK4

    None.

Critical Paths under _main in BANK5

    None.

Critical Paths under _InterruptManager in BANK5

    None.

Critical Paths under _main in BANK6

    None.

Critical Paths under _InterruptManager in BANK6

    None.

Critical Paths under _main in BANK7

    None.

Critical Paths under _InterruptManager in BANK7

    None.

Critical Paths under _main in BANK8

    None.

Critical Paths under _InterruptManager in BANK8

    None.

Critical Paths under _main in BANK9

    None.

Critical Paths under _InterruptManager in BANK9

    None.

Critical Paths under _main in BANK10

    None.

Critical Paths under _InterruptManager in BANK10

    None.

Critical Paths under _main in BANK11

    None.

Critical Paths under _InterruptManager in BANK11

    None.

Critical Paths under _main in BANK12

    None.

Critical Paths under _InterruptManager in BANK12

    None.

Critical Paths under _main in BANK13

    None.

Critical Paths under _InterruptManager in BANK13

    None.

Critical Paths under _main in BANK14

    None.

Critical Paths under _InterruptManager in BANK14

    None.

Critical Paths under _main in BANK15

    None.

Critical Paths under _InterruptManager in BANK15

    None.

Call Graph Tables:

 ---------------------------------------------------------------------------------
 (Depth) Function   	        Calls       Base Space   Used Autos Params    Refs
 ---------------------------------------------------------------------------------
 (0) _main                                                 1     1      0   17928
    _EUSART_ASYN_WriteStringBlocking
                     _led_initialize
              _usart_module_int_init
 ---------------------------------------------------------------------------------
 (1) _usart_module_int_init                               19    19      0   10599
                                              0 BANK0     18    18      0
                   _EUSART_ASYN_Init
 ---------------------------------------------------------------------------------
 (2) _EUSART_ASYN_Init                                     2     1      1   10107
                                             69 COMRAM     2     1      1
                _EUSART_ASYN_RX_Init
                _EUSART_ASYN_TX_Init
      _EUSART_Baud_Rate_Calculations
 ---------------------------------------------------------------------------------
 (3) _EUSART_Baud_Rate_Calculations                       11    10      1    9152
                                             58 COMRAM    11    10      1
                            ___fladd
                            ___fldiv
                            ___fltol
                           ___xxtofl
 ---------------------------------------------------------------------------------
 (4) ___xxtofl                                            14    10      4     836
                                              3 COMRAM    14    10      4
 ---------------------------------------------------------------------------------
 (4) ___fltol                                             10     6      4     517
                                              3 COMRAM    10     6      4
 ---------------------------------------------------------------------------------
 (4) ___fldiv                                             25    17      8    3263
                                             17 COMRAM    25    17      8
                           ___xxtofl (ARG)
 ---------------------------------------------------------------------------------
 (4) ___fladd                                             16     8      8    3942
                                             42 COMRAM    16     8      8
                            ___fldiv (ARG)
                           ___xxtofl (ARG)
 ---------------------------------------------------------------------------------
 (3) _EUSART_ASYN_TX_Init                                  1     0      1     276
                                              3 COMRAM     1     0      1
 ---------------------------------------------------------------------------------
 (3) _EUSART_ASYN_RX_Init                                  1     0      1     338
                                              3 COMRAM     1     0      1
 ---------------------------------------------------------------------------------
 (1) _led_initialize                                       4     3      1    7030
                                             14 COMRAM     4     3      1
                 _gpio_pin_intialize
 ---------------------------------------------------------------------------------
 (2) _gpio_pin_intialize                                   3     2      1    6802
                                             11 COMRAM     3     2      1
       _gpio_pin_direction_intialize
               _gpio_pin_write_logic
 ---------------------------------------------------------------------------------
 (3) _gpio_pin_write_logic                                 8     6      2    4891
                                              3 COMRAM     8     6      2
 ---------------------------------------------------------------------------------
 (3) _gpio_pin_direction_intialize                         7     6      1     559
                                              3 COMRAM     7     6      1
 ---------------------------------------------------------------------------------
 (1) _EUSART_ASYN_WriteStringBlocking                      7     4      3     290
                                              4 COMRAM     7     4      3
      _EUSART_ASYN_WriteByteBlocking
 ---------------------------------------------------------------------------------
 (2) _EUSART_ASYN_WriteByteBlocking                        2     2      0      23
                                              3 COMRAM     1     1      0
 ---------------------------------------------------------------------------------
 Estimated maximum stack depth 4
 ---------------------------------------------------------------------------------
 (Depth) Function   	        Calls       Base Space   Used Autos Params    Refs
 ---------------------------------------------------------------------------------
 (5) _InterruptManager                                     2     2      0     176
                                              1 COMRAM     2     2      0
                            _ADC_ISR
                           _CCP1_ISR
                           _CCP2_ISR
                      _EUSART_RX_ISR
                      _EUSART_TX_ISR
                           _INT0_ISR
                           _INT1_ISR
                           _INT2_ISR
                            _RB4_ISR
                            _RB5_ISR
                            _RB6_ISR
                            _RB7_ISR
                           _TMR0_ISR
                           _TMR1_ISR
                           _TMR2_ISR
                           _TMR3_ISR
 ---------------------------------------------------------------------------------
 (6) _TMR3_ISR                                             0     0      0       0
 ---------------------------------------------------------------------------------
 (6) _TMR2_ISR                                             0     0      0       0
 ---------------------------------------------------------------------------------
 (6) _TMR1_ISR                                             0     0      0       0
 ---------------------------------------------------------------------------------
 (6) _TMR0_ISR                                             0     0      0       0
 ---------------------------------------------------------------------------------
 (6) _RB7_ISR                                              1     1      0      44
                                              0 COMRAM     1     1      0
 ---------------------------------------------------------------------------------
 (6) _RB6_ISR                                              1     1      0      44
                                              0 COMRAM     1     1      0
 ---------------------------------------------------------------------------------
 (6) _RB5_ISR                                              1     1      0      44
                                              0 COMRAM     1     1      0
 ---------------------------------------------------------------------------------
 (6) _RB4_ISR                                              1     1      0      44
                                              0 COMRAM     1     1      0
 ---------------------------------------------------------------------------------
 (6) _INT2_ISR                                             0     0      0       0
 ---------------------------------------------------------------------------------
 (6) _INT1_ISR                                             0     0      0       0
 ---------------------------------------------------------------------------------
 (6) _INT0_ISR                                             0     0      0       0
 ---------------------------------------------------------------------------------
 (6) _EUSART_TX_ISR                                        0     0      0       0
                                NULL *
   _EUSART_TxDefaultInterruptHandler *
 ---------------------------------------------------------------------------------
 (7) _EUSART_TxDefaultInterruptHandler                     0     0      0       0
 ---------------------------------------------------------------------------------
 (7) NULL(Fake)                                            0     0      0       0
 ---------------------------------------------------------------------------------
 (6) _EUSART_RX_ISR                                        0     0      0       0
 ---------------------------------------------------------------------------------
 (6) _CCP2_ISR                                             0     0      0       0
 ---------------------------------------------------------------------------------
 (6) _CCP1_ISR                                             0     0      0       0
 ---------------------------------------------------------------------------------
 (6) _ADC_ISR                                              0     0      0       0
 ---------------------------------------------------------------------------------
 Estimated maximum stack depth 7
 ---------------------------------------------------------------------------------

 Call Graph Graphs:

 _main (ROOT)
   _EUSART_ASYN_WriteStringBlocking
     _EUSART_ASYN_WriteByteBlocking
   _led_initialize
     _gpio_pin_intialize
       _gpio_pin_direction_intialize
       _gpio_pin_write_logic
   _usart_module_int_init
     _EUSART_ASYN_Init
       _EUSART_ASYN_RX_Init
       _EUSART_ASYN_TX_Init
       _EUSART_Baud_Rate_Calculations
         ___fladd
           ___fldiv (ARG)
             ___xxtofl (ARG)
           ___xxtofl (ARG)
         ___fldiv
         ___fltol
         ___xxtofl

 _InterruptManager (ROOT)
   _ADC_ISR
   _CCP1_ISR
   _CCP2_ISR
   _EUSART_RX_ISR
   _EUSART_TX_ISR
     NULL(Fake) *
     _EUSART_TxDefaultInterruptHandler *
   _INT0_ISR
   _INT1_ISR
   _INT2_ISR
   _RB4_ISR
   _RB5_ISR
   _RB6_ISR
   _RB7_ISR
   _TMR0_ISR
   _TMR1_ISR
   _TMR2_ISR
   _TMR3_ISR

 Address spaces:
Name               Size   Autos  Total    Cost      Usage
BIGRAM             F5F      0       0      50        0.0%
EEDATA             400      0       0       0        0.0%
BITBANK14          100      0       0      32        0.0%
BANK14             100      0       0      33        0.0%
BITBANK13          100      0       0      30        0.0%
BANK13             100      0       0      31        0.0%
BITBANK12          100      0       0      28        0.0%
BANK12             100      0       0      29        0.0%
BITBANK11          100      0       0      26        0.0%
BANK11             100      0       0      27        0.0%
BITBANK10          100      0       0      24        0.0%
BANK10             100      0       0      25        0.0%
BITBANK9           100      0       0      22        0.0%
BANK9              100      0       0      23        0.0%
BITBANK8           100      0       0      20        0.0%
BANK8              100      0       0      21        0.0%
BITBANK7           100      0       0      18        0.0%
BANK7              100      0       0      19        0.0%
BITBANK6           100      0       0      16        0.0%
BANK6              100      0       0      17        0.0%
BITBANK5           100      0       0      14        0.0%
BANK5              100      0       0      15        0.0%
BITBANK4           100      0       0      12        0.0%
BANK4              100      0       0      13        0.0%
BITBANK3           100      0       0      10        0.0%
BANK3              100      0       0      11        0.0%
BITBANK2           100      0       0       8        0.0%
BANK2              100      0       0       9        0.0%
BITBANK1           100      0       0       6        0.0%
BANK1              100      0       0       7        0.0%
BITBANK0            A0      0       0       4        0.0%
BANK0               A0     12      87       5       84.4%
BITBANK15           60      0       0      34        0.0%
BANK15              60      0       0      35        0.0%
BITCOMRAM           5E      0       0       0        0.0%
COMRAM              5E     47      4C       1       80.9%
BITBIGSFRllllll     20      0       0      48        0.0%
BITBIGSFRhlhlhh     18      0       0      37        0.0%
BITBIGSFRhh          D      0       0      36        0.0%
BITBIGSFRlllhh       6      0       0      45        0.0%
BITBIGSFRhlhllh      5      0       0      38        0.0%
BITBIGSFRhlhlll      5      0       0      40        0.0%
BITBIGSFRllhllh      4      0       0      42        0.0%
BITBIGSFRlllllh      4      0       0      47        0.0%
BITBIGSFRllllh       4      0       0      46        0.0%
BITBIGSFRllhllh      4      0       0      43        0.0%
BITBIGSFRllhllh      1      0       0      41        0.0%
BITBIGSFRhlhlll      1      0       0      39        0.0%
BITBIGSFRllhlll      1      0       0      44        0.0%
BIGSFR               0      0       0     200        0.0%
BITSFR               0      0       0     200        0.0%
SFR                  0      0       0     200        0.0%
STACK                0      0       0       2        0.0%
NULL                 0      0       0       0        0.0%
ABS                  0      0      D3      49        0.0%
DATA                 0      0      D3       3        0.0%
CODE                 0      0       0       0        0.0%


Microchip Technology PIC18 Macro Assembler V2.46 build 20240104201356 
Symbol Table                                                                                   Thu Sep 26 15:16:43 2024

                         ??_InterruptManager 0002                                 ___fldiv@aexp 002A  
                               ___fldiv@bexp 0029                                 ___fldiv@sign 0022  
                                        l301 23C6                                          l305 2418  
                                        l712 2476                                          l672 2022  
                                        l691 2132                    _RB5_InterruptHandler_HIGH 0099  
                            __end_of_ADC_ISR 26FE                                          _ret 00AF  
                        led_initialize@F3310 004C                                          tosl 0FFD  
                                        wreg 0FE8                        relay_initialize@F3304 00B2  
                            __end_of_RB4_ISR 2688                              __end_of_RB5_ISR 266E  
                            __end_of_RB6_ISR 2654                              __end_of_RB7_ISR 263A  
                               ___fltol@exp1 000D                                         l2001 1D5C  
                                       l2003 1BBC                                         l2012 1C02  
                                       l2014 1C7A                                         l2006 1B80  
                                       l2015 1C68                                         l1314 268A  
                                       l1316 2698                                         l1317 269E  
                                       l1342 251E                                         l1350 1252  
                                       l1351 1308                                         l1352 13BC  
                                       l2081 1E4C                                         l2074 1DB4  
                                       l1354 1502                                         l1346 1030  
                                       l1363 23A8                                         l1380 2304  
                                       l1348 10E6                                         l2077 1F10  
                                       l1349 119C                                         l1367 23A8  
                                       l1376 2304                                         l2088 1EA8  
                                       l1296 2588                                         l1298 25AA  
                                       l1716 2238                                         l1398 256A  
                                       l5231 20B6                                         l5223 2024  
                                       l5225 2038                                         l5251 1F4E  
                                       l5235 2106                                         l5227 2058  
                                       l1947 16F2                                         l1964 180C  
                                       l1956 19C2                                         l1948 16E0  
                                       l5253 1FA4                                         l5245 1F12  
                                       l5229 2060                                         l5237 2130  
                                       l1973 18DC                                         l1949 16A6  
                                       l1974 18CA                                         l5247 1F26  
                                       l5257 1FF4                                         l5249 1F46  
                                       l5361 2452                                         l7201 1630  
                                       l5259 2020                                         l5363 2474  
                                       l5355 241A                                         l5531 23CA  
                                       l7203 1634                                         l7211 1644  
                                       l5461 269A                                         l5357 242A  
                                       l5533 23FC                                         l7221 16B4  
                                       l7213 1648                                         l7205 1638  
                                       l7141 1530                                         l7133 1504  
                                       l5359 244A                                         l5535 23FE  
                                       l5527 23AA                                         l7303 18EC  
                                       l7311 1942                                         l7231 16DE  
                                       l7223 16C0                                         l7215 1672  
                                       l7207 163C                                         l7151 156A  
                                       l7143 1540                                         l7135 1510  
                                       l5721 24E8                                         l5537 240E  
                                       l5529 23BE                                         l7321 1994  
                                       l7313 1952                                         l7305 18F8  
                                       l7241 1734                                         l7233 1700  
                                       l7225 16C4                                         l7217 168E  
                                       l7209 1640                                         l7161 1598  
                                       l7153 1570                                         l7145 1550  
                                       l7137 151E                                         l7401 1B44  
                                       l5459 268A                                         l5723 2502  
                                       l5539 2416                                         l7331 19B2  
                                       l7323 199A                                         l7315 1962  
                                       l7307 1906                                         l7251 176E  
                                       l7243 1742                                         l7235 1710  
                                       l7227 16D2                                         l7219 169E  
                                       l7171 15CC                                         l7163 159A  
                                       l7155 1582                                         l7147 1552  
                                       l7139 1520                                         l7411 1B8A  
                                       l7403 1B4C                                         l5725 2506  
                                       l7325 199C                                         l7317 1982  
                                       l7309 1940                                         l7261 17DA  
                                       l7253 1770                                         l7245 1750  
                                       l7229 16D4                                         l7181 1608  
                                       l7165 15AA                                         l7173 15D4  
                                       l7157 1584                                         l7149 155A  
                                       l7421 1BE2                                         l7413 1BA8  
                                       l7405 1B5C                                         l7341 19E0  
                                       l5727 251C                                         l5719 24D0  
                                       l7327 19A2                                         l7319 1986  
                                       l7271 1832                                         l7263 17DC  
                                       l7255 177A                                         l7247 175C  
                                       l7239 1724                                         l7191 161C  
                                       l7183 160C                                         l7175 15E4  
                                       l7167 15BA                                         l7159 158A  
                                       l7431 1C20                                         l7423 1BE8  
                                       l7415 1BAA                                         l7407 1B70  
                                       l7343 19F0                                         l7351 1A1A  
                                       l7335 19C4                                         l7511 2218  
                                       l7601 231E                                         l7329 19B0  
                                       l7281 1860                                         l7265 17EC  
                                       l7249 1760                                         l7257 1780  
                                       l7193 1620                                         l7185 1610  
                                       l7177 15F6                                         l7169 15CA  
                                       l7441 1C8A                                         l7433 1C24  
                                       l7425 1BF2                                         l7417 1BBA  
                                       l7409 1B7E                                         l7361 1A46  
                                       l7353 1A2A                                         l7345 1A00  
                                       l7337 19D0                                         l7513 2228  
                                       l7505 21EC                                         l7521 1D7E  
                                       l7611 234A                                         l7603 2320  
                                       l7283 186E                                         l7275 1846  
                                       l7291 188C                                         l7259 17A6  
                                       l7267 17FC                                         l7195 1624  
                                       l7187 1614                                         l7179 1604  
                                       l7451 1CEC                                         l7443 1C96  
                                       l7435 1C32                                         l7427 1C00  
                                       l7419 1BCC                                         l7363 1A56  
                                       l7371 1A80                                         l7355 1A30  
                                       l7347 1A10                                         l7339 19DE  
                                       l7507 21F8                                         l7531 1DF6  
                                       l7523 1DC4                                         l7621 2384  
                                       l7613 234C                                         l7605 2338  
                                       l7285 1876                                         l7277 1850  
                                       l7269 1822                                         l7293 189A  
                                       l7197 1628                                         l7189 1618  
                                       l7461 1D4A                                         l7453 1D02  
                                       l7445 1CA4                                         l7437 1C60  
                                       l7429 1C12                                         l7381 1AC2  
                                       l7373 1A90                                         l7365 1A66  
                                       l7357 1A36                                         l7349 1A12  
                                       l7509 2208                                         l7541 1E7E  
                                       l7533 1E02                                         l7525 1DDA  
                                       l7517 1D60                                         l7631 2254  
                                       l7623 238A                                         l7607 233A  
                                       l7615 2352                                         l7295 189E  
                                       l7287 187A                                         l7279 185E  
                                       l7199 162C                                         l7463 1D50  
                                       l7455 1D1C                                         l7447 1CCE  
                                       l7375 1AA6                                         l7367 1A76  
                                       l7359 1A44                                         l7551 1EBC  
                                       l7543 1E8A                                         l7535 1E34  
                                       l7519 1D70                                         l7641 22A8  
                                       l7633 226C                                         l7625 23A2  
                                       l7617 236A                                         l7609 2348  
                                       l7297 18AC                                         l7289 188A  
                                       l7465 1D52                                         l7457 1D38  
                                       l7449 1CD2                                         l7393 1AFA  
                                       l7377 1AB6                                         l7385 1AD6  
                                       l7369 1A78                                         l7481 2188  
                                       l7473 2134                                         l7553 1EE0  
                                       l7545 1E98                                         l7537 1E36  
                                       l7529 1DEE                                         l7721 25E8  
                                       l7651 22E6                                         l7635 226E  
                                       l7643 22AE                                         l7627 223A  
                                       l7619 236C                                         l7299 18C2  
                                       l7459 1D3C                                         l7395 1B14  
                                       l7387 1AE6                                         l7379 1ABE  
                                       l7483 218A                                         l7475 214A  
                                       l7555 1EF0                                         l7547 1EB6  
                                       l7539 1E42                                         l7571 1140  
                                       l7563 101C                                         l7715 25DC  
                                       l7653 22FE                                         l7645 22C6  
                                       l7637 22A4                                         l7629 2252  
                                       l7397 1B24                                         l7389 1AE6  
                                       l7485 219A                                         l7557 1EFE  
                                       l7549 1EB8                                         l7581 130C  
                                       l7573 11A2                                         l7565 1036  
                                       l7661 25A6                                         l7717 25DC  
                                       l7647 22C8                                         l7639 22A6  
                                       l7399 1B34                                         l7495 21C4  
                                       l7487 219E                                         l7479 215E  
                                       l7559 1F00                                         l7583 1360  
                                       l7575 11F6                                         l7567 108A  
                                       l7591 1470                                         l7663 25A8  
                                       l7655 256C                                         l7671 252A  
                                       l7719 25E0                                         l7649 22E0  
                                       l7497 21CE                                         l7489 21AC  
                                       l7585 13C0                                         l7577 1258  
                                       l7569 10EC                                         l7593 14C4  
                                       l7657 2580                                         l7681 255A  
                                       l7673 2532                                         l7499 21D8  
                                       l7763 148E                                         l7587 1414  
                                       l7579 12AC                                         l7659 258E  
                                       l7683 255C                                         l7675 253A  
                                       l7667 2520                                         l7765 211A  
                                       l7685 255E                                         l7677 2556  
                                       l7669 2520                                         l7599 2306  
                                       l7687 2560                                         l7679 2558  
                                       l7689 2562                                         STR_1 1018  
                                       STR_4 1011                                         _LATA 0F89  
                                       _LATB 0F8A                                         _LATC 0F8B  
                                       _LATD 0F8C                                         _LATE 0F8D  
                                       u4500 1F46                                         u4501 1F42  
                        _valid_usart_counter 0071                                         u7000 1822  
                                       u7001 181E                                         u4530 200A  
                                       u4514 1F6C                                         u4450 2038  
                                       u7010 1832                                         u4531 2004  
                                       u4515 1F68                                         u4451 2034  
                                       u7011 182E                                         u4524 1FC2  
                                       u4460 2058                                         u7100 1906  
                                       u7020 185E                                         u4525 1FBE  
                                       u4461 2054                                         u7101 1902  
                                       u7021 185A                                         u7110 1940  
                                       u7030 186E                                         u7111 193C  
                                       u7031 186A                                         u4536 200C  
                                       u4640 242A                                         u7120 1952  
                                       u7040 188A                                         u7200 1A44  
                                       u4641 2426                                         u7121 194E  
                                       u7041 1886                                         u7201 1A40  
                                       u4490 1F26                                         u4474 207E  
                                       u4650 244A                                         u4810 23BE  
                                       u7130 1962                                         u7050 189A  
                                       u7210 1A56                                         u4491 1F22  
                                       u4475 207A                                         u4651 2446  
                                       u4811 23BA                                         u7131 195E  
                                       u7051 1896                                         u7211 1A52  
                                       u4740 2698                                         u4484 20D4  
                                       u7140 1982                                         u7060 18AC  
                                       u7300 1C00                                         u7220 1A66  
                                       u4741 2694                                         u4485 20D0  
                                       u7141 197E                                         u7061 18A8  
                                       u7301 1BFC                                         u7221 1A62  
                                       u7150 1994                                         u7070 18C2  
                                       u7310 1C20                                         u7230 1AA6  
                                       u7151 1990                                         u7071 18BE  
                                       u7311 1C1C                                         u7231 1AA2  
                                       u7160 19B0                                         u7080 18D8  
                                       u7320 1C32                                         u7240 1AE6  
                                       u7400 214A                                         u4825 240C  
                                       u7161 19AC                                         u7081 18D4  
                                       u7321 1C2E                                         u7241 1AE2  
                                       u7401 2146                                         u4930 251C  
                                       u7090 18EC                                         u7330 1C60  
                                       u7250 1B5C                                         u7170 19DE  
                                       u7410 217E                                         u4931 2518  
                                       u4827 240E                                         u7091 18E8  
                                       u7331 1C5C                                         u7251 1B58  
                                       u7171 19DA                                         u7340 1C76  
                                       u7260 1B7E                                         u7180 19F0  
                                       u7420 21AC                                         u7500 1E30  
                                       u7341 1C72                                         u7261 1B7A  
                                       u7181 19EC                                         u7421 21A8  
                                       u7501 1E2C                                         u7350 1C8A  
                                       u7270 1BA8                                         u7190 1A00  
                                       u7430 21C0                                         u7510 1E7A  
                                       u7351 1C86                                         u7271 1BA4  
                                       u7191 19FC                                         u7431 21BC  
                                       u7415 2174                                         u7511 1E76  
                                       u7600 2384                                         u6800 1540  
                                       u7360 1CA4                                         u7280 1BCC  
                                       u7440 21E8                                         u7520 1E98  
                                       u7601 2380                                         u6801 153C  
                                       u7361 1CA0                                         u7281 1BC8  
                                       u7441 21E4                                         u7521 1E94  
                                       u7610 23A2                                         u6810 1582  
                                       u7370 1CEC                                         u7290 1BE2  
                                       u7450 2208                                         u7530 1EA8  
                                       u7611 239E                                         u6811 157E  
                                       u7371 1CE8                                         u7291 1BDE  
                                       u7451 2204                                         u7531 1EA4  
                                       u7620 2252                                         u6900 16B4  
                                       u6820 1598                                         u7380 1D1C  
                                       u7460 2218                                         u7540 1EB6  
                                       u7621 224E                                         u6901 16B0  
                                       u6821 1594                                         u7381 1D18  
                                       u7461 2214                                         u7541 1EB2  
                                       u7630 226C                                         u6910 16D2  
                                       u6830 15AA                                         u7390 1D4A  
                                       u7550 1EF0                                         u7470 1D70  
                                       u7631 2268                                         u6911 16CE  
                                       u6831 15A6                                         u7391 1D46  
                                       u7551 1EEC                                         u7471 1D6C  
                                       u7640 22C6                                         u6920 16F2  
                                       u6840 15BA                                         u7560 1EFE  
                                       u7480 1D7E                                         u7641 22C2  
                                       u6921 16EE                                         u6841 15B6  
                                       u7561 1EFA                                         u7481 1D7A  
                                       u7650 22E0                                         u7570 231E  
                                       u6930 1700                                         u6850 15F6  
                                       u7490 1DDA                                         u7651 22DC  
                                       u7571 231A                                         u6931 16FC  
                                       u6851 15F2                                         u7491 1DD6  
                                       u7660 22FE                                         u7580 2338  
                                       u6940 1710                                         u6860 1604  
                                       u6780 151E                                         u7661 22FA  
                                       u7581 2334                                         u6941 170C  
                                       u6861 1600                                         u6781 151A  
                                       u7590 236A                                         u6950 1742  
                                       u6870 1672                                         u6790 1530  
                                       u7670 2580                                         u7591 2366  
                                       u6951 173E                                         u6871 166E  
                                       u6791 152C                                         u7671 257C  
                                       u6960 1750                                         u6880 168A  
                                       u6961 174C                                         u6881 1684  
                                       u6970 176E                                         u6890 168C  
                                       u6971 176A                                         u6980 17A6  
                                       u6981 17A2                                         u6990 17EC  
                                       u6991 17E8                                         _TMR2 0FCC  
                   _RB4_InterruptHandler_LOW 009B                                         _main 25DC  
                           __end_of_CCP1_ISR 26FA                             __end_of_CCP2_ISR 26F6  
                   _RB7_InterruptHandler_LOW 008F                                         fsr2h 0FDA  
                                       indf2 0FDF                                         fsr1l 0FE1  
                                       fsr2l 0FD9                                         btemp 004D  
                     __end_of_led_initialize 241A           EUSART_ASYN_WriteStringBlocking@ret 0009  
                                       prodl 0FF3                                         start 03BE  
                            ___fldiv@new_exp 0023                                 ___param_bank 0000  
                       _gpio_pin_write_logic 2024                             __end_of_INT0_ISR 26F2  
                           __end_of_INT1_ISR 26EE                             __end_of_INT2_ISR 26EA  
     EUSART_ASYN_WriteStringBlocking@str_len 0006                                _EUSART_RX_ISR 26FE  
EUSART_ASYN_WriteStringBlocking@char_counter 000A                                ___fltol@sign1 000C  
                              _EUSART_TX_ISR 25AC                              __end_of___fladd 19C4  
                                      ?_main 0001                              __end_of___fldiv 1D5E  
                                      _EEADR 0FA9                              __end_of___fltol 223A  
EUSART_Baud_Rate_Calculations@Baud_Rate_Temp 003E                                        i2l801 0032  
                                      i2l563 26F8                                        i2l811 013E  
                                      i2l803 0052                                        i2l821 02B2  
                                      i2l805 0072                                        i2l486 26FC  
                                      i2l814 01C6                                        i2l567 26F4  
                                      i2l831 0352                                        i2l823 02D2  
                                      i2l807 00B6                                        i2l833 0372  
                                      i2l825 02F2                                        i2l817 024E  
                                      i2l809 00FA                                        i2l907 2686  
                                      i2l835 0392                                        i2l827 0312  
                                      i2l819 0292                                        i2l917 266C  
                                      i2l829 0332                                        i2l838 03B2  
                                      i2l927 2652                                        i2l937 2638  
                                      i2l893 26EC                                        i2l889 26F0  
                                      i2l897 26E8                                        _RCREG 0FAE  
                        relay_turn_off@F3314 00B0                                        _TMR0H 0FD7  
                                      _TMR1H 0FCF                                        _TMR0L 0FD6  
                                      _TMR1L 0FCE                                        _TMR3H 0FB3  
                                      _TMR3L 0FB2                                        _SPBRG 0FAF  
                                      _PORTA 0F80                                        _PORTB 0F81  
                                      _PORTC 0F82                                        _PORTD 0F83  
                                      _PORTE 0F84                                        _TRISA 0F92  
                                      _TRISB 0F93                                        _TRISC 0F94  
                                      _TRISD 0F95                                        _TRISE 0F96  
                                      _TXREG 0FAD                            ?_EUSART_ASYN_Init 0046  
                           __end_of_TMR0_ISR 26DA                             __end_of_TMR1_ISR 26CC  
                           __end_of_TMR2_ISR 26E2                             __end_of_TMR3_ISR 26BE  
                                      _led_1 00D4                           ??_EUSART_ASYN_Init 0047  
                                      pclath 0FFA                                        pclatu 0FFB  
                                      tablat 0FF5                                        ttemp5 004E  
                                      ttemp6 0051                                        ttemp7 0055  
                                      status 0FD8                                        wtemp8 004E  
                            ?_led_initialize 000F                              __initialization 2478  
                               __end_of_main 2600                        ?_gpio_pin_write_logic 0004  
    __end_of_EUSART_ASYN_WriteStringBlocking 2520            ??_EUSART_ASYN_WriteStringBlocking 0008  
           ?_EUSART_ASYN_WriteStringBlocking 0005              _EUSART_ASYN_WriteStringBlocking 24D0  
                                  ??_ADC_ISR 0001                               ?_EUSART_RX_ISR 0001  
                             ?_EUSART_TX_ISR 0001                __end_of_usart_module_int_init 256C  
                              _lat_registers 00C0                   EUSART_ASYN_RX_Init@_eusart 0004  
                                     ??_main 0048                                __activetblptr 0003  
                      _TMR3_InterruptHandler 0083                             led_turn_on@F3315 00B5  
                                  ??_RB4_ISR 0001                                    ??_RB5_ISR 0001  
                                  ??_RB6_ISR 0001                                    ??_RB7_ISR 0001  
                __end_of_EUSART_ASYN_RX_Init 2306                   _EUSART_OverrunErrorHandler 0079  
                __end_of_EUSART_ASYN_TX_Init 23AA                                       _ADRESH 0FC4  
                                     _EEADRH 0FAA                                       _ADRESL 0FC3  
                                     _EEDATA 0FA8                                       _CCPR1H 0FBF  
                                     _CCPR2H 0FBC                                       _CCPR1L 0FBE  
                                     _CCPR2L 0FBB                                       _EECON2 0FA7  
                                     i2l1204 26E0                                       i2l1155 26CA  
                                     i2l1246 26BC                                       i2l1327 25DA  
                                     i2l1336 26FE                                       i2l1416 26AE  
                                     i2l1088 26D8                                       i2l5603 266C  
                                     i2l5611 263E                                       i2l5463 26A0  
                                     i2l5631 2638                                       i2l5623 2622  
                                     i2l5561 26F6                                       i2l5617 2652  
                                     i2l5609 263C                                       i2l5625 2624  
                                     i2l5641 26D4                                       i2l5557 26FA  
                                     i2l5565 26F2                                       i2l5573 26EA  
                                     i2l5581 2670                                       i2l5637 26CC  
                                     i2l5645 26BE                                       i2l5653 26DA  
                                     i2l5661 26B8                                       i2l6701 00F4  
                                     i2l5671 26FE                                       i2l5583 2672  
                                     i2l5639 26CE                                       i2l5647 26C0  
                                     i2l6711 0138                                       i2l6703 0108  
                                     i2l5665 25AC                                       i2l5569 26EE  
                                     i2l5577 26E6                                       i2l5649 26C6  
                                     i2l5657 26B0                                       i2l6801 03AE  
                                     i2l6721 017C                                       i2l6713 014C  
                                     i2l6705 0116                                       i2l5667 25AE  
                                     i2l5595 2656                                       i2l5659 26B2  
                                     i2l6731 01BC                                       i2l6715 015A  
                                     i2l6723 0182                                       i2l6707 0124  
                                     i2l5669 25C2                                       i2l5589 2686  
                                     i2l5597 2658                                       i2l6741 0200  
                                     i2l6733 01C0                                       i2l6725 0190  
                                     i2l6717 0168                                       i2l6709 0134  
                                     i2l6751 0234                                       i2l6743 0204  
                                     i2l6735 01D4                                       i2l6727 019E  
                                     i2l6719 0178                                       i2l6671 0020  
                                     i2l6761 0278                                       i2l6753 0244  
                                     i2l6737 01E2                                       i2l6745 020A  
                                     i2l6729 01AC                                       i2l6681 006E  
                                     i2l6673 002E                                       i2l6771 02C0  
                                     i2l6763 0288                                       i2l6755 0248  
                                     i2l6747 0218                                       i2l6739 01F0  
                                     i2l6691 00B0                                       i2l6683 0080  
                                     i2l6675 0040                                       i2l6781 030E  
                                     i2l6773 02CE                                       i2l6765 028C  
                                     i2l6757 025C                                       i2l6749 0226  
                                     i2l6693 00C4                                       i2l6685 008E  
                                     i2l6677 004E                                       i2l6669 0012  
                                     i2l6791 0360                                       i2l6783 0320  
                                     i2l6775 02E0                                       i2l6767 02A0  
                                     i2l6759 026A                                       i2l6695 00D2  
                                     i2l6687 009C                                       i2l6679 0060  
                                     i2l6793 036E                                       i2l6785 032E  
                                     i2l6777 02EE                                       i2l6769 02AE  
                                     i2l6697 00E0                                       i2l6689 00AC  
                                     i2l6795 0380                                       i2l6787 0340  
                                     i2l6779 0300                                       i2l6699 00F0  
                                     i2l6797 038E                                       i2l6789 034E  
                                     i2l6799 03A0                                       _SPBRGH 0FB0  
                           __end_of___xxtofl 1F12                                    ??___fladd 0033  
                                  ??___fldiv 001A                                    ??___fltol 0008  
                                     clear_0 24BE                        led_initialize@pin_obj 0012  
                                     isa$std 0001         EUSART_ASYN_WriteStringBlocking@_data 0005  
    gpio_pin_direction_intialize@_pin_config 0004                                    ?_CCP1_ISR 0001  
                               __pdataCOMRAM 0048                                    ?_CCP2_ISR 0001  
                               __mediumconst 0000                                       tblptrh 0FF7  
                                     tblptrl 0FF6                                       tblptru 0FF8  
                               ___xxtofl@arg 000E                                 ___xxtofl@exp 000D  
                               ___xxtofl@val 0004                                   __accesstop 0060  
                    __end_of__initialization 24C6                    _EUSART_TXInterruptHandler 007F  
                                  ?_INT0_ISR 0001                                    ?_INT1_ISR 0001  
                                  ?_INT2_ISR 0001                                ___rparam_used 0001  
                                 ___fltol@f1 0004                            led_initialize@led 000F  
                          led_initialize@ret 0011         EUSART_Baud_Rate_Calculations@_eusart 003B  
                     ??_gpio_pin_write_logic 0006                               __pcstackCOMRAM 0001  
             usart_module_int_init@usart_obj 00D5                                 __pidataBANK0 2600  
                                  ?_TMR0_ISR 0001                              ??_EUSART_RX_ISR 0001  
                                  ?_TMR1_ISR 0001                                    ?_TMR2_ISR 0001  
                                  ?_TMR3_ISR 0001                              ??_EUSART_TX_ISR 0001  
               convert_short_to_string@F3463 006B                            RB5_ISR@RB5_source 0001  
                                 ??_CCP1_ISR 0001                                   ??_CCP2_ISR 0001  
                                 __pbssBANK0 0060                        _INT0_InterruptHandler 00A3  
                                 ??_INT0_ISR 0001                                   ??_INT1_ISR 0001  
                                 ??_INT2_ISR 0001     __end_of_EUSART_TxDefaultInterruptHandler 26B0  
         ??_EUSART_TxDefaultInterruptHandler 0001            ?_EUSART_TxDefaultInterruptHandler 0001  
           _EUSART_TxDefaultInterruptHandler 26A0                                   ??_TMR0_ISR 0001  
                                 ??_TMR1_ISR 0001                                   ??_TMR2_ISR 0001  
                                 ??_TMR3_ISR 0001                            led_turn_off@F3320 00B4  
                                    _ADC_ISR 26FA                                      _RB4_ISR 266E  
                                    _RB5_ISR 2654                                      _RB6_ISR 263A  
                                    _RB7_ISR 2620                                    ?___xxtofl 0004  
                  _RB6_InterruptHandler_HIGH 0095           EUSART_ASYN_WriteByteBlocking@_data 0004  
                       led_turn_toggle@F3325 00B3                            RB7_ISR@RB7_source 0001  
                           ??_led_initialize 0010              CCP_Compare_Mode_Set_Value@F3368 00A5  
                                 _btn_values 1001                               _tris_registers 00CA  
                   _RB6_InterruptHandler_LOW 0093                         _ADC_InterruptHandler 00AB  
                                    __Hparam 0000                                      __Lparam 0000  
                                    ___fladd 1504                                      ___fldiv 19C4  
                                    ___fltol 2134                                 __psmallconst 1000  
                 __end_of_gpio_pin_intialize 2478                                      __pcinit 2478  
                                    __ramtop 1000                                _rec_uart_data 00AD  
                                    __ptext0 25DC                                      __ptext1 2520  
                                    __ptext2 256C                                      __ptext3 101C  
                                    __ptext4 1D5E                                      __ptext5 2134  
                                    __ptext6 19C4                                      __ptext7 1504  
                                    __ptext8 2306                                      __ptext9 223A  
                                  _T0CONbits 0FD5                                    _T1CONbits 0FCD  
                                  _T2CONbits 0FCA                                   ??___xxtofl 0008  
                                  _T3CONbits 0FB1                         end_of_initialization 24C6  
         _EUSART_Baud_Rate_Calculations$4503 0042                        gpio_pin_intialize@ret 000E  
                                  _RCSTAbits 0FAB                                      postdec1 0FE5  
                                    postdec2 0FDD                                      postinc0 0FEE  
                                    postinc2 0FDE                        _INT1_InterruptHandler 00A1  
                                  _PORTBbits 0F81                             _InterruptManager 0008  
              gpio_pin_intialize@_pin_config 000C                        _usart_module_int_init 2520  
                                ___fladd@grs 003A         __end_of_gpio_pin_direction_intialize 2024  
               _gpio_pin_direction_intialize 1F12                                ___xxtofl@sign 000C  
                                  _TRISCbits 0F94                                  ___fldiv@grs 0025  
                                ___fldiv@rem 001E                                  _CCP1CONbits 0FBD  
                                _CCP2CONbits 0FBA                                    _TXSTAbits 0FAC  
                         relay_turn_on@F3309 00B1                                  _BAUDCONbits 0FB8  
                              __pidataCOMRAM 26E2                               _timer0_preload 008B  
                             _timer1_preload 0087                               _timer2_preload 00AE  
                        start_initialization 2478                               _timer3_preload 0081  
              ?_gpio_pin_direction_intialize 0004                             _EUSART_ASYN_Init 256C  
                 convert_int_to_string@F3470 0060                  convert_byte_to_string@F3456 0075  
                 _EUSART_FramingErrorHandler 007B              ??_EUSART_Baud_Rate_Calculations 003C  
                                __pdataBANK0 00B6                                     ?_ADC_ISR 0001  
                      __end_of_EUSART_RX_ISR 2700                        __end_of_EUSART_TX_ISR 25DC  
                     ?_usart_module_int_init 0001                                    ___fladd@a 002F  
                                  ___fladd@b 002B                                    ___fldiv@a 0016  
                                  ___fldiv@b 0012                                     ?_RB4_ISR 0001  
                                   ?_RB5_ISR 0001                                     ?_RB6_ISR 0001  
                                   ?_RB7_ISR 0001                                  __pbssCOMRAM 004C  
                              __pcstackBANK0 00D5                        _INT2_InterruptHandler 009F  
            gpio_pin_direction_intialize@ret 000A                        _TMR0_InterruptHandler 008D  
                                  __pintcode 0008                                     ?___fladd 002B  
            gpio_pin_write_logic@_pin_config 0004                                     ?___fldiv 0012  
                                   ?___fltol 0004                    gpio_pin_write_logic@logic 0005  
            ??_EUSART_ASYN_WriteByteBlocking 0004                                  __smallconst 1000  
                  _RB4_InterruptHandler_HIGH 009D                   EUSART_ASYN_TX_Init@_eusart 0004  
                                   _CCP1_ISR 26F6                                     _CCP2_ISR 26F2  
                  _RB7_InterruptHandler_HIGH 0091                           _gpio_pin_intialize 241A  
             ??_gpio_pin_direction_intialize 0005                     _RB5_InterruptHandler_LOW 0097  
                                   _INT0_ISR 26EE                                     _INT1_ISR 26EA  
                                   _INT2_ISR 26E6                                     _RB4_Flag 004B  
                                   _RB5_Flag 004A                                     _RB6_Flag 0049  
                                   _RB7_Flag 0048                          ?_gpio_pin_intialize 000C  
                   __end_of_InterruptManager 03BE                                     _PIE1bits 0F9D  
                                   _PIE2bits 0FA0                                     i2u600_40 0040  
                                   i2u600_41 003C                                     i2u601_40 004E  
                                   i2u601_41 004A                                     _PIR1bits 0F9E  
                                   i2u610_40 00E0                                     i2u602_40 0060  
                                   i2u610_41 00DC                                     i2u602_41 005C  
                                   i2u611_40 00F0                                     i2u603_40 006E  
                                   i2u611_41 00EC                                     i2u603_41 006A  
                                   _PIR2bits 0FA1                                     i2u620_40 0190  
                                   i2u612_40 0108                                     i2u604_40 0080  
                                   i2u620_41 018C                                     i2u612_41 0104  
                                   i2u604_41 007C                                     i2u621_40 019E  
                                   i2u613_40 0116                                     i2u605_40 008E  
                                   i2u621_41 019A                                     i2u613_41 0112  
                                   i2u605_41 008A                                     i2u630_40 0234  
                                   i2u622_40 01AC                                     i2u614_40 0124  
                                   i2u606_40 009C                                     i2u630_41 0230  
                                   i2u622_41 01A8                                     i2u614_41 0120  
                                   i2u606_41 0098                                     i2u631_40 0244  
                                   i2u623_40 01BC                                     i2u615_40 0134  
                                   i2u607_40 00AC                                     i2u631_41 0240  
                                   i2u623_41 01B8                                     i2u615_41 0130  
                                   i2u607_41 00A8                                     i2u640_40 02E0  
                                   i2u632_40 025C                                     i2u624_40 01D4  
                                   i2u616_40 014C                                     i2u608_40 00C4  
                                   i2u640_41 02DC                                     i2u632_41 0258  
                                   i2u624_41 01D0                                     i2u616_41 0148  
                                   i2u608_41 00C0                                     i2u641_40 02EE  
                                   i2u633_40 026A                                     i2u625_40 01E2  
                                   i2u617_40 015A                                     i2u609_40 00D2  
                                   i2u641_41 02EA                                     i2u633_41 0266  
                                   i2u625_41 01DE                                     i2u617_41 0156  
                                   i2u609_41 00CE                                     i2u650_40 0380  
                                   i2u642_40 0300                                     i2u634_40 0278  
                                   i2u626_40 01F0                                     i2u618_40 0168  
                                   i2u650_41 037C                                     i2u642_41 02FC  
                                   i2u634_41 0274                                     i2u626_41 01EC  
                                   i2u618_41 0164                                     i2u651_40 038E  
                                   i2u643_40 030E                                     i2u635_40 0288  
                                   i2u627_40 0200                                     i2u619_40 0178  
                                   i2u651_41 038A                                     i2u643_41 030A  
                                   i2u635_41 0284                                     i2u627_41 01FC  
                                   i2u619_41 0174                                     i2u484_40 2682  
                                   i2u652_40 03A0                                     i2u644_40 0320  
                                   i2u636_40 02A0                                     i2u628_40 0218  
                                   i2u484_41 267E                                     i2u652_41 039C  
                                   i2u644_41 031C                                     i2u636_41 029C  
                                   i2u628_41 0214                                     i2u485_40 2668  
                                   i2u653_40 03AE                                     i2u645_40 032E  
                                   i2u637_40 02AE                                     i2u629_40 0226  
                                   i2u485_41 2664                                     i2u653_41 03AA  
                                   i2u645_41 032A                                     i2u637_41 02AA  
                                   i2u629_41 0222                                     i2u486_40 264E  
                                   i2u646_40 0340                                     i2u638_40 02C0  
                                   i2u486_41 264A                                     i2u646_41 033C  
                                   i2u638_41 02BC                                     i2u487_40 2634  
                                   i2u647_40 034E                                     i2u639_40 02CE  
                                   i2u487_41 2630                                     i2u647_41 034A  
                                   i2u639_41 02CA                                     i2u488_40 25C2  
                                   i2u648_40 0360                                     i2u488_41 25BE  
                                   i2u648_41 035C                                     i2u649_40 036E  
                                   i2u649_41 036A                                     i2u489_48 25C8  
                                   i2u489_49 25DA                                     i2u598_40 0020  
                                   i2u598_41 001C                                     i2u599_40 002E  
                                   i2u599_41 002A                            RB4_ISR@RB4_source 0001  
                                   _TMR0_ISR 26CC                                     _TMR1_ISR 26BE  
                                   _TMR2_ISR 26DA                                     _TMR3_ISR 26B0  
                                 _ADCON0bits 0FC2                                   _ADCON1bits 0FC1  
                                 _ADCON2bits 0FC0        __end_of_EUSART_Baud_Rate_Calculations 1504  
              _EUSART_Baud_Rate_Calculations 101C                         ??_gpio_pin_intialize 000D  
                        _EUSART_ASYN_RX_Init 223A                          _EUSART_ASYN_TX_Init 2306  
                    gpio_pin_write_logic@ret 000B                                  _INTCON2bits 0FF1  
                                _INTCON3bits 0FF0                                    copy_data0 248C  
                                  copy_data1 24AC                         ?_EUSART_ASYN_RX_Init 0004  
                       ?_EUSART_ASYN_TX_Init 0004                                   _EECON1bits 0FA6  
                                   __Hrparam 0000                                     __Lrparam 0000  
                        EUSART_ASYN_Init@ret 0047                        _CCP1_InterruptHandler 00A9  
                         __end_of_btn_values 1011                        _TMR1_InterruptHandler 0089  
                          RB6_ISR@RB6_source 0001                                     ___xxtofl 1D5E  
                   __end_of_EUSART_ASYN_Init 25AC        __end_of_EUSART_ASYN_WriteByteBlocking 26A0  
              _EUSART_ASYN_WriteByteBlocking 2688                                     __ptext10 23AA  
                                   __ptext11 241A                                     __ptext20 26CC  
                                   __ptext12 2024                                     __ptext21 2620  
                                   __ptext13 1F12                                     __ptext30 26FE  
                                   __ptext22 263A                                     __ptext14 24D0  
                                   __ptext31 26F2                                     __ptext23 2654  
                                   __ptext15 2688                                     __ptext32 26F6  
                                   __ptext24 266E                                     __ptext33 26FA  
                                   __ptext25 26E6                                     __ptext17 26B0  
                                   __ptext26 26EA                                     __ptext18 26DA  
                                   __ptext27 26EE                                     __ptext19 26BE  
                                   __ptext28 25AC                                     __ptext29 26A0  
                      ??_EUSART_ASYN_RX_Init 0005                        ??_EUSART_ASYN_TX_Init 0005  
                                   isa$xinst 0000                                     int$flags 004D  
                    ??_usart_module_int_init 0048                                   _INTCONbits 0FF2  
             ?_EUSART_Baud_Rate_Calculations 003B                 __end_of_gpio_pin_write_logic 2134  
                                   intlevel2 0000                    _EUSART_RXInterruptHandler 007D  
                             _port_registers 00B6                                ___fladd@signs 0037  
             ?_EUSART_ASYN_WriteByteBlocking 0001                        _CCP2_InterruptHandler 00A7  
                    EUSART_ASYN_Init@_eusart 0046                                 ___fladd@aexp 0038  
                               ___fladd@bexp 0039                        _TMR2_InterruptHandler 0085  
                          ?_InterruptManager 0001                               _led_initialize 23AA  
