

Microchip MPLAB XC8 Assembler V2.46 build 20240104201356 
                                                                                               Tue Aug 27 23:17:25 2024

Microchip MPLAB XC8 C Compiler v2.46 (Free license) build 20240104201356 Og1 
     1                           	processor	18F46K20
     2                           	fnconf	rparam,??,?,0
     3                           	pagewidth 120
     4                           	opt	flic
     5                           	psect	idataCOMRAM,global,class=CODE,delta=1,noexec
     6                           	psect	smallconst,global,reloc=2,class=SMALLCONST,delta=1,noexec
     7                           	psect	nvCOMRAM,global,class=COMRAM,space=1,delta=1,lowdata,noexec
     8                           	psect	cinit,global,reloc=2,class=CODE,delta=1
     9                           	psect	bssCOMRAM,global,class=COMRAM,space=1,delta=1,lowdata,noexec
    10                           	psect	dataCOMRAM,global,class=COMRAM,space=1,delta=1,lowdata,noexec
    11                           	psect	cstackCOMRAM,global,class=COMRAM,space=1,delta=1,lowdata,noexec
    12                           	psect	text0,global,reloc=2,class=CODE,delta=1
    13                           	psect	text1,global,reloc=2,class=CODE,delta=1
    14                           	psect	text2,global,reloc=2,class=CODE,delta=1
    15                           	psect	text3,global,reloc=2,class=CODE,delta=1
    16                           	psect	text4,global,reloc=2,class=CODE,delta=1
    17                           	psect	text5,global,reloc=2,class=CODE,delta=1
    18                           	psect	text6,global,reloc=2,class=CODE,delta=1
    19                           	psect	text7,global,reloc=2,class=CODE,delta=1
    20                           	psect	text8,global,reloc=2,class=CODE,delta=1
    21                           	psect	intcode,global,reloc=2,class=CODE,delta=1
    22                           	psect	text10,global,reloc=2,class=CODE,delta=1
    23                           	psect	text11,global,reloc=2,class=CODE,delta=1
    24                           	psect	text12,global,reloc=2,class=CODE,delta=1
    25                           	psect	text13,global,reloc=2,class=CODE,delta=1
    26                           	psect	text14,global,reloc=2,class=CODE,delta=1
    27                           	psect	text15,global,reloc=2,class=CODE,delta=1
    28                           	psect	text16,global,reloc=2,class=CODE,delta=1
    29                           	psect	intsave_regs,global,class=BIGRAM,space=1,delta=1,noexec
    30                           	psect	rparam,global,class=COMRAM,space=1,delta=1,noexec
    31                           	psect	temp,global,ovrld,common,class=COMRAM,space=1,delta=1,lowdata
    32                           	psect	config,global,abs,ovrld,class=CONFIG,space=4,delta=1,noexec
    33   000000                     
    34                           ; Generated 12/10/2023 GMT
    35                           ; 
    36                           ; Copyright © 2023, Microchip Technology Inc. and its subsidiaries ("Microchip")
    37                           ; All rights reserved.
    38                           ; 
    39                           ; This software is developed by Microchip Technology Inc. and its subsidiaries ("Microch
      +                          ip").
    40                           ; 
    41                           ; Redistribution and use in source and binary forms, with or without modification, are
    42                           ; permitted provided that the following conditions are met:
    43                           ; 
    44                           ;     1. Redistributions of source code must retain the above copyright notice, this lis
      +                          t of
    45                           ;        conditions and the following disclaimer.
    46                           ; 
    47                           ;     2. Redistributions in binary form must reproduce the above copyright notice, this 
      +                          list
    48                           ;        of conditions and the following disclaimer in the documentation and/or other
    49                           ;        materials provided with the distribution. Publication is not required when
    50                           ;        this file is used in an embedded application.
    51                           ; 
    52                           ;     3. Microchip's name may not be used to endorse or promote products derived from th
      +                          is
    53                           ;        software without specific prior written permission.
    54                           ; 
    55                           ; THIS SOFTWARE IS PROVIDED BY MICROCHIP "AS IS" AND ANY EXPRESS OR IMPLIED WARRANTIES,
    56                           ; INCLUDING, BUT NOT LIMITED TO, THE IMPLIED WARRANTIES OF MERCHANTABILITY AND FITNESS F
      +                          OR
    57                           ; PURPOSE ARE DISCLAIMED.  IN NO EVENT SHALL MICROCHIP BE LIABLE FOR ANY DIRECT, INDIREC
      +                          T,
    58                           ; INCIDENTAL, SPECIAL, EXEMPLARY, OR CONSEQUENTIAL DAMAGES (INCLUDING BUT NOT LIMITED TO
    59                           ; PROCUREMENT OF SUBSTITUTE GOODS OR SERVICES; LOSS OF USE, DATA OR PROFITS; OR BUSINESS
    60                           ; INTERRUPTION) HOWSOEVER CAUSED AND ON ANY THEORY OF LIABILITY, WHETHER IN CONTRACT, ST
      +                          RICT
    61                           ; LIABILITY, OR TORT (INCLUDING NEGLIGENCE OR OTHERWISE) ARISING IN ANY WAY OUT OF THE U
      +                          SE OF
    62                           ; THIS SOFTWARE, EVEN IF ADVISED OF THE POSSIBILITY OF SUCH DAMAGE.
    63                           ; 
    64                           ; 
    65                           ; Code-generator required, PIC18F46K20 Definitions
    66                           ; 
    67                           ; SFR Addresses
    68   000000                     
    69                           	psect	idataCOMRAM
    70   00152C                     __pidataCOMRAM:
    71                           	callstack 0
    72                           
    73                           ;initializer for _port_registers
    74   00152C  80                 	db	128
    75   00152D  0F                 	db	15
    76   00152E  81                 	db	129
    77   00152F  0F                 	db	15
    78   001530  82                 	db	130
    79   001531  0F                 	db	15
    80   001532  83                 	db	131
    81   001533  0F                 	db	15
    82   001534  84                 	db	132
    83   001535  0F                 	db	15
    84                           
    85                           ;initializer for _lat_registers
    86   001536  89                 	db	137
    87   001537  0F                 	db	15
    88   001538  8A                 	db	138
    89   001539  0F                 	db	15
    90   00153A  8B                 	db	139
    91   00153B  0F                 	db	15
    92   00153C  8C                 	db	140
    93   00153D  0F                 	db	15
    94   00153E  8D                 	db	141
    95   00153F  0F                 	db	15
    96                           
    97                           ;initializer for _tris_registers
    98   001540  92                 	db	146
    99   001541  0F                 	db	15
   100   001542  93                 	db	147
   101   001543  0F                 	db	15
   102   001544  94                 	db	148
   103   001545  0F                 	db	15
   104   001546  95                 	db	149
   105   001547  0F                 	db	15
   106   001548  96                 	db	150
   107   001549  0F                 	db	15
   108                           
   109                           ;initializer for _RB7_Flag
   110   00154A  01                 	db	1
   111                           
   112                           ;initializer for _RB6_Flag
   113   00154B  01                 	db	1
   114                           
   115                           ;initializer for _RB5_Flag
   116   00154C  01                 	db	1
   117                           
   118                           ;initializer for _RB4_Flag
   119   00154D  01                 	db	1
   120                           
   121                           ;initializer for _led_1
   122   00154E  03                 	db	3
   123                           
   124                           	psect	smallconst
   125   001000                     __psmallconst:
   126                           	callstack 0
   127   001000  00                 	db	0
   128   001001                     _btn_values:
   129                           	callstack 0
   130   001001  37                 	db	55
   131   001002  38                 	db	56
   132   001003  39                 	db	57
   133   001004  2F                 	db	47
   134   001005  34                 	db	52
   135   001006  35                 	db	53
   136   001007  36                 	db	54
   137   001008  37                 	db	55
   138   001009  31                 	db	49
   139   00100A  32                 	db	50
   140   00100B  33                 	db	51
   141   00100C  34                 	db	52
   142   00100D  23                 	db	35
   143   00100E  30                 	db	48
   144   00100F  3D                 	db	61
   145   001010  2B                 	db	43
   146   001011                     __end_of_btn_values:
   147                           	callstack 0
   148   000000                     _EECON2	set	4007
   149   000000                     _INTCON2bits	set	4081
   150   001011                     STR_1:
   151   001011  25                 	db	37
   152   001012  69                 	db	105	;'i'
   153   001013  00                 	db	0
   154   001014  00                 	db	0	; dummy byte at the end
   155   000000                     
   156                           	psect	nvCOMRAM
   157   000055                     __pnvCOMRAM:
   158                           	callstack 0
   159   000055                     _ret:
   160                           	callstack 0
   161   000055                     	ds	1
   162   000000                     _PORTBbits	set	3969
   163   000000                     _PORTA	set	3968
   164   000000                     _LATA	set	3977
   165   000000                     _TRISA	set	3986
   166   000000                     _EECON1bits	set	4006
   167   000000                     _EEDATA	set	4008
   168   000000                     _EEADR	set	4009
   169   000000                     _EEADRH	set	4010
   170   000000                     _INTCON3bits	set	4080
   171   000000                     _INTCONbits	set	4082
   172   000000                     _TRISE	set	3990
   173   000000                     _TRISD	set	3989
   174   000000                     _TRISC	set	3988
   175   000000                     _TRISB	set	3987
   176   000000                     _LATE	set	3981
   177   000000                     _LATD	set	3980
   178   000000                     _LATC	set	3979
   179   000000                     _LATB	set	3978
   180   000000                     _PORTE	set	3972
   181   000000                     _PORTD	set	3971
   182   000000                     _PORTC	set	3970
   183   000000                     _PORTB	set	3969
   184                           
   185                           ; #config settings
   186                           
   187                           	psect	cinit
   188   0014F6                     __pcinit:
   189                           	callstack 0
   190   0014F6                     start_initialization:
   191                           	callstack 0
   192   0014F6                     __initialization:
   193                           	callstack 0
   194                           
   195                           ; Initialize objects allocated to COMRAM (35 bytes)
   196                           ; load TBLPTR registers with __pidataCOMRAM
   197   0014F6  0E2C               	movlw	low __pidataCOMRAM
   198   0014F8  6EF6               	movwf	tblptrl,c
   199   0014FA  0E15               	movlw	high __pidataCOMRAM
   200   0014FC  6EF7               	movwf	tblptrh,c
   201   0014FE  0E00               	movlw	low (__pidataCOMRAM shr (0+16))
   202   001500  6EF8               	movwf	tblptru,c
   203   001502  EE00  F001         	lfsr	0,__pdataCOMRAM
   204   001506  EE10 F023          	lfsr	1,35
   205   00150A                     copy_data0:
   206   00150A  0009               	tblrd		*+
   207   00150C  CFF5 FFEE          	movff	tablat,postinc0
   208   001510  50E5               	movf	postdec1,w,c
   209   001512  50E1               	movf	fsr1l,w,c
   210   001514  E1FA               	bnz	copy_data0
   211                           
   212                           ; Clear objects allocated to COMRAM (31 bytes)
   213   001516  EE00  F024         	lfsr	0,__pbssCOMRAM
   214   00151A  0E1F               	movlw	31
   215   00151C                     clear_0:
   216   00151C  6AEE               	clrf	postinc0,c
   217   00151E  06E8               	decf	wreg,f,c
   218   001520  E1FD               	bnz	clear_0
   219   001522                     end_of_initialization:
   220                           	callstack 0
   221   001522                     __end_of__initialization:
   222                           	callstack 0
   223   001522  9056               	bcf	int$flags,0,c	;clear compiler interrupt flag (level 1)
   224   001524  9256               	bcf	int$flags,1,c	;clear compiler interrupt flag (level 2)
   225   001526  0100               	movlb	0
   226   001528  EF1C  F009         	goto	_main	;jump to C main() function
   227                           
   228                           	psect	bssCOMRAM
   229   000024                     __pbssCOMRAM:
   230                           	callstack 0
   231   000024                     _RB7_InterruptHandler_LOW:
   232                           	callstack 0
   233   000024                     	ds	2
   234   000026                     _RB7_InterruptHandler_HIGH:
   235                           	callstack 0
   236   000026                     	ds	2
   237   000028                     _RB6_InterruptHandler_LOW:
   238                           	callstack 0
   239   000028                     	ds	2
   240   00002A                     _RB6_InterruptHandler_HIGH:
   241                           	callstack 0
   242   00002A                     	ds	2
   243   00002C                     _RB5_InterruptHandler_LOW:
   244                           	callstack 0
   245   00002C                     	ds	2
   246   00002E                     _RB5_InterruptHandler_HIGH:
   247                           	callstack 0
   248   00002E                     	ds	2
   249   000030                     _RB4_InterruptHandler_LOW:
   250                           	callstack 0
   251   000030                     	ds	2
   252   000032                     _RB4_InterruptHandler_HIGH:
   253                           	callstack 0
   254   000032                     	ds	2
   255   000034                     _INT2_InterruptHandler:
   256                           	callstack 0
   257   000034                     	ds	2
   258   000036                     _INT1_InterruptHandler:
   259                           	callstack 0
   260   000036                     	ds	2
   261   000038                     _INT0_InterruptHandler:
   262                           	callstack 0
   263   000038                     	ds	2
   264   00003A                     _eeprom_val:
   265                           	callstack 0
   266   00003A                     	ds	1
   267   00003B                     relay_turn_off@F3314:
   268                           	callstack 0
   269   00003B                     	ds	1
   270   00003C                     relay_turn_on@F3309:
   271                           	callstack 0
   272   00003C                     	ds	1
   273   00003D                     relay_initialize@F3304:
   274                           	callstack 0
   275   00003D                     	ds	1
   276   00003E                     led_turn_toggle@F3325:
   277                           	callstack 0
   278   00003E                     	ds	1
   279   00003F                     led_turn_off@F3320:
   280                           	callstack 0
   281   00003F                     	ds	1
   282   000040                     led_turn_on@F3315:
   283                           	callstack 0
   284   000040                     	ds	1
   285   000041                     led_initialize@F3310:
   286                           	callstack 0
   287   000041                     	ds	1
   288   000042                     _eeprom_val_read:
   289                           	callstack 0
   290   000042                     	ds	1
   291                           
   292                           	psect	dataCOMRAM
   293   000001                     __pdataCOMRAM:
   294                           	callstack 0
   295   000001                     _port_registers:
   296                           	callstack 0
   297   000001                     	ds	10
   298   00000B                     _lat_registers:
   299                           	callstack 0
   300   00000B                     	ds	10
   301   000015                     _tris_registers:
   302                           	callstack 0
   303   000015                     	ds	10
   304   00001F                     _RB7_Flag:
   305                           	callstack 0
   306   00001F                     	ds	1
   307   000020                     _RB6_Flag:
   308                           	callstack 0
   309   000020                     	ds	1
   310   000021                     _RB5_Flag:
   311                           	callstack 0
   312   000021                     	ds	1
   313   000022                     _RB4_Flag:
   314                           	callstack 0
   315   000022                     	ds	1
   316   000023                     _led_1:
   317                           	callstack 0
   318   000023                     	ds	1
   319                           
   320                           	psect	cstackCOMRAM
   321   000043                     __pcstackCOMRAM:
   322                           	callstack 0
   323   000043                     RB4_ISR@RB4_source:
   324                           	callstack 0
   325   000043                     RB5_ISR@RB5_source:
   326                           	callstack 0
   327   000043                     RB6_ISR@RB6_source:
   328                           	callstack 0
   329   000043                     RB7_ISR@RB7_source:
   330                           	callstack 0
   331                           
   332                           ; 1 bytes @ 0x0
   333   000043                     	ds	1
   334   000044                     gpio_pin_direction_intialize@_pin_config:
   335                           	callstack 0
   336   000044                     gpio_pin_write_logic@_pin_config:
   337                           	callstack 0
   338   000044                     Data_EEPROM_WriteByte@bAdd:
   339                           	callstack 0
   340   000044                     Data_EEPROM_ReadByte@bAdd:
   341                           	callstack 0
   342                           
   343                           ; 2 bytes @ 0x1
   344   000044                     	ds	1
   345   000045                     ??_gpio_pin_direction_intialize:
   346   000045                     gpio_pin_write_logic@logic:
   347                           	callstack 0
   348                           
   349                           ; 1 bytes @ 0x2
   350   000045                     	ds	1
   351   000046                     ??_gpio_pin_write_logic:
   352   000046                     Data_EEPROM_WriteByte@bData:
   353                           	callstack 0
   354   000046                     Data_EEPROM_ReadByte@bData:
   355                           	callstack 0
   356                           
   357                           ; 1 bytes @ 0x3
   358   000046                     	ds	1
   359   000047                     Data_EEPROM_WriteByte@Global_Interrupt_Status:
   360                           	callstack 0
   361   000047                     Data_EEPROM_ReadByte@ret:
   362                           	callstack 0
   363                           
   364                           ; 1 bytes @ 0x4
   365   000047                     	ds	3
   366   00004A                     gpio_pin_direction_intialize@ret:
   367                           	callstack 0
   368                           
   369                           ; 1 bytes @ 0x7
   370   00004A                     	ds	1
   371   00004B                     gpio_pin_write_logic@ret:
   372                           	callstack 0
   373                           
   374                           ; 1 bytes @ 0x8
   375   00004B                     	ds	1
   376   00004C                     led_turn_on@led:
   377                           	callstack 0
   378   00004C                     led_turn_off@led:
   379                           	callstack 0
   380   00004C                     gpio_pin_intialize@_pin_config:
   381                           	callstack 0
   382                           
   383                           ; 1 bytes @ 0x9
   384   00004C                     	ds	1
   385   00004D                     ??_gpio_pin_intialize:
   386   00004D                     ??_led_turn_on:
   387   00004D                     ??_led_turn_off:
   388                           
   389                           ; 1 bytes @ 0xA
   390   00004D                     	ds	1
   391   00004E                     led_turn_on@ret:
   392                           	callstack 0
   393   00004E                     led_turn_off@ret:
   394                           	callstack 0
   395   00004E                     gpio_pin_intialize@ret:
   396                           	callstack 0
   397                           
   398                           ; 1 bytes @ 0xB
   399   00004E                     	ds	1
   400   00004F                     led_initialize@led:
   401                           	callstack 0
   402   00004F                     led_turn_on@pin_obj:
   403                           	callstack 0
   404   00004F                     led_turn_off@pin_obj:
   405                           	callstack 0
   406                           
   407                           ; 1 bytes @ 0xC
   408   00004F                     	ds	1
   409   000050                     ??_led_initialize:
   410                           
   411                           ; 1 bytes @ 0xD
   412   000050                     	ds	1
   413   000051                     led_initialize@ret:
   414                           	callstack 0
   415                           
   416                           ; 1 bytes @ 0xE
   417   000051                     	ds	1
   418   000052                     led_initialize@pin_obj:
   419                           	callstack 0
   420                           
   421                           ; 1 bytes @ 0xF
   422   000052                     	ds	1
   423   000053                     ??_main:
   424                           
   425                           ; 1 bytes @ 0x10
   426   000053                     	ds	2
   427                           
   428 ;;
   429 ;;Main: autosize = 0, tempsize = 2, incstack = 0, save=0
   430 ;;
   431 ;; *************** function _main *****************
   432 ;; Defined at:
   433 ;;		line 20 in file "application.c"
   434 ;; Parameters:    Size  Location     Type
   435 ;;		None
   436 ;; Auto vars:     Size  Location     Type
   437 ;;		None
   438 ;; Return value:  Size  Location     Type
   439 ;;                  2  745[None  ] int 
   440 ;; Registers used:
   441 ;;		wreg, fsr2l, fsr2h, status,2, status,0, prodl, prodh, cstack
   442 ;; Tracked objects:
   443 ;;		On entry : 0/0
   444 ;;		On exit  : 0/0
   445 ;;		Unchanged: 0/0
   446 ;; Data sizes:     COMRAM   BANK0   BANK1   BANK2   BANK3   BANK4   BANK5   BANK6   BANK7   BANK8   BANK9  BANK10  BANK1
      +1  BANK12  BANK13  BANK14  BANK15
   447 ;;      Params:         0       0       0       0       0       0       0       0       0       0       0       0       
      +0       0       0       0       0
   448 ;;      Locals:         0       0       0       0       0       0       0       0       0       0       0       0       
      +0       0       0       0       0
   449 ;;      Temps:          2       0       0       0       0       0       0       0       0       0       0       0       
      +0       0       0       0       0
   450 ;;      Totals:         2       0       0       0       0       0       0       0       0       0       0       0       
      +0       0       0       0       0
   451 ;;Total ram usage:        2 bytes
   452 ;; Hardware stack levels required when called: 5
   453 ;; This function calls:
   454 ;;		_Data_EEPROM_ReadByte
   455 ;;		_Data_EEPROM_WriteByte
   456 ;;		_led_initialize
   457 ;;		_led_turn_off
   458 ;;		_led_turn_on
   459 ;; This function is called by:
   460 ;;		Startup code after reset
   461 ;; This function uses a non-reentrant model
   462 ;;
   463                           
   464                           	psect	text0
   465   001238                     __ptext0:
   466                           	callstack 0
   467   001238                     _main:
   468                           	callstack 26
   469   001238                     
   470                           ;application.c: 22:     ret = led_initialize(&led_1);
   471   001238  0E23               	movlw	low _led_1
   472   00123A  6E4F               	movwf	led_initialize@led^0,c
   473   00123C  ECD2  F009         	call	_led_initialize	;wreg free
   474   001240  6E55               	movwf	_ret^0,c
   475   001242                     
   476                           ;application.c: 23:     ret = Data_EEPROM_WriteByte(0x3FF, 0);
   477   001242  0E03               	movlw	3
   478   001244  6E45               	movwf	(Data_EEPROM_WriteByte@bAdd+1)^0,c
   479   001246  6844               	setf	Data_EEPROM_WriteByte@bAdd^0,c
   480   001248  0E00               	movlw	0
   481   00124A  6E46               	movwf	Data_EEPROM_WriteByte@bData^0,c
   482   00124C  EC39  F00A         	call	_Data_EEPROM_WriteByte	;wreg free
   483   001250  6E55               	movwf	_ret^0,c
   484   001252                     l3586:
   485                           
   486                           ;application.c: 26:     {;application.c: 27:         ret = Data_EEPROM_WriteByte(0x3FF, 
      +                          eeprom_val++);
   487   001252  0E03               	movlw	3
   488   001254  6E45               	movwf	(Data_EEPROM_WriteByte@bAdd+1)^0,c
   489   001256  6844               	setf	Data_EEPROM_WriteByte@bAdd^0,c
   490   001258  C03A  F046         	movff	_eeprom_val,Data_EEPROM_WriteByte@bData
   491   00125C  EC39  F00A         	call	_Data_EEPROM_WriteByte	;wreg free
   492   001260  6E55               	movwf	_ret^0,c
   493   001262  2A3A               	incf	_eeprom_val^0,f,c
   494   001264                     
   495                           ;application.c: 28:         _delay((unsigned long)((1000)*(8000000UL/4000.0)));
   496   001264  0E0B               	movlw	11
   497   001266  6E54               	movwf	(??_main+1)^0,c
   498   001268  0E26               	movlw	38
   499   00126A  6E53               	movwf	??_main^0,c
   500   00126C  0E5E               	movlw	94
   501   00126E                     u2527:
   502   00126E  2EE8               	decfsz	wreg,f,c
   503   001270  D7FE               	bra	u2527
   504   001272  2E53               	decfsz	??_main^0,f,c
   505   001274  D7FC               	bra	u2527
   506   001276  2E54               	decfsz	(??_main+1)^0,f,c
   507   001278  D7FA               	bra	u2527
   508   00127A                     
   509                           ;application.c: 29:         ret = Data_EEPROM_ReadByte(0x3FF, &eeprom_val_read);
   510   00127A  0E03               	movlw	3
   511   00127C  6E45               	movwf	(Data_EEPROM_ReadByte@bAdd+1)^0,c
   512   00127E  6844               	setf	Data_EEPROM_ReadByte@bAdd^0,c
   513   001280  0E42               	movlw	low _eeprom_val_read
   514   001282  6E46               	movwf	Data_EEPROM_ReadByte@bData^0,c
   515   001284  EC5C  F00A         	call	_Data_EEPROM_ReadByte	;wreg free
   516   001288  6E55               	movwf	_ret^0,c
   517   00128A                     
   518                           ;application.c: 31:         if (5 == eeprom_val_read)
   519   00128A  0E05               	movlw	5
   520   00128C  1842               	xorwf	_eeprom_val_read^0,w,c
   521   00128E  A4D8               	btfss	status,2,c
   522   001290  EF4C  F009         	goto	u2511
   523   001294  EF4E  F009         	goto	u2510
   524   001298                     u2511:
   525   001298  EF55  F009         	goto	l3598
   526   00129C                     u2510:
   527   00129C                     
   528                           ;application.c: 32:         {;application.c: 33:             ret = led_turn_on(&led_1);
   529   00129C  0E23               	movlw	low _led_1
   530   00129E  6E4C               	movwf	led_turn_on@led^0,c
   531   0012A0  EC5E  F009         	call	_led_turn_on	;wreg free
   532   0012A4  6E55               	movwf	_ret^0,c
   533                           
   534                           ;application.c: 34:         }
   535   0012A6  EF29  F009         	goto	l3586
   536   0012AA                     l3598:
   537                           
   538                           ;application.c: 36:         {;application.c: 37:             ret = led_turn_off(&led_1);
   539   0012AA  0E23               	movlw	low _led_1
   540   0012AC  6E4C               	movwf	led_turn_off@led^0,c
   541   0012AE  EC98  F009         	call	_led_turn_off	;wreg free
   542   0012B2  6E55               	movwf	_ret^0,c
   543   0012B4  EF29  F009         	goto	l3586
   544   0012B8  EF47  F001         	goto	start
   545   0012BC                     __end_of_main:
   546                           	callstack 0
   547                           
   548 ;; *************** function _led_turn_on *****************
   549 ;; Defined at:
   550 ;;		line 44 in file "ECU_Layer/LED/ecu_led.c"
   551 ;; Parameters:    Size  Location     Type
   552 ;;  led             1    9[COMRAM] PTR const struct .
   553 ;;		 -> led_1(1), 
   554 ;; Auto vars:     Size  Location     Type
   555 ;;  pin_obj         1   12[COMRAM] struct .
   556 ;;  ret             1   11[COMRAM] unsigned char 
   557 ;; Return value:  Size  Location     Type
   558 ;;                  1    wreg      unsigned char 
   559 ;; Registers used:
   560 ;;		wreg, fsr2l, fsr2h, status,2, status,0, prodl, prodh, cstack
   561 ;; Tracked objects:
   562 ;;		On entry : 0/0
   563 ;;		On exit  : 0/0
   564 ;;		Unchanged: 0/0
   565 ;; Data sizes:     COMRAM   BANK0   BANK1   BANK2   BANK3   BANK4   BANK5   BANK6   BANK7   BANK8   BANK9  BANK10  BANK1
      +1  BANK12  BANK13  BANK14  BANK15
   566 ;;      Params:         1       0       0       0       0       0       0       0       0       0       0       0       
      +0       0       0       0       0
   567 ;;      Locals:         2       0       0       0       0       0       0       0       0       0       0       0       
      +0       0       0       0       0
   568 ;;      Temps:          1       0       0       0       0       0       0       0       0       0       0       0       
      +0       0       0       0       0
   569 ;;      Totals:         4       0       0       0       0       0       0       0       0       0       0       0       
      +0       0       0       0       0
   570 ;;Total ram usage:        4 bytes
   571 ;; Hardware stack levels used: 1
   572 ;; Hardware stack levels required when called: 3
   573 ;; This function calls:
   574 ;;		_gpio_pin_write_logic
   575 ;; This function is called by:
   576 ;;		_main
   577 ;; This function uses a non-reentrant model
   578 ;;
   579                           
   580                           	psect	text1
   581   0012BC                     __ptext1:
   582                           	callstack 0
   583   0012BC                     _led_turn_on:
   584                           	callstack 27
   585   0012BC                     
   586                           ;ECU_Layer/LED/ecu_led.c: 45:     Std_ReturnType ret = (Std_ReturnType)0x01;
   587   0012BC  0E01               	movlw	1
   588   0012BE  6E4E               	movwf	led_turn_on@ret^0,c
   589                           
   590                           ;ECU_Layer/LED/ecu_led.c: 46:     if (led == ((void*)0))
   591   0012C0  504C               	movf	led_turn_on@led^0,w,c
   592   0012C2  A4D8               	btfss	status,2,c
   593   0012C4  EF66  F009         	goto	u1961
   594   0012C8  EF68  F009         	goto	u1960
   595   0012CC                     u1961:
   596   0012CC  EF6C  F009         	goto	l293
   597   0012D0                     u1960:
   598   0012D0                     
   599                           ;ECU_Layer/LED/ecu_led.c: 47:     {;ECU_Layer/LED/ecu_led.c: 48:         ret = (Std_Retu
      +                          rnType)0x00;
   600   0012D0  0E00               	movlw	0
   601   0012D2  6E4E               	movwf	led_turn_on@ret^0,c
   602                           
   603                           ;ECU_Layer/LED/ecu_led.c: 49:     }
   604   0012D4  EF96  F009         	goto	l3010
   605   0012D8                     l293:
   606                           
   607                           ;ECU_Layer/LED/ecu_led.c: 51:     {;ECU_Layer/LED/ecu_led.c: 52:         pin_config_t pi
      +                          n_obj = {
   608   0012D8  C040  F04F         	movff	led_turn_on@F3315,led_turn_on@pin_obj
   609   0012DC  504C               	movf	led_turn_on@led^0,w,c
   610   0012DE  6ED9               	movwf	fsr2l,c
   611   0012E0  6ADA               	clrf	fsr2h,c
   612   0012E2  50DF               	movf	223,w,c
   613   0012E4  0B0F               	andlw	15
   614   0012E6  6E4D               	movwf	??_led_turn_on^0,c
   615   0012E8  504F               	movf	led_turn_on@pin_obj^0,w,c
   616   0012EA  184D               	xorwf	??_led_turn_on^0,w,c
   617   0012EC  0BF8               	andlw	-8
   618   0012EE  184D               	xorwf	??_led_turn_on^0,w,c
   619   0012F0  6E4F               	movwf	led_turn_on@pin_obj^0,c
   620   0012F2  504C               	movf	led_turn_on@led^0,w,c
   621   0012F4  6ED9               	movwf	fsr2l,c
   622   0012F6  6ADA               	clrf	fsr2h,c
   623   0012F8  38DF               	swapf	223,w,c
   624   0012FA  0B07               	andlw	7
   625   0012FC  6E4D               	movwf	??_led_turn_on^0,c
   626   0012FE  464D               	rlncf	??_led_turn_on^0,f,c
   627   001300  464D               	rlncf	??_led_turn_on^0,f,c
   628   001302  464D               	rlncf	??_led_turn_on^0,f,c
   629   001304  504F               	movf	led_turn_on@pin_obj^0,w,c
   630   001306  184D               	xorwf	??_led_turn_on^0,w,c
   631   001308  0BC7               	andlw	-57
   632   00130A  184D               	xorwf	??_led_turn_on^0,w,c
   633   00130C  6E4F               	movwf	led_turn_on@pin_obj^0,c
   634   00130E  9C4F               	bcf	led_turn_on@pin_obj^0,6,c
   635   001310  504C               	movf	led_turn_on@led^0,w,c
   636   001312  6ED9               	movwf	fsr2l,c
   637   001314  6ADA               	clrf	fsr2h,c
   638   001316  AEDF               	btfss	indf2,7,c
   639   001318  D002               	bra	u1975
   640   00131A  8E4F               	bsf	led_turn_on@pin_obj^0,7,c
   641   00131C  D001               	bra	u1977
   642   00131E                     u1975:
   643   00131E  9E4F               	bcf	led_turn_on@pin_obj^0,7,c
   644   001320                     u1977:
   645   001320                     
   646                           ;ECU_Layer/LED/ecu_led.c: 58:         gpio_pin_write_logic(&pin_obj, GPIO_HIGH);
   647   001320  0E4F               	movlw	low led_turn_on@pin_obj
   648   001322  6E44               	movwf	gpio_pin_write_logic@_pin_config^0,c
   649   001324  0E01               	movlw	1
   650   001326  6E45               	movwf	gpio_pin_write_logic@logic^0,c
   651   001328  EC94  F008         	call	_gpio_pin_write_logic	;wreg free
   652   00132C                     l3010:
   653                           
   654                           ;ECU_Layer/LED/ecu_led.c: 61:     return ret;
   655   00132C  504E               	movf	led_turn_on@ret^0,w,c
   656   00132E  0012               	return		;funcret
   657   001330                     __end_of_led_turn_on:
   658                           	callstack 0
   659                           
   660 ;; *************** function _led_turn_off *****************
   661 ;; Defined at:
   662 ;;		line 72 in file "ECU_Layer/LED/ecu_led.c"
   663 ;; Parameters:    Size  Location     Type
   664 ;;  led             1    9[COMRAM] PTR const struct .
   665 ;;		 -> led_1(1), 
   666 ;; Auto vars:     Size  Location     Type
   667 ;;  pin_obj         1   12[COMRAM] struct .
   668 ;;  ret             1   11[COMRAM] unsigned char 
   669 ;; Return value:  Size  Location     Type
   670 ;;                  1    wreg      unsigned char 
   671 ;; Registers used:
   672 ;;		wreg, fsr2l, fsr2h, status,2, status,0, prodl, prodh, cstack
   673 ;; Tracked objects:
   674 ;;		On entry : 0/0
   675 ;;		On exit  : 0/0
   676 ;;		Unchanged: 0/0
   677 ;; Data sizes:     COMRAM   BANK0   BANK1   BANK2   BANK3   BANK4   BANK5   BANK6   BANK7   BANK8   BANK9  BANK10  BANK1
      +1  BANK12  BANK13  BANK14  BANK15
   678 ;;      Params:         1       0       0       0       0       0       0       0       0       0       0       0       
      +0       0       0       0       0
   679 ;;      Locals:         2       0       0       0       0       0       0       0       0       0       0       0       
      +0       0       0       0       0
   680 ;;      Temps:          1       0       0       0       0       0       0       0       0       0       0       0       
      +0       0       0       0       0
   681 ;;      Totals:         4       0       0       0       0       0       0       0       0       0       0       0       
      +0       0       0       0       0
   682 ;;Total ram usage:        4 bytes
   683 ;; Hardware stack levels used: 1
   684 ;; Hardware stack levels required when called: 3
   685 ;; This function calls:
   686 ;;		_gpio_pin_write_logic
   687 ;; This function is called by:
   688 ;;		_main
   689 ;; This function uses a non-reentrant model
   690 ;;
   691                           
   692                           	psect	text2
   693   001330                     __ptext2:
   694                           	callstack 0
   695   001330                     _led_turn_off:
   696                           	callstack 27
   697   001330                     
   698                           ;ECU_Layer/LED/ecu_led.c: 73:     Std_ReturnType ret = (Std_ReturnType)0x01;
   699   001330  0E01               	movlw	1
   700   001332  6E4E               	movwf	led_turn_off@ret^0,c
   701                           
   702                           ;ECU_Layer/LED/ecu_led.c: 74:     if (led == ((void*)0))
   703   001334  504C               	movf	led_turn_off@led^0,w,c
   704   001336  A4D8               	btfss	status,2,c
   705   001338  EFA0  F009         	goto	u1981
   706   00133C  EFA2  F009         	goto	u1980
   707   001340                     u1981:
   708   001340  EFA6  F009         	goto	l300
   709   001344                     u1980:
   710   001344                     
   711                           ;ECU_Layer/LED/ecu_led.c: 75:     {;ECU_Layer/LED/ecu_led.c: 76:         ret = (Std_Retu
      +                          rnType)0x00;
   712   001344  0E00               	movlw	0
   713   001346  6E4E               	movwf	led_turn_off@ret^0,c
   714                           
   715                           ;ECU_Layer/LED/ecu_led.c: 77:     }
   716   001348  EFD0  F009         	goto	l3026
   717   00134C                     l300:
   718                           
   719                           ;ECU_Layer/LED/ecu_led.c: 79:     {;ECU_Layer/LED/ecu_led.c: 80:         pin_config_t pi
      +                          n_obj = {
   720   00134C  C03F  F04F         	movff	led_turn_off@F3320,led_turn_off@pin_obj
   721   001350  504C               	movf	led_turn_off@led^0,w,c
   722   001352  6ED9               	movwf	fsr2l,c
   723   001354  6ADA               	clrf	fsr2h,c
   724   001356  50DF               	movf	223,w,c
   725   001358  0B0F               	andlw	15
   726   00135A  6E4D               	movwf	??_led_turn_off^0,c
   727   00135C  504F               	movf	led_turn_off@pin_obj^0,w,c
   728   00135E  184D               	xorwf	??_led_turn_off^0,w,c
   729   001360  0BF8               	andlw	-8
   730   001362  184D               	xorwf	??_led_turn_off^0,w,c
   731   001364  6E4F               	movwf	led_turn_off@pin_obj^0,c
   732   001366  504C               	movf	led_turn_off@led^0,w,c
   733   001368  6ED9               	movwf	fsr2l,c
   734   00136A  6ADA               	clrf	fsr2h,c
   735   00136C  38DF               	swapf	223,w,c
   736   00136E  0B07               	andlw	7
   737   001370  6E4D               	movwf	??_led_turn_off^0,c
   738   001372  464D               	rlncf	??_led_turn_off^0,f,c
   739   001374  464D               	rlncf	??_led_turn_off^0,f,c
   740   001376  464D               	rlncf	??_led_turn_off^0,f,c
   741   001378  504F               	movf	led_turn_off@pin_obj^0,w,c
   742   00137A  184D               	xorwf	??_led_turn_off^0,w,c
   743   00137C  0BC7               	andlw	-57
   744   00137E  184D               	xorwf	??_led_turn_off^0,w,c
   745   001380  6E4F               	movwf	led_turn_off@pin_obj^0,c
   746   001382  9C4F               	bcf	led_turn_off@pin_obj^0,6,c
   747   001384  504C               	movf	led_turn_off@led^0,w,c
   748   001386  6ED9               	movwf	fsr2l,c
   749   001388  6ADA               	clrf	fsr2h,c
   750   00138A  AEDF               	btfss	indf2,7,c
   751   00138C  D002               	bra	u1995
   752   00138E  8E4F               	bsf	led_turn_off@pin_obj^0,7,c
   753   001390  D001               	bra	u1997
   754   001392                     u1995:
   755   001392  9E4F               	bcf	led_turn_off@pin_obj^0,7,c
   756   001394                     u1997:
   757   001394                     
   758                           ;ECU_Layer/LED/ecu_led.c: 86:         gpio_pin_write_logic(&pin_obj, GPIO_LOW);
   759   001394  0E4F               	movlw	low led_turn_off@pin_obj
   760   001396  6E44               	movwf	gpio_pin_write_logic@_pin_config^0,c
   761   001398  0E00               	movlw	0
   762   00139A  6E45               	movwf	gpio_pin_write_logic@logic^0,c
   763   00139C  EC94  F008         	call	_gpio_pin_write_logic	;wreg free
   764   0013A0                     l3026:
   765                           
   766                           ;ECU_Layer/LED/ecu_led.c: 89:     return ret;
   767   0013A0  504E               	movf	led_turn_off@ret^0,w,c
   768   0013A2  0012               	return		;funcret
   769   0013A4                     __end_of_led_turn_off:
   770                           	callstack 0
   771                           
   772 ;; *************** function _led_initialize *****************
   773 ;; Defined at:
   774 ;;		line 17 in file "ECU_Layer/LED/ecu_led.c"
   775 ;; Parameters:    Size  Location     Type
   776 ;;  led             1   12[COMRAM] PTR const struct .
   777 ;;		 -> led_1(1), 
   778 ;; Auto vars:     Size  Location     Type
   779 ;;  pin_obj         1   15[COMRAM] struct .
   780 ;;  ret             1   14[COMRAM] unsigned char 
   781 ;; Return value:  Size  Location     Type
   782 ;;                  1    wreg      unsigned char 
   783 ;; Registers used:
   784 ;;		wreg, fsr2l, fsr2h, status,2, status,0, prodl, prodh, cstack
   785 ;; Tracked objects:
   786 ;;		On entry : 0/0
   787 ;;		On exit  : 0/0
   788 ;;		Unchanged: 0/0
   789 ;; Data sizes:     COMRAM   BANK0   BANK1   BANK2   BANK3   BANK4   BANK5   BANK6   BANK7   BANK8   BANK9  BANK10  BANK1
      +1  BANK12  BANK13  BANK14  BANK15
   790 ;;      Params:         1       0       0       0       0       0       0       0       0       0       0       0       
      +0       0       0       0       0
   791 ;;      Locals:         2       0       0       0       0       0       0       0       0       0       0       0       
      +0       0       0       0       0
   792 ;;      Temps:          1       0       0       0       0       0       0       0       0       0       0       0       
      +0       0       0       0       0
   793 ;;      Totals:         4       0       0       0       0       0       0       0       0       0       0       0       
      +0       0       0       0       0
   794 ;;Total ram usage:        4 bytes
   795 ;; Hardware stack levels used: 1
   796 ;; Hardware stack levels required when called: 4
   797 ;; This function calls:
   798 ;;		_gpio_pin_intialize
   799 ;; This function is called by:
   800 ;;		_main
   801 ;; This function uses a non-reentrant model
   802 ;;
   803                           
   804                           	psect	text3
   805   0013A4                     __ptext3:
   806                           	callstack 0
   807   0013A4                     _led_initialize:
   808                           	callstack 26
   809   0013A4                     
   810                           ;ECU_Layer/LED/ecu_led.c: 18:     Std_ReturnType ret = (Std_ReturnType)0x01;
   811   0013A4  0E01               	movlw	1
   812   0013A6  6E51               	movwf	led_initialize@ret^0,c
   813                           
   814                           ;ECU_Layer/LED/ecu_led.c: 20:     if (led == ((void*)0))
   815   0013A8  504F               	movf	led_initialize@led^0,w,c
   816   0013AA  A4D8               	btfss	status,2,c
   817   0013AC  EFDA  F009         	goto	u1941
   818   0013B0  EFDC  F009         	goto	u1940
   819   0013B4                     u1941:
   820   0013B4  EFE0  F009         	goto	l286
   821   0013B8                     u1940:
   822   0013B8                     
   823                           ;ECU_Layer/LED/ecu_led.c: 21:     {;ECU_Layer/LED/ecu_led.c: 22:         ret = (Std_Retu
      +                          rnType)0x00;
   824   0013B8  0E00               	movlw	0
   825   0013BA  6E51               	movwf	led_initialize@ret^0,c
   826                           
   827                           ;ECU_Layer/LED/ecu_led.c: 23:     }
   828   0013BC  EF08  F00A         	goto	l2994
   829   0013C0                     l286:
   830                           
   831                           ;ECU_Layer/LED/ecu_led.c: 25:     {;ECU_Layer/LED/ecu_led.c: 26:         pin_config_t pi
      +                          n_obj = {
   832   0013C0  C041  F052         	movff	led_initialize@F3310,led_initialize@pin_obj
   833   0013C4  504F               	movf	led_initialize@led^0,w,c
   834   0013C6  6ED9               	movwf	fsr2l,c
   835   0013C8  6ADA               	clrf	fsr2h,c
   836   0013CA  50DF               	movf	223,w,c
   837   0013CC  0B0F               	andlw	15
   838   0013CE  6E50               	movwf	??_led_initialize^0,c
   839   0013D0  5052               	movf	led_initialize@pin_obj^0,w,c
   840   0013D2  1850               	xorwf	??_led_initialize^0,w,c
   841   0013D4  0BF8               	andlw	-8
   842   0013D6  1850               	xorwf	??_led_initialize^0,w,c
   843   0013D8  6E52               	movwf	led_initialize@pin_obj^0,c
   844   0013DA  504F               	movf	led_initialize@led^0,w,c
   845   0013DC  6ED9               	movwf	fsr2l,c
   846   0013DE  6ADA               	clrf	fsr2h,c
   847   0013E0  38DF               	swapf	223,w,c
   848   0013E2  0B07               	andlw	7
   849   0013E4  6E50               	movwf	??_led_initialize^0,c
   850   0013E6  4650               	rlncf	??_led_initialize^0,f,c
   851   0013E8  4650               	rlncf	??_led_initialize^0,f,c
   852   0013EA  4650               	rlncf	??_led_initialize^0,f,c
   853   0013EC  5052               	movf	led_initialize@pin_obj^0,w,c
   854   0013EE  1850               	xorwf	??_led_initialize^0,w,c
   855   0013F0  0BC7               	andlw	-57
   856   0013F2  1850               	xorwf	??_led_initialize^0,w,c
   857   0013F4  6E52               	movwf	led_initialize@pin_obj^0,c
   858   0013F6  9C52               	bcf	led_initialize@pin_obj^0,6,c
   859   0013F8  504F               	movf	led_initialize@led^0,w,c
   860   0013FA  6ED9               	movwf	fsr2l,c
   861   0013FC  6ADA               	clrf	fsr2h,c
   862   0013FE  AEDF               	btfss	indf2,7,c
   863   001400  D002               	bra	u1955
   864   001402  8E52               	bsf	led_initialize@pin_obj^0,7,c
   865   001404  D001               	bra	u1957
   866   001406                     u1955:
   867   001406  9E52               	bcf	led_initialize@pin_obj^0,7,c
   868   001408                     u1957:
   869   001408                     
   870                           ;ECU_Layer/LED/ecu_led.c: 32:         gpio_pin_intialize(&pin_obj);
   871   001408  0E52               	movlw	low led_initialize@pin_obj
   872   00140A  6E4C               	movwf	gpio_pin_intialize@_pin_config^0,c
   873   00140C  EC0A  F00A         	call	_gpio_pin_intialize	;wreg free
   874   001410                     l2994:
   875                           
   876                           ;ECU_Layer/LED/ecu_led.c: 34:     return ret;
   877   001410  5051               	movf	led_initialize@ret^0,w,c
   878   001412  0012               	return		;funcret
   879   001414                     __end_of_led_initialize:
   880                           	callstack 0
   881                           
   882 ;; *************** function _gpio_pin_intialize *****************
   883 ;; Defined at:
   884 ;;		line 167 in file "MCAL_Layer/GPIO/hal_gpio.c"
   885 ;; Parameters:    Size  Location     Type
   886 ;;  _pin_config     1    9[COMRAM] PTR const struct .
   887 ;;		 -> relay_initialize@pin_obj(1), led_initialize@pin_obj(1), 
   888 ;; Auto vars:     Size  Location     Type
   889 ;;  ret             1   11[COMRAM] unsigned char 
   890 ;; Return value:  Size  Location     Type
   891 ;;                  1    wreg      unsigned char 
   892 ;; Registers used:
   893 ;;		wreg, fsr2l, fsr2h, status,2, status,0, prodl, prodh, cstack
   894 ;; Tracked objects:
   895 ;;		On entry : 0/0
   896 ;;		On exit  : 0/0
   897 ;;		Unchanged: 0/0
   898 ;; Data sizes:     COMRAM   BANK0   BANK1   BANK2   BANK3   BANK4   BANK5   BANK6   BANK7   BANK8   BANK9  BANK10  BANK1
      +1  BANK12  BANK13  BANK14  BANK15
   899 ;;      Params:         1       0       0       0       0       0       0       0       0       0       0       0       
      +0       0       0       0       0
   900 ;;      Locals:         1       0       0       0       0       0       0       0       0       0       0       0       
      +0       0       0       0       0
   901 ;;      Temps:          1       0       0       0       0       0       0       0       0       0       0       0       
      +0       0       0       0       0
   902 ;;      Totals:         3       0       0       0       0       0       0       0       0       0       0       0       
      +0       0       0       0       0
   903 ;;Total ram usage:        3 bytes
   904 ;; Hardware stack levels used: 1
   905 ;; Hardware stack levels required when called: 3
   906 ;; This function calls:
   907 ;;		_gpio_pin_direction_intialize
   908 ;;		_gpio_pin_write_logic
   909 ;; This function is called by:
   910 ;;		_led_initialize
   911 ;;		_seven_segment_intialize
   912 ;;		_lcd_4bit_initialize
   913 ;;		_lcd_8bit_initialize
   914 ;;		_dc_motor_initialize
   915 ;;		_keypad_initialize
   916 ;;		_relay_initialize
   917 ;; This function uses a non-reentrant model
   918 ;;
   919                           
   920                           	psect	text4
   921   001414                     __ptext4:
   922                           	callstack 0
   923   001414                     _gpio_pin_intialize:
   924                           	callstack 26
   925   001414                     
   926                           ;MCAL_Layer/GPIO/hal_gpio.c: 169:     if (((void*)0) == _pin_config || _pin_config->pin 
      +                          > 8 -1)
   927   001414  504C               	movf	gpio_pin_intialize@_pin_config^0,w,c
   928   001416  B4D8               	btfsc	status,2,c
   929   001418  EF10  F00A         	goto	u1791
   930   00141C  EF12  F00A         	goto	u1790
   931   001420                     u1791:
   932   001420  EF22  F00A         	goto	l2832
   933   001424                     u1790:
   934   001424  504C               	movf	gpio_pin_intialize@_pin_config^0,w,c
   935   001426  6ED9               	movwf	fsr2l,c
   936   001428  6ADA               	clrf	fsr2h,c
   937   00142A  30DF               	rrcf	223,w,c
   938   00142C  32E8               	rrcf	wreg,f,c
   939   00142E  32E8               	rrcf	wreg,f,c
   940   001430  0B07               	andlw	7
   941   001432  6E4D               	movwf	??_gpio_pin_intialize^0,c
   942   001434  0E07               	movlw	7
   943   001436  644D               	cpfsgt	??_gpio_pin_intialize^0,c
   944   001438  EF20  F00A         	goto	u1801
   945   00143C  EF22  F00A         	goto	u1800
   946   001440                     u1801:
   947   001440  EF26  F00A         	goto	l2834
   948   001444                     u1800:
   949   001444                     l2832:
   950                           
   951                           ;MCAL_Layer/GPIO/hal_gpio.c: 170:     {;MCAL_Layer/GPIO/hal_gpio.c: 171:         ret = (
      +                          Std_ReturnType)0x00;
   952   001444  0E00               	movlw	0
   953   001446  6E4E               	movwf	gpio_pin_intialize@ret^0,c
   954                           
   955                           ;MCAL_Layer/GPIO/hal_gpio.c: 172:     }
   956   001448  EF37  F00A         	goto	l2836
   957   00144C                     l2834:
   958                           
   959                           ;MCAL_Layer/GPIO/hal_gpio.c: 174:     {;MCAL_Layer/GPIO/hal_gpio.c: 175:         ret = g
      +                          pio_pin_direction_intialize(_pin_config);
   960   00144C  C04C  F044         	movff	gpio_pin_intialize@_pin_config,gpio_pin_direction_intialize@_pin_config
   961   001450  EC0B  F008         	call	_gpio_pin_direction_intialize	;wreg free
   962   001454  6E4E               	movwf	gpio_pin_intialize@ret^0,c
   963                           
   964                           ;MCAL_Layer/GPIO/hal_gpio.c: 176:         ret = gpio_pin_write_logic(_pin_config , _pin_
      +                          config->logic);
   965   001456  C04C  F044         	movff	gpio_pin_intialize@_pin_config,gpio_pin_write_logic@_pin_config
   966   00145A  504C               	movf	gpio_pin_intialize@_pin_config^0,w,c
   967   00145C  6ED9               	movwf	fsr2l,c
   968   00145E  6ADA               	clrf	fsr2h,c
   969   001460  0E00               	movlw	0
   970   001462  BEDF               	btfsc	indf2,7,c
   971   001464  0E01               	movlw	1
   972   001466  6E45               	movwf	gpio_pin_write_logic@logic^0,c
   973   001468  EC94  F008         	call	_gpio_pin_write_logic	;wreg free
   974   00146C  6E4E               	movwf	gpio_pin_intialize@ret^0,c
   975   00146E                     l2836:
   976                           
   977                           ;MCAL_Layer/GPIO/hal_gpio.c: 179:     return ret;
   978   00146E  504E               	movf	gpio_pin_intialize@ret^0,w,c
   979   001470  0012               	return		;funcret
   980   001472                     __end_of_gpio_pin_intialize:
   981                           	callstack 0
   982                           
   983 ;; *************** function _gpio_pin_write_logic *****************
   984 ;; Defined at:
   985 ;;		line 84 in file "MCAL_Layer/GPIO/hal_gpio.c"
   986 ;; Parameters:    Size  Location     Type
   987 ;;  _pin_config     1    1[COMRAM] PTR const struct .
   988 ;;		 -> relay_turn_off@pin_obj(1), relay_turn_on@pin_obj(1), relay_initialize@pin_obj(1), led_turn_off@pin_obj(1), 
   989 ;;		 -> led_turn_on@pin_obj(1), led_initialize@pin_obj(1), 
   990 ;;  logic           1    2[COMRAM] enum E3230
   991 ;; Auto vars:     Size  Location     Type
   992 ;;  ret             1    8[COMRAM] unsigned char 
   993 ;; Return value:  Size  Location     Type
   994 ;;                  1    wreg      unsigned char 
   995 ;; Registers used:
   996 ;;		wreg, fsr2l, fsr2h, status,2, status,0, prodl, prodh
   997 ;; Tracked objects:
   998 ;;		On entry : 0/0
   999 ;;		On exit  : 0/0
  1000 ;;		Unchanged: 0/0
  1001 ;; Data sizes:     COMRAM   BANK0   BANK1   BANK2   BANK3   BANK4   BANK5   BANK6   BANK7   BANK8   BANK9  BANK10  BANK1
      +1  BANK12  BANK13  BANK14  BANK15
  1002 ;;      Params:         2       0       0       0       0       0       0       0       0       0       0       0       
      +0       0       0       0       0
  1003 ;;      Locals:         1       0       0       0       0       0       0       0       0       0       0       0       
      +0       0       0       0       0
  1004 ;;      Temps:          5       0       0       0       0       0       0       0       0       0       0       0       
      +0       0       0       0       0
  1005 ;;      Totals:         8       0       0       0       0       0       0       0       0       0       0       0       
      +0       0       0       0       0
  1006 ;;Total ram usage:        8 bytes
  1007 ;; Hardware stack levels used: 1
  1008 ;; Hardware stack levels required when called: 2
  1009 ;; This function calls:
  1010 ;;		Nothing
  1011 ;; This function is called by:
  1012 ;;		_led_turn_on
  1013 ;;		_led_turn_off
  1014 ;;		_gpio_pin_intialize
  1015 ;;		_seven_segment_write_number
  1016 ;;		_lcd_4bit_send_command
  1017 ;;		_lcd_4bit_send_char_data
  1018 ;;		_lcd_8bit_send_command
  1019 ;;		_lcd_8bit_send_char_data
  1020 ;;		_lcd_send_4bits
  1021 ;;		_lcd_send_4bits_enable_signal
  1022 ;;		_lcd_send_8bits_enable_signal
  1023 ;;		_dc_motor_move_right
  1024 ;;		_dc_motor_move_left
  1025 ;;		_dc_motor_stop
  1026 ;;		_keypad_get_value
  1027 ;;		_relay_turn_on
  1028 ;;		_relay_turn_off
  1029 ;; This function uses a non-reentrant model
  1030 ;;
  1031                           
  1032                           	psect	text5
  1033   001128                     __ptext5:
  1034                           	callstack 0
  1035   001128                     _gpio_pin_write_logic:
  1036                           	callstack 27
  1037   001128                     
  1038                           ;MCAL_Layer/GPIO/hal_gpio.c: 85:     Std_ReturnType ret = (Std_ReturnType)0x01;
  1039   001128  0E01               	movlw	1
  1040   00112A  6E4B               	movwf	gpio_pin_write_logic@ret^0,c
  1041                           
  1042                           ;MCAL_Layer/GPIO/hal_gpio.c: 86:     if (((void*)0) == _pin_config || _pin_config->pin >
      +                           8 -1)
  1043   00112C  5044               	movf	gpio_pin_write_logic@_pin_config^0,w,c
  1044   00112E  B4D8               	btfsc	status,2,c
  1045   001130  EF9C  F008         	goto	u1701
  1046   001134  EF9E  F008         	goto	u1700
  1047   001138                     u1701:
  1048   001138  EFAE  F008         	goto	l2792
  1049   00113C                     u1700:
  1050   00113C  5044               	movf	gpio_pin_write_logic@_pin_config^0,w,c
  1051   00113E  6ED9               	movwf	fsr2l,c
  1052   001140  6ADA               	clrf	fsr2h,c
  1053   001142  30DF               	rrcf	223,w,c
  1054   001144  32E8               	rrcf	wreg,f,c
  1055   001146  32E8               	rrcf	wreg,f,c
  1056   001148  0B07               	andlw	7
  1057   00114A  6E46               	movwf	??_gpio_pin_write_logic^0,c
  1058   00114C  0E07               	movlw	7
  1059   00114E  6446               	cpfsgt	??_gpio_pin_write_logic^0,c
  1060   001150  EFAC  F008         	goto	u1711
  1061   001154  EFAE  F008         	goto	u1710
  1062   001158                     u1711:
  1063   001158  EF05  F009         	goto	l2800
  1064   00115C                     u1710:
  1065   00115C                     l2792:
  1066                           
  1067                           ;MCAL_Layer/GPIO/hal_gpio.c: 87:     {;MCAL_Layer/GPIO/hal_gpio.c: 88:         ret = (St
      +                          d_ReturnType)0x00;
  1068   00115C  0E00               	movlw	0
  1069   00115E  6E4B               	movwf	gpio_pin_write_logic@ret^0,c
  1070                           
  1071                           ;MCAL_Layer/GPIO/hal_gpio.c: 89:     }
  1072   001160  EF1A  F009         	goto	l2802
  1073   001164                     l2794:
  1074                           
  1075                           ;MCAL_Layer/GPIO/hal_gpio.c: 95:                 (*lat_registers[_pin_config->port] &= ~
      +                          ((uint8)1<<_pin_config->pin));
  1076   001164  5044               	movf	gpio_pin_write_logic@_pin_config^0,w,c
  1077   001166  6ED9               	movwf	fsr2l,c
  1078   001168  6ADA               	clrf	fsr2h,c
  1079   00116A  30DF               	rrcf	223,w,c
  1080   00116C  32E8               	rrcf	wreg,f,c
  1081   00116E  32E8               	rrcf	wreg,f,c
  1082   001170  0B07               	andlw	7
  1083   001172  6E46               	movwf	??_gpio_pin_write_logic^0,c
  1084   001174  0E01               	movlw	1
  1085   001176  6E47               	movwf	(??_gpio_pin_write_logic+1)^0,c
  1086   001178  2A46               	incf	??_gpio_pin_write_logic^0,f,c
  1087   00117A  EFC1  F008         	goto	u1724
  1088   00117E                     u1725:
  1089   00117E  90D8               	bcf	status,0,c
  1090   001180  3647               	rlcf	(??_gpio_pin_write_logic+1)^0,f,c
  1091   001182                     u1724:
  1092   001182  2E46               	decfsz	??_gpio_pin_write_logic^0,f,c
  1093   001184  EFBF  F008         	goto	u1725
  1094   001188  5047               	movf	(??_gpio_pin_write_logic+1)^0,w,c
  1095   00118A  0AFF               	xorlw	255
  1096   00118C  6E48               	movwf	(??_gpio_pin_write_logic+2)^0,c
  1097   00118E  5044               	movf	gpio_pin_write_logic@_pin_config^0,w,c
  1098   001190  6ED9               	movwf	fsr2l,c
  1099   001192  6ADA               	clrf	fsr2h,c
  1100   001194  50DF               	movf	223,w,c
  1101   001196  0B07               	andlw	7
  1102   001198  0D02               	mullw	2
  1103   00119A  50F3               	movf	243,w,c
  1104   00119C  0F0B               	addlw	low _lat_registers
  1105   00119E  6ED9               	movwf	fsr2l,c
  1106   0011A0  6ADA               	clrf	fsr2h,c
  1107   0011A2  CFDE F049          	movff	postinc2,??_gpio_pin_write_logic+3
  1108   0011A6  CFDD F04A          	movff	postdec2,??_gpio_pin_write_logic+4
  1109   0011AA  C049  FFD9         	movff	??_gpio_pin_write_logic+3,fsr2l
  1110   0011AE  C04A  FFDA         	movff	??_gpio_pin_write_logic+4,fsr2h
  1111   0011B2  5048               	movf	(??_gpio_pin_write_logic+2)^0,w,c
  1112   0011B4  16DF               	andwf	indf2,f,c
  1113                           
  1114                           ;MCAL_Layer/GPIO/hal_gpio.c: 96:                 break;
  1115   0011B6  EF1A  F009         	goto	l2802
  1116   0011BA                     l2796:
  1117                           
  1118                           ;MCAL_Layer/GPIO/hal_gpio.c: 98:                 (*lat_registers[_pin_config->port] |= (
      +                          (uint8)1<<_pin_config->pin));
  1119   0011BA  5044               	movf	gpio_pin_write_logic@_pin_config^0,w,c
  1120   0011BC  6ED9               	movwf	fsr2l,c
  1121   0011BE  6ADA               	clrf	fsr2h,c
  1122   0011C0  30DF               	rrcf	223,w,c
  1123   0011C2  32E8               	rrcf	wreg,f,c
  1124   0011C4  32E8               	rrcf	wreg,f,c
  1125   0011C6  0B07               	andlw	7
  1126   0011C8  6E46               	movwf	??_gpio_pin_write_logic^0,c
  1127   0011CA  0E01               	movlw	1
  1128   0011CC  6E47               	movwf	(??_gpio_pin_write_logic+1)^0,c
  1129   0011CE  2A46               	incf	??_gpio_pin_write_logic^0,f,c
  1130   0011D0  EFEC  F008         	goto	u1734
  1131   0011D4                     u1735:
  1132   0011D4  90D8               	bcf	status,0,c
  1133   0011D6  3647               	rlcf	(??_gpio_pin_write_logic+1)^0,f,c
  1134   0011D8                     u1734:
  1135   0011D8  2E46               	decfsz	??_gpio_pin_write_logic^0,f,c
  1136   0011DA  EFEA  F008         	goto	u1735
  1137   0011DE  5044               	movf	gpio_pin_write_logic@_pin_config^0,w,c
  1138   0011E0  6ED9               	movwf	fsr2l,c
  1139   0011E2  6ADA               	clrf	fsr2h,c
  1140   0011E4  50DF               	movf	223,w,c
  1141   0011E6  0B07               	andlw	7
  1142   0011E8  0D02               	mullw	2
  1143   0011EA  50F3               	movf	243,w,c
  1144   0011EC  0F0B               	addlw	low _lat_registers
  1145   0011EE  6ED9               	movwf	fsr2l,c
  1146   0011F0  6ADA               	clrf	fsr2h,c
  1147   0011F2  CFDE F048          	movff	postinc2,??_gpio_pin_write_logic+2
  1148   0011F6  CFDD F049          	movff	postdec2,??_gpio_pin_write_logic+3
  1149   0011FA  C048  FFD9         	movff	??_gpio_pin_write_logic+2,fsr2l
  1150   0011FE  C049  FFDA         	movff	??_gpio_pin_write_logic+3,fsr2h
  1151   001202  5047               	movf	(??_gpio_pin_write_logic+1)^0,w,c
  1152   001204  12DF               	iorwf	indf2,f,c
  1153                           
  1154                           ;MCAL_Layer/GPIO/hal_gpio.c: 99:                 break;
  1155   001206  EF1A  F009         	goto	l2802
  1156   00120A                     l2800:
  1157   00120A  5045               	movf	gpio_pin_write_logic@logic^0,w,c
  1158   00120C  6E46               	movwf	??_gpio_pin_write_logic^0,c
  1159   00120E  6A47               	clrf	(??_gpio_pin_write_logic+1)^0,c
  1160                           
  1161                           ; Switch on 2 bytes has been partitioned into a top level switch of size 1, and 1 sub-sw
      +                          itches
  1162                           ; Switch size 1, requested type "simple"
  1163                           ; Number of cases is 1, Range of values is 0 to 0
  1164                           ; switch strategies available:
  1165                           ; Name         Instructions Cycles
  1166                           ; simple_byte            4     3 (average)
  1167                           ;	Chosen strategy is simple_byte
  1168   001210  5047               	movf	(??_gpio_pin_write_logic+1)^0,w,c
  1169   001212  0A00               	xorlw	0	; case 0
  1170   001214  B4D8               	btfsc	status,2,c
  1171   001216  EF0F  F009         	goto	l3604
  1172   00121A  EFAE  F008         	goto	l2792
  1173   00121E                     l3604:
  1174                           
  1175                           ; Switch size 1, requested type "simple"
  1176                           ; Number of cases is 2, Range of values is 0 to 1
  1177                           ; switch strategies available:
  1178                           ; Name         Instructions Cycles
  1179                           ; simple_byte            7     4 (average)
  1180                           ;	Chosen strategy is simple_byte
  1181   00121E  5046               	movf	??_gpio_pin_write_logic^0,w,c
  1182   001220  0A00               	xorlw	0	; case 0
  1183   001222  B4D8               	btfsc	status,2,c
  1184   001224  EFB2  F008         	goto	l2794
  1185   001228  0A01               	xorlw	1	; case 1
  1186   00122A  B4D8               	btfsc	status,2,c
  1187   00122C  EFDD  F008         	goto	l2796
  1188   001230  EFAE  F008         	goto	l2792
  1189   001234                     l2802:
  1190                           
  1191                           ;MCAL_Layer/GPIO/hal_gpio.c: 105:     return ret;
  1192   001234  504B               	movf	gpio_pin_write_logic@ret^0,w,c
  1193   001236  0012               	return		;funcret
  1194   001238                     __end_of_gpio_pin_write_logic:
  1195                           	callstack 0
  1196                           
  1197 ;; *************** function _gpio_pin_direction_intialize *****************
  1198 ;; Defined at:
  1199 ;;		line 27 in file "MCAL_Layer/GPIO/hal_gpio.c"
  1200 ;; Parameters:    Size  Location     Type
  1201 ;;  _pin_config     1    1[COMRAM] PTR const struct .
  1202 ;;		 -> relay_initialize@pin_obj(1), led_initialize@pin_obj(1), 
  1203 ;; Auto vars:     Size  Location     Type
  1204 ;;  ret             1    7[COMRAM] unsigned char 
  1205 ;; Return value:  Size  Location     Type
  1206 ;;                  1    wreg      unsigned char 
  1207 ;; Registers used:
  1208 ;;		wreg, fsr2l, fsr2h, status,2, status,0, prodl, prodh
  1209 ;; Tracked objects:
  1210 ;;		On entry : 0/0
  1211 ;;		On exit  : 0/0
  1212 ;;		Unchanged: 0/0
  1213 ;; Data sizes:     COMRAM   BANK0   BANK1   BANK2   BANK3   BANK4   BANK5   BANK6   BANK7   BANK8   BANK9  BANK10  BANK1
      +1  BANK12  BANK13  BANK14  BANK15
  1214 ;;      Params:         1       0       0       0       0       0       0       0       0       0       0       0       
      +0       0       0       0       0
  1215 ;;      Locals:         1       0       0       0       0       0       0       0       0       0       0       0       
      +0       0       0       0       0
  1216 ;;      Temps:          5       0       0       0       0       0       0       0       0       0       0       0       
      +0       0       0       0       0
  1217 ;;      Totals:         7       0       0       0       0       0       0       0       0       0       0       0       
      +0       0       0       0       0
  1218 ;;Total ram usage:        7 bytes
  1219 ;; Hardware stack levels used: 1
  1220 ;; Hardware stack levels required when called: 2
  1221 ;; This function calls:
  1222 ;;		Nothing
  1223 ;; This function is called by:
  1224 ;;		_gpio_pin_intialize
  1225 ;;		_button_initialize
  1226 ;;		_keypad_initialize
  1227 ;;		_Interrupt_RBx_Init
  1228 ;;		_Interrupt_INTx_Pin_Init
  1229 ;; This function uses a non-reentrant model
  1230 ;;
  1231                           
  1232                           	psect	text6
  1233   001016                     __ptext6:
  1234                           	callstack 0
  1235   001016                     _gpio_pin_direction_intialize:
  1236                           	callstack 26
  1237   001016                     
  1238                           ;MCAL_Layer/GPIO/hal_gpio.c: 28:     Std_ReturnType ret = (Std_ReturnType)0x01;
  1239   001016  0E01               	movlw	1
  1240   001018  6E4A               	movwf	gpio_pin_direction_intialize@ret^0,c
  1241                           
  1242                           ;MCAL_Layer/GPIO/hal_gpio.c: 29:     if (((void*)0) == _pin_config || _pin_config->pin >
      +                           8 -1)
  1243   00101A  5044               	movf	gpio_pin_direction_intialize@_pin_config^0,w,c
  1244   00101C  B4D8               	btfsc	status,2,c
  1245   00101E  EF13  F008         	goto	u1741
  1246   001022  EF15  F008         	goto	u1740
  1247   001026                     u1741:
  1248   001026  EF25  F008         	goto	l2814
  1249   00102A                     u1740:
  1250   00102A  5044               	movf	gpio_pin_direction_intialize@_pin_config^0,w,c
  1251   00102C  6ED9               	movwf	fsr2l,c
  1252   00102E  6ADA               	clrf	fsr2h,c
  1253   001030  30DF               	rrcf	223,w,c
  1254   001032  32E8               	rrcf	wreg,f,c
  1255   001034  32E8               	rrcf	wreg,f,c
  1256   001036  0B07               	andlw	7
  1257   001038  6E45               	movwf	??_gpio_pin_direction_intialize^0,c
  1258   00103A  0E07               	movlw	7
  1259   00103C  6445               	cpfsgt	??_gpio_pin_direction_intialize^0,c
  1260   00103E  EF23  F008         	goto	u1751
  1261   001042  EF25  F008         	goto	u1750
  1262   001046                     u1751:
  1263   001046  EF7C  F008         	goto	l2822
  1264   00104A                     u1750:
  1265   00104A                     l2814:
  1266                           
  1267                           ;MCAL_Layer/GPIO/hal_gpio.c: 30:     {;MCAL_Layer/GPIO/hal_gpio.c: 31:         ret = (St
      +                          d_ReturnType)0x00;
  1268   00104A  0E00               	movlw	0
  1269   00104C  6E4A               	movwf	gpio_pin_direction_intialize@ret^0,c
  1270                           
  1271                           ;MCAL_Layer/GPIO/hal_gpio.c: 32:     }
  1272   00104E  EF92  F008         	goto	l2824
  1273   001052                     l2816:
  1274                           
  1275                           ;MCAL_Layer/GPIO/hal_gpio.c: 38:                 (*tris_registers[_pin_config->port] &= 
      +                          ~((uint8)1<<_pin_config->pin));
  1276   001052  5044               	movf	gpio_pin_direction_intialize@_pin_config^0,w,c
  1277   001054  6ED9               	movwf	fsr2l,c
  1278   001056  6ADA               	clrf	fsr2h,c
  1279   001058  30DF               	rrcf	223,w,c
  1280   00105A  32E8               	rrcf	wreg,f,c
  1281   00105C  32E8               	rrcf	wreg,f,c
  1282   00105E  0B07               	andlw	7
  1283   001060  6E45               	movwf	??_gpio_pin_direction_intialize^0,c
  1284   001062  0E01               	movlw	1
  1285   001064  6E46               	movwf	(??_gpio_pin_direction_intialize+1)^0,c
  1286   001066  2A45               	incf	??_gpio_pin_direction_intialize^0,f,c
  1287   001068  EF38  F008         	goto	u1764
  1288   00106C                     u1765:
  1289   00106C  90D8               	bcf	status,0,c
  1290   00106E  3646               	rlcf	(??_gpio_pin_direction_intialize+1)^0,f,c
  1291   001070                     u1764:
  1292   001070  2E45               	decfsz	??_gpio_pin_direction_intialize^0,f,c
  1293   001072  EF36  F008         	goto	u1765
  1294   001076  5046               	movf	(??_gpio_pin_direction_intialize+1)^0,w,c
  1295   001078  0AFF               	xorlw	255
  1296   00107A  6E47               	movwf	(??_gpio_pin_direction_intialize+2)^0,c
  1297   00107C  5044               	movf	gpio_pin_direction_intialize@_pin_config^0,w,c
  1298   00107E  6ED9               	movwf	fsr2l,c
  1299   001080  6ADA               	clrf	fsr2h,c
  1300   001082  50DF               	movf	223,w,c
  1301   001084  0B07               	andlw	7
  1302   001086  0D02               	mullw	2
  1303   001088  50F3               	movf	243,w,c
  1304   00108A  0F15               	addlw	low _tris_registers
  1305   00108C  6ED9               	movwf	fsr2l,c
  1306   00108E  6ADA               	clrf	fsr2h,c
  1307   001090  CFDE F048          	movff	postinc2,??_gpio_pin_direction_intialize+3
  1308   001094  CFDD F049          	movff	postdec2,??_gpio_pin_direction_intialize+4
  1309   001098  C048  FFD9         	movff	??_gpio_pin_direction_intialize+3,fsr2l
  1310   00109C  C049  FFDA         	movff	??_gpio_pin_direction_intialize+4,fsr2h
  1311   0010A0  5047               	movf	(??_gpio_pin_direction_intialize+2)^0,w,c
  1312   0010A2  16DF               	andwf	indf2,f,c
  1313                           
  1314                           ;MCAL_Layer/GPIO/hal_gpio.c: 39:                 break;
  1315   0010A4  EF92  F008         	goto	l2824
  1316   0010A8                     l2818:
  1317                           
  1318                           ;MCAL_Layer/GPIO/hal_gpio.c: 41:                 (*tris_registers[_pin_config->port] |= 
      +                          ((uint8)1<<_pin_config->pin));
  1319   0010A8  5044               	movf	gpio_pin_direction_intialize@_pin_config^0,w,c
  1320   0010AA  6ED9               	movwf	fsr2l,c
  1321   0010AC  6ADA               	clrf	fsr2h,c
  1322   0010AE  30DF               	rrcf	223,w,c
  1323   0010B0  32E8               	rrcf	wreg,f,c
  1324   0010B2  32E8               	rrcf	wreg,f,c
  1325   0010B4  0B07               	andlw	7
  1326   0010B6  6E45               	movwf	??_gpio_pin_direction_intialize^0,c
  1327   0010B8  0E01               	movlw	1
  1328   0010BA  6E46               	movwf	(??_gpio_pin_direction_intialize+1)^0,c
  1329   0010BC  2A45               	incf	??_gpio_pin_direction_intialize^0,f,c
  1330   0010BE  EF63  F008         	goto	u1774
  1331   0010C2                     u1775:
  1332   0010C2  90D8               	bcf	status,0,c
  1333   0010C4  3646               	rlcf	(??_gpio_pin_direction_intialize+1)^0,f,c
  1334   0010C6                     u1774:
  1335   0010C6  2E45               	decfsz	??_gpio_pin_direction_intialize^0,f,c
  1336   0010C8  EF61  F008         	goto	u1775
  1337   0010CC  5044               	movf	gpio_pin_direction_intialize@_pin_config^0,w,c
  1338   0010CE  6ED9               	movwf	fsr2l,c
  1339   0010D0  6ADA               	clrf	fsr2h,c
  1340   0010D2  50DF               	movf	223,w,c
  1341   0010D4  0B07               	andlw	7
  1342   0010D6  0D02               	mullw	2
  1343   0010D8  50F3               	movf	243,w,c
  1344   0010DA  0F15               	addlw	low _tris_registers
  1345   0010DC  6ED9               	movwf	fsr2l,c
  1346   0010DE  6ADA               	clrf	fsr2h,c
  1347   0010E0  CFDE F047          	movff	postinc2,??_gpio_pin_direction_intialize+2
  1348   0010E4  CFDD F048          	movff	postdec2,??_gpio_pin_direction_intialize+3
  1349   0010E8  C047  FFD9         	movff	??_gpio_pin_direction_intialize+2,fsr2l
  1350   0010EC  C048  FFDA         	movff	??_gpio_pin_direction_intialize+3,fsr2h
  1351   0010F0  5046               	movf	(??_gpio_pin_direction_intialize+1)^0,w,c
  1352   0010F2  12DF               	iorwf	indf2,f,c
  1353                           
  1354                           ;MCAL_Layer/GPIO/hal_gpio.c: 42:                 break;
  1355   0010F4  EF92  F008         	goto	l2824
  1356   0010F8                     l2822:
  1357   0010F8  5044               	movf	gpio_pin_direction_intialize@_pin_config^0,w,c
  1358   0010FA  6ED9               	movwf	fsr2l,c
  1359   0010FC  6ADA               	clrf	fsr2h,c
  1360   0010FE  BCDF               	btfsc	indf2,6,c
  1361   001100  EF84  F008         	goto	u1781
  1362   001104  EF87  F008         	goto	u1780
  1363   001108                     u1781:
  1364   001108  0E01               	movlw	1
  1365   00110A  EF88  F008         	goto	u1786
  1366   00110E                     u1780:
  1367   00110E  0E00               	movlw	0
  1368   001110                     u1786:
  1369                           
  1370                           ; Switch size 1, requested type "simple"
  1371                           ; Number of cases is 2, Range of values is 0 to 1
  1372                           ; switch strategies available:
  1373                           ; Name         Instructions Cycles
  1374                           ; simple_byte            7     4 (average)
  1375                           ;	Chosen strategy is simple_byte
  1376   001110  0A00               	xorlw	0	; case 0
  1377   001112  B4D8               	btfsc	status,2,c
  1378   001114  EF29  F008         	goto	l2816
  1379   001118  0A01               	xorlw	1	; case 1
  1380   00111A  B4D8               	btfsc	status,2,c
  1381   00111C  EF54  F008         	goto	l2818
  1382   001120  EF25  F008         	goto	l2814
  1383   001124                     l2824:
  1384                           
  1385                           ;MCAL_Layer/GPIO/hal_gpio.c: 46:     return ret;
  1386   001124  504A               	movf	gpio_pin_direction_intialize@ret^0,w,c
  1387   001126  0012               	return		;funcret
  1388   001128                     __end_of_gpio_pin_direction_intialize:
  1389                           	callstack 0
  1390                           
  1391 ;; *************** function _Data_EEPROM_WriteByte *****************
  1392 ;; Defined at:
  1393 ;;		line 10 in file "MCAL_Layer/EEPROM/hal_eeprom.c"
  1394 ;; Parameters:    Size  Location     Type
  1395 ;;  bAdd            2    1[COMRAM] unsigned short 
  1396 ;;  bData           1    3[COMRAM] unsigned char 
  1397 ;; Auto vars:     Size  Location     Type
  1398 ;;  Global_Inter    1    4[COMRAM] unsigned char 
  1399 ;;  ret             1    0        unsigned char 
  1400 ;; Return value:  Size  Location     Type
  1401 ;;                  1    wreg      unsigned char 
  1402 ;; Registers used:
  1403 ;;		wreg, status,2, status,0
  1404 ;; Tracked objects:
  1405 ;;		On entry : 0/0
  1406 ;;		On exit  : 0/0
  1407 ;;		Unchanged: 0/0
  1408 ;; Data sizes:     COMRAM   BANK0   BANK1   BANK2   BANK3   BANK4   BANK5   BANK6   BANK7   BANK8   BANK9  BANK10  BANK1
      +1  BANK12  BANK13  BANK14  BANK15
  1409 ;;      Params:         3       0       0       0       0       0       0       0       0       0       0       0       
      +0       0       0       0       0
  1410 ;;      Locals:         1       0       0       0       0       0       0       0       0       0       0       0       
      +0       0       0       0       0
  1411 ;;      Temps:          0       0       0       0       0       0       0       0       0       0       0       0       
      +0       0       0       0       0
  1412 ;;      Totals:         4       0       0       0       0       0       0       0       0       0       0       0       
      +0       0       0       0       0
  1413 ;;Total ram usage:        4 bytes
  1414 ;; Hardware stack levels used: 1
  1415 ;; Hardware stack levels required when called: 2
  1416 ;; This function calls:
  1417 ;;		Nothing
  1418 ;; This function is called by:
  1419 ;;		_main
  1420 ;; This function uses a non-reentrant model
  1421 ;;
  1422                           
  1423                           	psect	text7
  1424   001472                     __ptext7:
  1425                           	callstack 0
  1426   001472                     _Data_EEPROM_WriteByte:
  1427                           	callstack 28
  1428   001472                     
  1429                           ;MCAL_Layer/EEPROM/hal_eeprom.c: 13:     uint8 Global_Interrupt_Status = INTCONbits.GIE;
  1430   001472  0E00               	movlw	0
  1431   001474  BEF2               	btfsc	242,7,c	;volatile
  1432   001476  0E01               	movlw	1
  1433   001478  6E47               	movwf	Data_EEPROM_WriteByte@Global_Interrupt_Status^0,c
  1434   00147A                     
  1435                           ;MCAL_Layer/EEPROM/hal_eeprom.c: 15:     EEADRH = (uint8)((bAdd >> 8) & 0x03);
  1436   00147A  5045               	movf	(Data_EEPROM_WriteByte@bAdd+1)^0,w,c
  1437   00147C  0B03               	andlw	3
  1438   00147E  6EAA               	movwf	170,c	;volatile
  1439   001480                     
  1440                           ;MCAL_Layer/EEPROM/hal_eeprom.c: 16:     EEADR = (uint8) (bAdd & 0xFF);
  1441   001480  C044  FFA9         	movff	Data_EEPROM_WriteByte@bAdd,4009	;volatile
  1442   001484                     
  1443                           ;MCAL_Layer/EEPROM/hal_eeprom.c: 18:     EEDATA = bData;
  1444   001484  C046  FFA8         	movff	Data_EEPROM_WriteByte@bData,4008	;volatile
  1445   001488                     
  1446                           ;MCAL_Layer/EEPROM/hal_eeprom.c: 20:     EECON1bits.EEPGD = 0;
  1447   001488  9EA6               	bcf	166,7,c	;volsfr
  1448   00148A                     
  1449                           ;MCAL_Layer/EEPROM/hal_eeprom.c: 21:     EECON1bits.CFGS = 0;
  1450   00148A  9CA6               	bcf	166,6,c	;volsfr
  1451   00148C                     
  1452                           ;MCAL_Layer/EEPROM/hal_eeprom.c: 23:     EECON1bits.WREN = 1;
  1453   00148C  84A6               	bsf	166,2,c	;volsfr
  1454   00148E                     
  1455                           ;MCAL_Layer/EEPROM/hal_eeprom.c: 25:     (INTCONbits.GIE = 0);
  1456   00148E  9EF2               	bcf	242,7,c	;volatile
  1457   001490                     
  1458                           ;MCAL_Layer/EEPROM/hal_eeprom.c: 27:     EECON2 = 0x55;
  1459   001490  0E55               	movlw	85
  1460   001492  6EA7               	movwf	167,c	;volsfr
  1461   001494                     
  1462                           ;MCAL_Layer/EEPROM/hal_eeprom.c: 28:     EECON2 = 0xAA;
  1463   001494  0EAA               	movlw	170
  1464   001496  6EA7               	movwf	167,c	;volsfr
  1465   001498                     
  1466                           ;MCAL_Layer/EEPROM/hal_eeprom.c: 30:     EECON1bits.WR = 1;
  1467   001498  82A6               	bsf	166,1,c	;volsfr
  1468   00149A                     l771:
  1469   00149A  B2A6               	btfsc	166,1,c	;volsfr
  1470   00149C  EF52  F00A         	goto	u2001
  1471   0014A0  EF54  F00A         	goto	u2000
  1472   0014A4                     u2001:
  1473   0014A4  EF4D  F00A         	goto	l771
  1474   0014A8                     u2000:
  1475   0014A8                     
  1476                           ;MCAL_Layer/EEPROM/hal_eeprom.c: 34:     EECON1bits.WREN = 0;
  1477   0014A8  94A6               	bcf	166,2,c	;volsfr
  1478                           
  1479                           ;MCAL_Layer/EEPROM/hal_eeprom.c: 36:     INTCONbits.GIE = Global_Interrupt_Status;
  1480   0014AA  B047               	btfsc	Data_EEPROM_WriteByte@Global_Interrupt_Status^0,0,c
  1481   0014AC  D002               	bra	u2015
  1482   0014AE  9EF2               	bcf	242,7,c	;volatile
  1483   0014B0  D001               	bra	u2016
  1484   0014B2                     u2015:
  1485   0014B2  8EF2               	bsf	242,7,c	;volatile
  1486   0014B4                     u2016:
  1487   0014B4                     
  1488                           ;MCAL_Layer/EEPROM/hal_eeprom.c: 37:     return ret;
  1489   0014B4  0E01               	movlw	1
  1490   0014B6  0012               	return		;funcret
  1491   0014B8                     __end_of_Data_EEPROM_WriteByte:
  1492                           	callstack 0
  1493                           
  1494 ;; *************** function _Data_EEPROM_ReadByte *****************
  1495 ;; Defined at:
  1496 ;;		line 39 in file "MCAL_Layer/EEPROM/hal_eeprom.c"
  1497 ;; Parameters:    Size  Location     Type
  1498 ;;  bAdd            2    1[COMRAM] unsigned short 
  1499 ;;  bData           1    3[COMRAM] PTR unsigned char 
  1500 ;;		 -> eeprom_val_read(1), 
  1501 ;; Auto vars:     Size  Location     Type
  1502 ;;  ret             1    4[COMRAM] unsigned char 
  1503 ;; Return value:  Size  Location     Type
  1504 ;;                  1    wreg      unsigned char 
  1505 ;; Registers used:
  1506 ;;		wreg, fsr2l, fsr2h, status,2, status,0
  1507 ;; Tracked objects:
  1508 ;;		On entry : 0/0
  1509 ;;		On exit  : 0/0
  1510 ;;		Unchanged: 0/0
  1511 ;; Data sizes:     COMRAM   BANK0   BANK1   BANK2   BANK3   BANK4   BANK5   BANK6   BANK7   BANK8   BANK9  BANK10  BANK1
      +1  BANK12  BANK13  BANK14  BANK15
  1512 ;;      Params:         3       0       0       0       0       0       0       0       0       0       0       0       
      +0       0       0       0       0
  1513 ;;      Locals:         1       0       0       0       0       0       0       0       0       0       0       0       
      +0       0       0       0       0
  1514 ;;      Temps:          0       0       0       0       0       0       0       0       0       0       0       0       
      +0       0       0       0       0
  1515 ;;      Totals:         4       0       0       0       0       0       0       0       0       0       0       0       
      +0       0       0       0       0
  1516 ;;Total ram usage:        4 bytes
  1517 ;; Hardware stack levels used: 1
  1518 ;; Hardware stack levels required when called: 2
  1519 ;; This function calls:
  1520 ;;		Nothing
  1521 ;; This function is called by:
  1522 ;;		_main
  1523 ;; This function uses a non-reentrant model
  1524 ;;
  1525                           
  1526                           	psect	text8
  1527   0014B8                     __ptext8:
  1528                           	callstack 0
  1529   0014B8                     _Data_EEPROM_ReadByte:
  1530                           	callstack 28
  1531   0014B8                     
  1532                           ;MCAL_Layer/EEPROM/hal_eeprom.c: 40:     Std_ReturnType ret = (Std_ReturnType)0x01;
  1533   0014B8  0E01               	movlw	1
  1534   0014BA  6E47               	movwf	Data_EEPROM_ReadByte@ret^0,c
  1535                           
  1536                           ;MCAL_Layer/EEPROM/hal_eeprom.c: 41:     if (((void*)0) == bData)
  1537   0014BC  5046               	movf	Data_EEPROM_ReadByte@bData^0,w,c
  1538   0014BE  A4D8               	btfss	status,2,c
  1539   0014C0  EF64  F00A         	goto	u2021
  1540   0014C4  EF66  F00A         	goto	u2020
  1541   0014C8                     u2021:
  1542   0014C8  EF6A  F00A         	goto	l3062
  1543   0014CC                     u2020:
  1544   0014CC                     
  1545                           ;MCAL_Layer/EEPROM/hal_eeprom.c: 42:     {;MCAL_Layer/EEPROM/hal_eeprom.c: 43:         r
      +                          et = (Std_ReturnType)0x00;
  1546   0014CC  0E00               	movlw	0
  1547   0014CE  6E47               	movwf	Data_EEPROM_ReadByte@ret^0,c
  1548                           
  1549                           ;MCAL_Layer/EEPROM/hal_eeprom.c: 44:     }
  1550   0014D0  EF79  F00A         	goto	l3078
  1551   0014D4                     l3062:
  1552                           
  1553                           ;MCAL_Layer/EEPROM/hal_eeprom.c: 46:     {;MCAL_Layer/EEPROM/hal_eeprom.c: 48:         E
      +                          EADRH = (uint8)((bAdd >> 8) & 0x03);
  1554   0014D4  5045               	movf	(Data_EEPROM_ReadByte@bAdd+1)^0,w,c
  1555   0014D6  0B03               	andlw	3
  1556   0014D8  6EAA               	movwf	170,c	;volatile
  1557   0014DA                     
  1558                           ;MCAL_Layer/EEPROM/hal_eeprom.c: 49:         EEADR = (uint8) (bAdd & 0xFF);
  1559   0014DA  C044  FFA9         	movff	Data_EEPROM_ReadByte@bAdd,4009	;volatile
  1560   0014DE                     
  1561                           ;MCAL_Layer/EEPROM/hal_eeprom.c: 51:         EECON1bits.EEPGD = 0;
  1562   0014DE  9EA6               	bcf	166,7,c	;volsfr
  1563   0014E0                     
  1564                           ;MCAL_Layer/EEPROM/hal_eeprom.c: 52:         EECON1bits.CFGS = 0;
  1565   0014E0  9CA6               	bcf	166,6,c	;volsfr
  1566   0014E2                     
  1567                           ;MCAL_Layer/EEPROM/hal_eeprom.c: 54:         EECON1bits.RD = 1;
  1568   0014E2  80A6               	bsf	166,0,c	;volsfr
  1569   0014E4                     
  1570                           ;MCAL_Layer/EEPROM/hal_eeprom.c: 55:         __nop();
  1571   0014E4  0000               	nop	
  1572   0014E6                     
  1573                           ;MCAL_Layer/EEPROM/hal_eeprom.c: 56:         __nop();
  1574   0014E6  0000               	nop	
  1575   0014E8                     
  1576                           ;MCAL_Layer/EEPROM/hal_eeprom.c: 58:         *bData = EEDATA;
  1577   0014E8  5046               	movf	Data_EEPROM_ReadByte@bData^0,w,c
  1578   0014EA  6ED9               	movwf	fsr2l,c
  1579   0014EC  6ADA               	clrf	fsr2h,c
  1580   0014EE  CFA8 FFDF          	movff	4008,indf2	;volatile
  1581   0014F2                     l3078:
  1582                           
  1583                           ;MCAL_Layer/EEPROM/hal_eeprom.c: 60:     return ret;
  1584   0014F2  5047               	movf	Data_EEPROM_ReadByte@ret^0,w,c
  1585   0014F4  0012               	return		;funcret
  1586   0014F6                     __end_of_Data_EEPROM_ReadByte:
  1587                           	callstack 0
  1588                           
  1589 ;; *************** function _InterruptManager *****************
  1590 ;; Defined at:
  1591 ;;		line 35 in file "MCAL_Layer/interrupt/mcal_interrupt_manager.c"
  1592 ;; Parameters:    Size  Location     Type
  1593 ;;		None
  1594 ;; Auto vars:     Size  Location     Type
  1595 ;;		None
  1596 ;; Return value:  Size  Location     Type
  1597 ;;                  1    wreg      void 
  1598 ;; Registers used:
  1599 ;;		wreg, status,2, status,0, cstack
  1600 ;; Tracked objects:
  1601 ;;		On entry : 0/0
  1602 ;;		On exit  : 0/0
  1603 ;;		Unchanged: 0/0
  1604 ;; Data sizes:     COMRAM   BANK0   BANK1   BANK2   BANK3   BANK4   BANK5   BANK6   BANK7   BANK8   BANK9  BANK10  BANK1
      +1  BANK12  BANK13  BANK14  BANK15
  1605 ;;      Params:         0       0       0       0       0       0       0       0       0       0       0       0       
      +0       0       0       0       0
  1606 ;;      Locals:         0       0       0       0       0       0       0       0       0       0       0       0       
      +0       0       0       0       0
  1607 ;;      Temps:          0       0       0       0       0       0       0       0       0       0       0       0       
      +0       0       0       0       0
  1608 ;;      Totals:         0       0       0       0       0       0       0       0       0       0       0       0       
      +0       0       0       0       0
  1609 ;;Total ram usage:        0 bytes
  1610 ;; Hardware stack levels used: 1
  1611 ;; Hardware stack levels required when called: 1
  1612 ;; This function calls:
  1613 ;;		_INT0_ISR
  1614 ;;		_INT1_ISR
  1615 ;;		_INT2_ISR
  1616 ;;		_RB4_ISR
  1617 ;;		_RB5_ISR
  1618 ;;		_RB6_ISR
  1619 ;;		_RB7_ISR
  1620 ;; This function is called by:
  1621 ;;		Interrupt level 2
  1622 ;; This function uses a non-reentrant model
  1623 ;;
  1624                           
  1625                           	psect	intcode
  1626   000008                     __pintcode:
  1627                           	callstack 0
  1628   000008                     _InterruptManager:
  1629                           	callstack 26
  1630                           
  1631                           ;incstack = 0
  1632   000008  8256               	bsf	int$flags,1,c	;set compiler interrupt flag (level 2)
  1633   00000A                     
  1634                           ;MCAL_Layer/interrupt/mcal_interrupt_manager.c: 38:     if ((INTCONbits.INT0IE == 1) && 
      +                          (INTCONbits.INT0IF == 1))
  1635   00000A  A8F2               	btfss	242,4,c	;volatile
  1636   00000C  EF0A  F000         	goto	i2u115_41
  1637   000010  EF0C  F000         	goto	i2u115_40
  1638   000014                     i2u115_41:
  1639   000014  EF15  F000         	goto	i2l492
  1640   000018                     i2u115_40:
  1641   000018  A2F2               	btfss	242,1,c	;volatile
  1642   00001A  EF11  F000         	goto	i2u116_41
  1643   00001E  EF13  F000         	goto	i2u116_40
  1644   000022                     i2u116_41:
  1645   000022  EF15  F000         	goto	i2l492
  1646   000026                     i2u116_40:
  1647   000026                     
  1648                           ;MCAL_Layer/interrupt/mcal_interrupt_manager.c: 39:     {;MCAL_Layer/interrupt/mcal_inte
      +                          rrupt_manager.c: 40:         INT0_ISR();
  1649   000026  ECE0  F00A         	call	_INT0_ISR	;wreg free
  1650   00002A                     i2l492:
  1651                           
  1652                           ;MCAL_Layer/interrupt/mcal_interrupt_manager.c: 43:     if ((INTCON3bits.INT1IE == 1) &&
      +                           (INTCON3bits.INT1IF == 1))
  1653   00002A  A6F0               	btfss	240,3,c	;volatile
  1654   00002C  EF1A  F000         	goto	i2u117_41
  1655   000030  EF1C  F000         	goto	i2u117_40
  1656   000034                     i2u117_41:
  1657   000034  EF25  F000         	goto	i2l494
  1658   000038                     i2u117_40:
  1659   000038  A0F0               	btfss	240,0,c	;volatile
  1660   00003A  EF21  F000         	goto	i2u118_41
  1661   00003E  EF23  F000         	goto	i2u118_40
  1662   000042                     i2u118_41:
  1663   000042  EF25  F000         	goto	i2l494
  1664   000046                     i2u118_40:
  1665   000046                     
  1666                           ;MCAL_Layer/interrupt/mcal_interrupt_manager.c: 44:     {;MCAL_Layer/interrupt/mcal_inte
      +                          rrupt_manager.c: 45:         INT1_ISR();
  1667   000046  ECDE  F00A         	call	_INT1_ISR	;wreg free
  1668   00004A                     i2l494:
  1669                           
  1670                           ;MCAL_Layer/interrupt/mcal_interrupt_manager.c: 48:     if ((INTCON3bits.INT2IE == 1) &&
      +                           (INTCON3bits.INT2IF == 1))
  1671   00004A  A8F0               	btfss	240,4,c	;volatile
  1672   00004C  EF2A  F000         	goto	i2u119_41
  1673   000050  EF2C  F000         	goto	i2u119_40
  1674   000054                     i2u119_41:
  1675   000054  EF35  F000         	goto	i2l496
  1676   000058                     i2u119_40:
  1677   000058  A2F0               	btfss	240,1,c	;volatile
  1678   00005A  EF31  F000         	goto	i2u120_41
  1679   00005E  EF33  F000         	goto	i2u120_40
  1680   000062                     i2u120_41:
  1681   000062  EF35  F000         	goto	i2l496
  1682   000066                     i2u120_40:
  1683   000066                     
  1684                           ;MCAL_Layer/interrupt/mcal_interrupt_manager.c: 49:     {;MCAL_Layer/interrupt/mcal_inte
      +                          rrupt_manager.c: 50:         INT2_ISR();
  1685   000066  ECDC  F00A         	call	_INT2_ISR	;wreg free
  1686   00006A                     i2l496:
  1687                           
  1688                           ;MCAL_Layer/interrupt/mcal_interrupt_manager.c: 56:     if ((INTCONbits.RBIE == 1) && (I
      +                          NTCONbits.RBIF == 1) &&
  1689   00006A  A6F2               	btfss	242,3,c	;volatile
  1690   00006C  EF3A  F000         	goto	i2u121_41
  1691   000070  EF3C  F000         	goto	i2u121_40
  1692   000074                     i2u121_41:
  1693   000074  EF57  F000         	goto	i2l498
  1694   000078                     i2u121_40:
  1695   000078  A0F2               	btfss	242,0,c	;volatile
  1696   00007A  EF41  F000         	goto	i2u122_41
  1697   00007E  EF43  F000         	goto	i2u122_40
  1698   000082                     i2u122_41:
  1699   000082  EF57  F000         	goto	i2l498
  1700   000086                     i2u122_40:
  1701   000086  A881               	btfss	129,4,c	;volatile
  1702   000088  EF48  F000         	goto	i2u123_41
  1703   00008C  EF4A  F000         	goto	i2u123_40
  1704   000090                     i2u123_41:
  1705   000090  EF57  F000         	goto	i2l498
  1706   000094                     i2u123_40:
  1707   000094  0422               	decf	_RB4_Flag^0,w,c	;volatile
  1708   000096  A4D8               	btfss	status,2,c
  1709   000098  EF50  F000         	goto	i2u124_41
  1710   00009C  EF52  F000         	goto	i2u124_40
  1711   0000A0                     i2u124_41:
  1712   0000A0  EF57  F000         	goto	i2l498
  1713   0000A4                     i2u124_40:
  1714   0000A4                     
  1715                           ;MCAL_Layer/interrupt/mcal_interrupt_manager.c: 58:     {;MCAL_Layer/interrupt/mcal_inte
      +                          rrupt_manager.c: 59:         RB4_Flag = 0;
  1716   0000A4  0E00               	movlw	0
  1717   0000A6  6E22               	movwf	_RB4_Flag^0,c	;volatile
  1718   0000A8                     
  1719                           ;MCAL_Layer/interrupt/mcal_interrupt_manager.c: 60:         RB4_ISR(1);
  1720   0000A8  0E01               	movlw	1
  1721   0000AA  ECCF  F00A         	call	_RB4_ISR
  1722   0000AE                     i2l498:
  1723                           
  1724                           ;MCAL_Layer/interrupt/mcal_interrupt_manager.c: 63:     if ((INTCONbits.RBIE == 1) && (I
      +                          NTCONbits.RBIF == 1) &&
  1725   0000AE  A6F2               	btfss	242,3,c	;volatile
  1726   0000B0  EF5C  F000         	goto	i2u125_41
  1727   0000B4  EF5E  F000         	goto	i2u125_40
  1728   0000B8                     i2u125_41:
  1729   0000B8  EF79  F000         	goto	i2l500
  1730   0000BC                     i2u125_40:
  1731   0000BC  A0F2               	btfss	242,0,c	;volatile
  1732   0000BE  EF63  F000         	goto	i2u126_41
  1733   0000C2  EF65  F000         	goto	i2u126_40
  1734   0000C6                     i2u126_41:
  1735   0000C6  EF79  F000         	goto	i2l500
  1736   0000CA                     i2u126_40:
  1737   0000CA  B881               	btfsc	129,4,c	;volatile
  1738   0000CC  EF6A  F000         	goto	i2u127_41
  1739   0000D0  EF6C  F000         	goto	i2u127_40
  1740   0000D4                     i2u127_41:
  1741   0000D4  EF79  F000         	goto	i2l500
  1742   0000D8                     i2u127_40:
  1743   0000D8  5022               	movf	_RB4_Flag^0,w,c	;volatile
  1744   0000DA  A4D8               	btfss	status,2,c
  1745   0000DC  EF72  F000         	goto	i2u128_41
  1746   0000E0  EF74  F000         	goto	i2u128_40
  1747   0000E4                     i2u128_41:
  1748   0000E4  EF79  F000         	goto	i2l500
  1749   0000E8                     i2u128_40:
  1750   0000E8                     
  1751                           ;MCAL_Layer/interrupt/mcal_interrupt_manager.c: 65:     {;MCAL_Layer/interrupt/mcal_inte
      +                          rrupt_manager.c: 66:         RB4_Flag = 1;
  1752   0000E8  0E01               	movlw	1
  1753   0000EA  6E22               	movwf	_RB4_Flag^0,c	;volatile
  1754   0000EC                     
  1755                           ;MCAL_Layer/interrupt/mcal_interrupt_manager.c: 67:         RB4_ISR(0);
  1756   0000EC  0E00               	movlw	0
  1757   0000EE  ECCF  F00A         	call	_RB4_ISR
  1758   0000F2                     i2l500:
  1759                           
  1760                           ;MCAL_Layer/interrupt/mcal_interrupt_manager.c: 70:     if ((INTCONbits.RBIE == 1) && (I
      +                          NTCONbits.RBIF == 1) &&
  1761   0000F2  A6F2               	btfss	242,3,c	;volatile
  1762   0000F4  EF7E  F000         	goto	i2u129_41
  1763   0000F8  EF80  F000         	goto	i2u129_40
  1764   0000FC                     i2u129_41:
  1765   0000FC  EF9B  F000         	goto	i2l502
  1766   000100                     i2u129_40:
  1767   000100  A0F2               	btfss	242,0,c	;volatile
  1768   000102  EF85  F000         	goto	i2u130_41
  1769   000106  EF87  F000         	goto	i2u130_40
  1770   00010A                     i2u130_41:
  1771   00010A  EF9B  F000         	goto	i2l502
  1772   00010E                     i2u130_40:
  1773   00010E  AA81               	btfss	129,5,c	;volatile
  1774   000110  EF8C  F000         	goto	i2u131_41
  1775   000114  EF8E  F000         	goto	i2u131_40
  1776   000118                     i2u131_41:
  1777   000118  EF9B  F000         	goto	i2l502
  1778   00011C                     i2u131_40:
  1779   00011C  0421               	decf	_RB5_Flag^0,w,c	;volatile
  1780   00011E  A4D8               	btfss	status,2,c
  1781   000120  EF94  F000         	goto	i2u132_41
  1782   000124  EF96  F000         	goto	i2u132_40
  1783   000128                     i2u132_41:
  1784   000128  EF9B  F000         	goto	i2l502
  1785   00012C                     i2u132_40:
  1786   00012C                     
  1787                           ;MCAL_Layer/interrupt/mcal_interrupt_manager.c: 72:     {;MCAL_Layer/interrupt/mcal_inte
      +                          rrupt_manager.c: 73:         RB5_Flag = 0;
  1788   00012C  0E00               	movlw	0
  1789   00012E  6E21               	movwf	_RB5_Flag^0,c	;volatile
  1790   000130                     
  1791                           ;MCAL_Layer/interrupt/mcal_interrupt_manager.c: 74:         RB5_ISR(1);
  1792   000130  0E01               	movlw	1
  1793   000132  ECC2  F00A         	call	_RB5_ISR
  1794   000136                     i2l502:
  1795                           
  1796                           ;MCAL_Layer/interrupt/mcal_interrupt_manager.c: 77:     if ((INTCONbits.RBIE == 1) && (I
      +                          NTCONbits.RBIF == 1) &&
  1797   000136  A6F2               	btfss	242,3,c	;volatile
  1798   000138  EFA0  F000         	goto	i2u133_41
  1799   00013C  EFA2  F000         	goto	i2u133_40
  1800   000140                     i2u133_41:
  1801   000140  EFBD  F000         	goto	i2l2532
  1802   000144                     i2u133_40:
  1803   000144  A0F2               	btfss	242,0,c	;volatile
  1804   000146  EFA7  F000         	goto	i2u134_41
  1805   00014A  EFA9  F000         	goto	i2u134_40
  1806   00014E                     i2u134_41:
  1807   00014E  EFBD  F000         	goto	i2l2532
  1808   000152                     i2u134_40:
  1809   000152  BA81               	btfsc	129,5,c	;volatile
  1810   000154  EFAE  F000         	goto	i2u135_41
  1811   000158  EFB0  F000         	goto	i2u135_40
  1812   00015C                     i2u135_41:
  1813   00015C  EFBD  F000         	goto	i2l2532
  1814   000160                     i2u135_40:
  1815   000160  5021               	movf	_RB5_Flag^0,w,c	;volatile
  1816   000162  A4D8               	btfss	status,2,c
  1817   000164  EFB6  F000         	goto	i2u136_41
  1818   000168  EFB8  F000         	goto	i2u136_40
  1819   00016C                     i2u136_41:
  1820   00016C  EFBD  F000         	goto	i2l2532
  1821   000170                     i2u136_40:
  1822   000170                     
  1823                           ;MCAL_Layer/interrupt/mcal_interrupt_manager.c: 79:     {;MCAL_Layer/interrupt/mcal_inte
      +                          rrupt_manager.c: 80:         RB5_Flag = 1;
  1824   000170  0E01               	movlw	1
  1825   000172  6E21               	movwf	_RB5_Flag^0,c	;volatile
  1826   000174                     
  1827                           ;MCAL_Layer/interrupt/mcal_interrupt_manager.c: 81:         RB5_ISR(0);
  1828   000174  0E00               	movlw	0
  1829   000176  ECC2  F00A         	call	_RB5_ISR
  1830   00017A                     i2l2532:
  1831                           
  1832                           ;MCAL_Layer/interrupt/mcal_interrupt_manager.c: 84:     if ((INTCONbits.RBIE == 1) && (I
      +                          NTCONbits.RBIF == 1) &&
  1833   00017A  A6F2               	btfss	242,3,c	;volatile
  1834   00017C  EFC2  F000         	goto	i2u137_41
  1835   000180  EFC4  F000         	goto	i2u137_40
  1836   000184                     i2u137_41:
  1837   000184  EFDF  F000         	goto	i2l505
  1838   000188                     i2u137_40:
  1839   000188  A0F2               	btfss	242,0,c	;volatile
  1840   00018A  EFC9  F000         	goto	i2u138_41
  1841   00018E  EFCB  F000         	goto	i2u138_40
  1842   000192                     i2u138_41:
  1843   000192  EFDF  F000         	goto	i2l505
  1844   000196                     i2u138_40:
  1845   000196  AC81               	btfss	129,6,c	;volatile
  1846   000198  EFD0  F000         	goto	i2u139_41
  1847   00019C  EFD2  F000         	goto	i2u139_40
  1848   0001A0                     i2u139_41:
  1849   0001A0  EFDF  F000         	goto	i2l505
  1850   0001A4                     i2u139_40:
  1851   0001A4  0420               	decf	_RB6_Flag^0,w,c	;volatile
  1852   0001A6  A4D8               	btfss	status,2,c
  1853   0001A8  EFD8  F000         	goto	i2u140_41
  1854   0001AC  EFDA  F000         	goto	i2u140_40
  1855   0001B0                     i2u140_41:
  1856   0001B0  EFDF  F000         	goto	i2l505
  1857   0001B4                     i2u140_40:
  1858   0001B4                     
  1859                           ;MCAL_Layer/interrupt/mcal_interrupt_manager.c: 86:     {;MCAL_Layer/interrupt/mcal_inte
      +                          rrupt_manager.c: 87:         RB6_Flag = 0;
  1860   0001B4  0E00               	movlw	0
  1861   0001B6  6E20               	movwf	_RB6_Flag^0,c	;volatile
  1862   0001B8                     
  1863                           ;MCAL_Layer/interrupt/mcal_interrupt_manager.c: 88:         RB6_ISR(1);
  1864   0001B8  0E01               	movlw	1
  1865   0001BA  ECB5  F00A         	call	_RB6_ISR
  1866   0001BE                     i2l505:
  1867                           
  1868                           ;MCAL_Layer/interrupt/mcal_interrupt_manager.c: 91:     if ((INTCONbits.RBIE == 1) && (I
      +                          NTCONbits.RBIF == 1) &&
  1869   0001BE  A6F2               	btfss	242,3,c	;volatile
  1870   0001C0  EFE4  F000         	goto	i2u141_41
  1871   0001C4  EFE6  F000         	goto	i2u141_40
  1872   0001C8                     i2u141_41:
  1873   0001C8  EF01  F001         	goto	i2l2554
  1874   0001CC                     i2u141_40:
  1875   0001CC  A0F2               	btfss	242,0,c	;volatile
  1876   0001CE  EFEB  F000         	goto	i2u142_41
  1877   0001D2  EFED  F000         	goto	i2u142_40
  1878   0001D6                     i2u142_41:
  1879   0001D6  EF01  F001         	goto	i2l2554
  1880   0001DA                     i2u142_40:
  1881   0001DA  BC81               	btfsc	129,6,c	;volatile
  1882   0001DC  EFF2  F000         	goto	i2u143_41
  1883   0001E0  EFF4  F000         	goto	i2u143_40
  1884   0001E4                     i2u143_41:
  1885   0001E4  EF01  F001         	goto	i2l2554
  1886   0001E8                     i2u143_40:
  1887   0001E8  5020               	movf	_RB6_Flag^0,w,c	;volatile
  1888   0001EA  A4D8               	btfss	status,2,c
  1889   0001EC  EFFA  F000         	goto	i2u144_41
  1890   0001F0  EFFC  F000         	goto	i2u144_40
  1891   0001F4                     i2u144_41:
  1892   0001F4  EF01  F001         	goto	i2l2554
  1893   0001F8                     i2u144_40:
  1894   0001F8                     
  1895                           ;MCAL_Layer/interrupt/mcal_interrupt_manager.c: 93:     {;MCAL_Layer/interrupt/mcal_inte
      +                          rrupt_manager.c: 94:         RB6_Flag = 1;
  1896   0001F8  0E01               	movlw	1
  1897   0001FA  6E20               	movwf	_RB6_Flag^0,c	;volatile
  1898   0001FC                     
  1899                           ;MCAL_Layer/interrupt/mcal_interrupt_manager.c: 95:         RB6_ISR(0);
  1900   0001FC  0E00               	movlw	0
  1901   0001FE  ECB5  F00A         	call	_RB6_ISR
  1902   000202                     i2l2554:
  1903                           
  1904                           ;MCAL_Layer/interrupt/mcal_interrupt_manager.c: 98:     if ((INTCONbits.RBIE == 1) && (I
      +                          NTCONbits.RBIF == 1) &&
  1905   000202  A6F2               	btfss	242,3,c	;volatile
  1906   000204  EF06  F001         	goto	i2u145_41
  1907   000208  EF08  F001         	goto	i2u145_40
  1908   00020C                     i2u145_41:
  1909   00020C  EF23  F001         	goto	i2l508
  1910   000210                     i2u145_40:
  1911   000210  A0F2               	btfss	242,0,c	;volatile
  1912   000212  EF0D  F001         	goto	i2u146_41
  1913   000216  EF0F  F001         	goto	i2u146_40
  1914   00021A                     i2u146_41:
  1915   00021A  EF23  F001         	goto	i2l508
  1916   00021E                     i2u146_40:
  1917   00021E  AE81               	btfss	129,7,c	;volatile
  1918   000220  EF14  F001         	goto	i2u147_41
  1919   000224  EF16  F001         	goto	i2u147_40
  1920   000228                     i2u147_41:
  1921   000228  EF23  F001         	goto	i2l508
  1922   00022C                     i2u147_40:
  1923   00022C  041F               	decf	_RB7_Flag^0,w,c	;volatile
  1924   00022E  A4D8               	btfss	status,2,c
  1925   000230  EF1C  F001         	goto	i2u148_41
  1926   000234  EF1E  F001         	goto	i2u148_40
  1927   000238                     i2u148_41:
  1928   000238  EF23  F001         	goto	i2l508
  1929   00023C                     i2u148_40:
  1930   00023C                     
  1931                           ;MCAL_Layer/interrupt/mcal_interrupt_manager.c: 100:     {;MCAL_Layer/interrupt/mcal_int
      +                          errupt_manager.c: 101:         RB7_Flag = 0;
  1932   00023C  0E00               	movlw	0
  1933   00023E  6E1F               	movwf	_RB7_Flag^0,c	;volatile
  1934   000240                     
  1935                           ;MCAL_Layer/interrupt/mcal_interrupt_manager.c: 102:         RB7_ISR(1);
  1936   000240  0E01               	movlw	1
  1937   000242  ECA8  F00A         	call	_RB7_ISR
  1938   000246                     i2l508:
  1939                           
  1940                           ;MCAL_Layer/interrupt/mcal_interrupt_manager.c: 105:     if ((INTCONbits.RBIE == 1) && (
      +                          INTCONbits.RBIF == 1) &&
  1941   000246  A6F2               	btfss	242,3,c	;volatile
  1942   000248  EF28  F001         	goto	i2u149_41
  1943   00024C  EF2A  F001         	goto	i2u149_40
  1944   000250                     i2u149_41:
  1945   000250  EF45  F001         	goto	i2l511
  1946   000254                     i2u149_40:
  1947   000254  A0F2               	btfss	242,0,c	;volatile
  1948   000256  EF2F  F001         	goto	i2u150_41
  1949   00025A  EF31  F001         	goto	i2u150_40
  1950   00025E                     i2u150_41:
  1951   00025E  EF45  F001         	goto	i2l511
  1952   000262                     i2u150_40:
  1953   000262  BE81               	btfsc	129,7,c	;volatile
  1954   000264  EF36  F001         	goto	i2u151_41
  1955   000268  EF38  F001         	goto	i2u151_40
  1956   00026C                     i2u151_41:
  1957   00026C  EF45  F001         	goto	i2l511
  1958   000270                     i2u151_40:
  1959   000270  501F               	movf	_RB7_Flag^0,w,c	;volatile
  1960   000272  A4D8               	btfss	status,2,c
  1961   000274  EF3E  F001         	goto	i2u152_41
  1962   000278  EF40  F001         	goto	i2u152_40
  1963   00027C                     i2u152_41:
  1964   00027C  EF45  F001         	goto	i2l511
  1965   000280                     i2u152_40:
  1966   000280                     
  1967                           ;MCAL_Layer/interrupt/mcal_interrupt_manager.c: 107:     {;MCAL_Layer/interrupt/mcal_int
      +                          errupt_manager.c: 108:         RB7_Flag = 1;
  1968   000280  0E01               	movlw	1
  1969   000282  6E1F               	movwf	_RB7_Flag^0,c	;volatile
  1970   000284                     
  1971                           ;MCAL_Layer/interrupt/mcal_interrupt_manager.c: 109:         RB7_ISR(0);
  1972   000284  0E00               	movlw	0
  1973   000286  ECA8  F00A         	call	_RB7_ISR
  1974   00028A                     i2l511:
  1975   00028A  9256               	bcf	int$flags,1,c	;clear compiler interrupt flag (level 2)
  1976   00028C  0011               	retfie		f
  1977   00028E                     __end_of_InterruptManager:
  1978                           	callstack 0
  1979                           
  1980 ;; *************** function _RB7_ISR *****************
  1981 ;; Defined at:
  1982 ;;		line 168 in file "MCAL_Layer/interrupt/mcal_external_interrupt.c"
  1983 ;; Parameters:    Size  Location     Type
  1984 ;;  RB7_source      1    wreg     unsigned char 
  1985 ;; Auto vars:     Size  Location     Type
  1986 ;;  RB7_source      1    0[COMRAM] unsigned char 
  1987 ;; Return value:  Size  Location     Type
  1988 ;;                  1    wreg      void 
  1989 ;; Registers used:
  1990 ;;		wreg, status,2, status,0
  1991 ;; Tracked objects:
  1992 ;;		On entry : 0/0
  1993 ;;		On exit  : 0/0
  1994 ;;		Unchanged: 0/0
  1995 ;; Data sizes:     COMRAM   BANK0   BANK1   BANK2   BANK3   BANK4   BANK5   BANK6   BANK7   BANK8   BANK9  BANK10  BANK1
      +1  BANK12  BANK13  BANK14  BANK15
  1996 ;;      Params:         0       0       0       0       0       0       0       0       0       0       0       0       
      +0       0       0       0       0
  1997 ;;      Locals:         1       0       0       0       0       0       0       0       0       0       0       0       
      +0       0       0       0       0
  1998 ;;      Temps:          0       0       0       0       0       0       0       0       0       0       0       0       
      +0       0       0       0       0
  1999 ;;      Totals:         1       0       0       0       0       0       0       0       0       0       0       0       
      +0       0       0       0       0
  2000 ;;Total ram usage:        1 bytes
  2001 ;; Hardware stack levels used: 1
  2002 ;; This function calls:
  2003 ;;		Nothing
  2004 ;; This function is called by:
  2005 ;;		_InterruptManager
  2006 ;; This function uses a non-reentrant model
  2007 ;;
  2008                           
  2009                           	psect	text10
  2010   001550                     __ptext10:
  2011                           	callstack 0
  2012   001550                     _RB7_ISR:
  2013                           	callstack 26
  2014                           
  2015                           ;incstack = 0
  2016                           ;RB7_ISR@RB7_source stored from wreg
  2017   001550  6E43               	movwf	RB7_ISR@RB7_source^0,c
  2018   001552                     
  2019                           ;MCAL_Layer/interrupt/mcal_external_interrupt.c: 170:     (INTCONbits.RBIF = 0);
  2020   001552  90F2               	bcf	242,0,c	;volatile
  2021   001554                     
  2022                           ;MCAL_Layer/interrupt/mcal_external_interrupt.c: 175:     if (0 == RB7_source)
  2023   001554  5043               	movf	RB7_ISR@RB7_source^0,w,c
  2024   001556  A4D8               	btfss	status,2,c
  2025   001558  EFB0  F00A         	goto	i2u34_41
  2026   00155C  EFB2  F00A         	goto	i2u34_40
  2027   001560                     i2u34_41:
  2028   001560  EFB4  F00A         	goto	i2l1776
  2029   001564                     i2u34_40:
  2030   001564  EFB4  F00A         	goto	i2l610
  2031   001568                     i2l1776:
  2032   001568                     i2l610:
  2033   001568  0012               	return		;funcret
  2034   00156A                     __end_of_RB7_ISR:
  2035                           	callstack 0
  2036                           
  2037 ;; *************** function _RB6_ISR *****************
  2038 ;; Defined at:
  2039 ;;		line 150 in file "MCAL_Layer/interrupt/mcal_external_interrupt.c"
  2040 ;; Parameters:    Size  Location     Type
  2041 ;;  RB6_source      1    wreg     unsigned char 
  2042 ;; Auto vars:     Size  Location     Type
  2043 ;;  RB6_source      1    0[COMRAM] unsigned char 
  2044 ;; Return value:  Size  Location     Type
  2045 ;;                  1    wreg      void 
  2046 ;; Registers used:
  2047 ;;		wreg, status,2, status,0
  2048 ;; Tracked objects:
  2049 ;;		On entry : 0/0
  2050 ;;		On exit  : 0/0
  2051 ;;		Unchanged: 0/0
  2052 ;; Data sizes:     COMRAM   BANK0   BANK1   BANK2   BANK3   BANK4   BANK5   BANK6   BANK7   BANK8   BANK9  BANK10  BANK1
      +1  BANK12  BANK13  BANK14  BANK15
  2053 ;;      Params:         0       0       0       0       0       0       0       0       0       0       0       0       
      +0       0       0       0       0
  2054 ;;      Locals:         1       0       0       0       0       0       0       0       0       0       0       0       
      +0       0       0       0       0
  2055 ;;      Temps:          0       0       0       0       0       0       0       0       0       0       0       0       
      +0       0       0       0       0
  2056 ;;      Totals:         1       0       0       0       0       0       0       0       0       0       0       0       
      +0       0       0       0       0
  2057 ;;Total ram usage:        1 bytes
  2058 ;; Hardware stack levels used: 1
  2059 ;; This function calls:
  2060 ;;		Nothing
  2061 ;; This function is called by:
  2062 ;;		_InterruptManager
  2063 ;; This function uses a non-reentrant model
  2064 ;;
  2065                           
  2066                           	psect	text11
  2067   00156A                     __ptext11:
  2068                           	callstack 0
  2069   00156A                     _RB6_ISR:
  2070                           	callstack 26
  2071                           
  2072                           ;incstack = 0
  2073                           ;RB6_ISR@RB6_source stored from wreg
  2074   00156A  6E43               	movwf	RB6_ISR@RB6_source^0,c
  2075   00156C                     
  2076                           ;MCAL_Layer/interrupt/mcal_external_interrupt.c: 152:     (INTCONbits.RBIF = 0);
  2077   00156C  90F2               	bcf	242,0,c	;volatile
  2078   00156E                     
  2079                           ;MCAL_Layer/interrupt/mcal_external_interrupt.c: 157:     if (0 == RB6_source)
  2080   00156E  5043               	movf	RB6_ISR@RB6_source^0,w,c
  2081   001570  A4D8               	btfss	status,2,c
  2082   001572  EFBD  F00A         	goto	i2u33_41
  2083   001576  EFBF  F00A         	goto	i2u33_40
  2084   00157A                     i2u33_41:
  2085   00157A  EFC1  F00A         	goto	i2l1762
  2086   00157E                     i2u33_40:
  2087   00157E  EFC1  F00A         	goto	i2l600
  2088   001582                     i2l1762:
  2089   001582                     i2l600:
  2090   001582  0012               	return		;funcret
  2091   001584                     __end_of_RB6_ISR:
  2092                           	callstack 0
  2093                           
  2094 ;; *************** function _RB5_ISR *****************
  2095 ;; Defined at:
  2096 ;;		line 132 in file "MCAL_Layer/interrupt/mcal_external_interrupt.c"
  2097 ;; Parameters:    Size  Location     Type
  2098 ;;  RB5_source      1    wreg     unsigned char 
  2099 ;; Auto vars:     Size  Location     Type
  2100 ;;  RB5_source      1    0[COMRAM] unsigned char 
  2101 ;; Return value:  Size  Location     Type
  2102 ;;                  1    wreg      void 
  2103 ;; Registers used:
  2104 ;;		wreg, status,2, status,0
  2105 ;; Tracked objects:
  2106 ;;		On entry : 0/0
  2107 ;;		On exit  : 0/0
  2108 ;;		Unchanged: 0/0
  2109 ;; Data sizes:     COMRAM   BANK0   BANK1   BANK2   BANK3   BANK4   BANK5   BANK6   BANK7   BANK8   BANK9  BANK10  BANK1
      +1  BANK12  BANK13  BANK14  BANK15
  2110 ;;      Params:         0       0       0       0       0       0       0       0       0       0       0       0       
      +0       0       0       0       0
  2111 ;;      Locals:         1       0       0       0       0       0       0       0       0       0       0       0       
      +0       0       0       0       0
  2112 ;;      Temps:          0       0       0       0       0       0       0       0       0       0       0       0       
      +0       0       0       0       0
  2113 ;;      Totals:         1       0       0       0       0       0       0       0       0       0       0       0       
      +0       0       0       0       0
  2114 ;;Total ram usage:        1 bytes
  2115 ;; Hardware stack levels used: 1
  2116 ;; This function calls:
  2117 ;;		Nothing
  2118 ;; This function is called by:
  2119 ;;		_InterruptManager
  2120 ;; This function uses a non-reentrant model
  2121 ;;
  2122                           
  2123                           	psect	text12
  2124   001584                     __ptext12:
  2125                           	callstack 0
  2126   001584                     _RB5_ISR:
  2127                           	callstack 26
  2128                           
  2129                           ;incstack = 0
  2130                           ;RB5_ISR@RB5_source stored from wreg
  2131   001584  6E43               	movwf	RB5_ISR@RB5_source^0,c
  2132   001586                     
  2133                           ;MCAL_Layer/interrupt/mcal_external_interrupt.c: 134:     (INTCONbits.RBIF = 0);
  2134   001586  90F2               	bcf	242,0,c	;volatile
  2135   001588                     
  2136                           ;MCAL_Layer/interrupt/mcal_external_interrupt.c: 138:     if (0 == RB5_source)
  2137   001588  5043               	movf	RB5_ISR@RB5_source^0,w,c
  2138   00158A  A4D8               	btfss	status,2,c
  2139   00158C  EFCA  F00A         	goto	i2u32_41
  2140   001590  EFCC  F00A         	goto	i2u32_40
  2141   001594                     i2u32_41:
  2142   001594  EFCE  F00A         	goto	i2l1748
  2143   001598                     i2u32_40:
  2144   001598  EFCE  F00A         	goto	i2l590
  2145   00159C                     i2l1748:
  2146   00159C                     i2l590:
  2147   00159C  0012               	return		;funcret
  2148   00159E                     __end_of_RB5_ISR:
  2149                           	callstack 0
  2150                           
  2151 ;; *************** function _RB4_ISR *****************
  2152 ;; Defined at:
  2153 ;;		line 114 in file "MCAL_Layer/interrupt/mcal_external_interrupt.c"
  2154 ;; Parameters:    Size  Location     Type
  2155 ;;  RB4_source      1    wreg     unsigned char 
  2156 ;; Auto vars:     Size  Location     Type
  2157 ;;  RB4_source      1    0[COMRAM] unsigned char 
  2158 ;; Return value:  Size  Location     Type
  2159 ;;                  1    wreg      void 
  2160 ;; Registers used:
  2161 ;;		wreg, status,2, status,0
  2162 ;; Tracked objects:
  2163 ;;		On entry : 0/0
  2164 ;;		On exit  : 0/0
  2165 ;;		Unchanged: 0/0
  2166 ;; Data sizes:     COMRAM   BANK0   BANK1   BANK2   BANK3   BANK4   BANK5   BANK6   BANK7   BANK8   BANK9  BANK10  BANK1
      +1  BANK12  BANK13  BANK14  BANK15
  2167 ;;      Params:         0       0       0       0       0       0       0       0       0       0       0       0       
      +0       0       0       0       0
  2168 ;;      Locals:         1       0       0       0       0       0       0       0       0       0       0       0       
      +0       0       0       0       0
  2169 ;;      Temps:          0       0       0       0       0       0       0       0       0       0       0       0       
      +0       0       0       0       0
  2170 ;;      Totals:         1       0       0       0       0       0       0       0       0       0       0       0       
      +0       0       0       0       0
  2171 ;;Total ram usage:        1 bytes
  2172 ;; Hardware stack levels used: 1
  2173 ;; This function calls:
  2174 ;;		Nothing
  2175 ;; This function is called by:
  2176 ;;		_InterruptManager
  2177 ;; This function uses a non-reentrant model
  2178 ;;
  2179                           
  2180                           	psect	text13
  2181   00159E                     __ptext13:
  2182                           	callstack 0
  2183   00159E                     _RB4_ISR:
  2184                           	callstack 26
  2185                           
  2186                           ;incstack = 0
  2187                           ;RB4_ISR@RB4_source stored from wreg
  2188   00159E  6E43               	movwf	RB4_ISR@RB4_source^0,c
  2189   0015A0                     
  2190                           ;MCAL_Layer/interrupt/mcal_external_interrupt.c: 116:     (INTCONbits.RBIF = 0);
  2191   0015A0  90F2               	bcf	242,0,c	;volatile
  2192   0015A2                     
  2193                           ;MCAL_Layer/interrupt/mcal_external_interrupt.c: 120:     if (0 == RB4_source)
  2194   0015A2  5043               	movf	RB4_ISR@RB4_source^0,w,c
  2195   0015A4  A4D8               	btfss	status,2,c
  2196   0015A6  EFD7  F00A         	goto	i2u31_41
  2197   0015AA  EFD9  F00A         	goto	i2u31_40
  2198   0015AE                     i2u31_41:
  2199   0015AE  EFDB  F00A         	goto	i2l1734
  2200   0015B2                     i2u31_40:
  2201   0015B2  EFDB  F00A         	goto	i2l580
  2202   0015B6                     i2l1734:
  2203   0015B6                     i2l580:
  2204   0015B6  0012               	return		;funcret
  2205   0015B8                     __end_of_RB4_ISR:
  2206                           	callstack 0
  2207                           
  2208 ;; *************** function _INT2_ISR *****************
  2209 ;; Defined at:
  2210 ;;		line 101 in file "MCAL_Layer/interrupt/mcal_external_interrupt.c"
  2211 ;; Parameters:    Size  Location     Type
  2212 ;;		None
  2213 ;; Auto vars:     Size  Location     Type
  2214 ;;		None
  2215 ;; Return value:  Size  Location     Type
  2216 ;;                  1    wreg      void 
  2217 ;; Registers used:
  2218 ;;		None
  2219 ;; Tracked objects:
  2220 ;;		On entry : 0/0
  2221 ;;		On exit  : 0/0
  2222 ;;		Unchanged: 0/0
  2223 ;; Data sizes:     COMRAM   BANK0   BANK1   BANK2   BANK3   BANK4   BANK5   BANK6   BANK7   BANK8   BANK9  BANK10  BANK1
      +1  BANK12  BANK13  BANK14  BANK15
  2224 ;;      Params:         0       0       0       0       0       0       0       0       0       0       0       0       
      +0       0       0       0       0
  2225 ;;      Locals:         0       0       0       0       0       0       0       0       0       0       0       0       
      +0       0       0       0       0
  2226 ;;      Temps:          0       0       0       0       0       0       0       0       0       0       0       0       
      +0       0       0       0       0
  2227 ;;      Totals:         0       0       0       0       0       0       0       0       0       0       0       0       
      +0       0       0       0       0
  2228 ;;Total ram usage:        0 bytes
  2229 ;; Hardware stack levels used: 1
  2230 ;; This function calls:
  2231 ;;		Nothing
  2232 ;; This function is called by:
  2233 ;;		_InterruptManager
  2234 ;; This function uses a non-reentrant model
  2235 ;;
  2236                           
  2237                           	psect	text14
  2238   0015B8                     __ptext14:
  2239                           	callstack 0
  2240   0015B8                     _INT2_ISR:
  2241                           	callstack 26
  2242   0015B8                     
  2243                           ;MCAL_Layer/interrupt/mcal_external_interrupt.c: 103:     (INTCON3bits.INT2IF = 0);
  2244   0015B8  92F0               	bcf	240,1,c	;volatile
  2245   0015BA  0012               	return		;funcret
  2246   0015BC                     __end_of_INT2_ISR:
  2247                           	callstack 0
  2248                           
  2249 ;; *************** function _INT1_ISR *****************
  2250 ;; Defined at:
  2251 ;;		line 88 in file "MCAL_Layer/interrupt/mcal_external_interrupt.c"
  2252 ;; Parameters:    Size  Location     Type
  2253 ;;		None
  2254 ;; Auto vars:     Size  Location     Type
  2255 ;;		None
  2256 ;; Return value:  Size  Location     Type
  2257 ;;                  1    wreg      void 
  2258 ;; Registers used:
  2259 ;;		None
  2260 ;; Tracked objects:
  2261 ;;		On entry : 0/0
  2262 ;;		On exit  : 0/0
  2263 ;;		Unchanged: 0/0
  2264 ;; Data sizes:     COMRAM   BANK0   BANK1   BANK2   BANK3   BANK4   BANK5   BANK6   BANK7   BANK8   BANK9  BANK10  BANK1
      +1  BANK12  BANK13  BANK14  BANK15
  2265 ;;      Params:         0       0       0       0       0       0       0       0       0       0       0       0       
      +0       0       0       0       0
  2266 ;;      Locals:         0       0       0       0       0       0       0       0       0       0       0       0       
      +0       0       0       0       0
  2267 ;;      Temps:          0       0       0       0       0       0       0       0       0       0       0       0       
      +0       0       0       0       0
  2268 ;;      Totals:         0       0       0       0       0       0       0       0       0       0       0       0       
      +0       0       0       0       0
  2269 ;;Total ram usage:        0 bytes
  2270 ;; Hardware stack levels used: 1
  2271 ;; This function calls:
  2272 ;;		Nothing
  2273 ;; This function is called by:
  2274 ;;		_InterruptManager
  2275 ;; This function uses a non-reentrant model
  2276 ;;
  2277                           
  2278                           	psect	text15
  2279   0015BC                     __ptext15:
  2280                           	callstack 0
  2281   0015BC                     _INT1_ISR:
  2282                           	callstack 26
  2283   0015BC                     
  2284                           ;MCAL_Layer/interrupt/mcal_external_interrupt.c: 90:     (INTCON3bits.INT1IF = 0);
  2285   0015BC  90F0               	bcf	240,0,c	;volatile
  2286   0015BE  0012               	return		;funcret
  2287   0015C0                     __end_of_INT1_ISR:
  2288                           	callstack 0
  2289                           
  2290 ;; *************** function _INT0_ISR *****************
  2291 ;; Defined at:
  2292 ;;		line 73 in file "MCAL_Layer/interrupt/mcal_external_interrupt.c"
  2293 ;; Parameters:    Size  Location     Type
  2294 ;;		None
  2295 ;; Auto vars:     Size  Location     Type
  2296 ;;		None
  2297 ;; Return value:  Size  Location     Type
  2298 ;;                  1    wreg      void 
  2299 ;; Registers used:
  2300 ;;		None
  2301 ;; Tracked objects:
  2302 ;;		On entry : 0/0
  2303 ;;		On exit  : 0/0
  2304 ;;		Unchanged: 0/0
  2305 ;; Data sizes:     COMRAM   BANK0   BANK1   BANK2   BANK3   BANK4   BANK5   BANK6   BANK7   BANK8   BANK9  BANK10  BANK1
      +1  BANK12  BANK13  BANK14  BANK15
  2306 ;;      Params:         0       0       0       0       0       0       0       0       0       0       0       0       
      +0       0       0       0       0
  2307 ;;      Locals:         0       0       0       0       0       0       0       0       0       0       0       0       
      +0       0       0       0       0
  2308 ;;      Temps:          0       0       0       0       0       0       0       0       0       0       0       0       
      +0       0       0       0       0
  2309 ;;      Totals:         0       0       0       0       0       0       0       0       0       0       0       0       
      +0       0       0       0       0
  2310 ;;Total ram usage:        0 bytes
  2311 ;; Hardware stack levels used: 1
  2312 ;; This function calls:
  2313 ;;		Nothing
  2314 ;; This function is called by:
  2315 ;;		_InterruptManager
  2316 ;; This function uses a non-reentrant model
  2317 ;;
  2318                           
  2319                           	psect	text16
  2320   0015C0                     __ptext16:
  2321                           	callstack 0
  2322   0015C0                     _INT0_ISR:
  2323                           	callstack 26
  2324   0015C0                     
  2325                           ;MCAL_Layer/interrupt/mcal_external_interrupt.c: 75:     (INTCONbits.INT0IF = 0);
  2326   0015C0  92F2               	bcf	242,1,c	;volatile
  2327   0015C2  0012               	return		;funcret
  2328   0015C4                     __end_of_INT0_ISR:
  2329                           	callstack 0
  2330                           
  2331                           	psect	rparam
  2332   000000                     
  2333                           	psect	temp
  2334   000056                     btemp:
  2335                           	callstack 0
  2336   000056                     	ds	1
  2337   000000                     int$flags	set	btemp
  2338   000000                     wtemp8	set	btemp+1
  2339   000000                     ttemp5	set	btemp+1
  2340   000000                     ttemp6	set	btemp+4
  2341   000000                     ttemp7	set	btemp+8
  2342                           
  2343                           	psect	config
  2344                           
  2345                           ; Padding undefined space
  2346   300000                     	org	3145728
  2347   300000  FF                 	db	255
  2348                           
  2349                           ;Config register CONFIG1H @ 0x300001
  2350                           ;	Oscillator Selection bits
  2351                           ;	FOSC = RCIO6, External RC oscillator, port function on RA6
  2352                           ;	Fail-Safe Clock Monitor Enable bit
  2353                           ;	FCMEN = OFF, Fail-Safe Clock Monitor disabled
  2354                           ;	Internal/External Oscillator Switchover bit
  2355                           ;	IESO = OFF, Oscillator Switchover mode disabled
  2356   300001                     	org	3145729
  2357   300001  07                 	db	7
  2358                           
  2359                           ;Config register CONFIG2L @ 0x300002
  2360                           ;	Power-up Timer Enable bit
  2361                           ;	PWRTEN = OFF, PWRT disabled
  2362                           ;	Brown-out Reset Enable bits
  2363                           ;	BOREN = SBORDIS, Brown-out Reset enabled in hardware only (SBOREN is disabled)
  2364                           ;	Brown Out Reset Voltage bits
  2365                           ;	BORV = 18, VBOR set to 1.8 V nominal
  2366   300002                     	org	3145730
  2367   300002  1F                 	db	31
  2368                           
  2369                           ;Config register CONFIG2H @ 0x300003
  2370                           ;	Watchdog Timer Enable bit
  2371                           ;	WDTEN = ON, WDT is always enabled. SWDTEN bit has no effect
  2372                           ;	Watchdog Timer Postscale Select bits
  2373                           ;	WDTPS = 32768, 1:32768
  2374   300003                     	org	3145731
  2375   300003  1F                 	db	31
  2376                           
  2377                           ; Padding undefined space
  2378   300004                     	org	3145732
  2379   300004  FF                 	db	255
  2380                           
  2381                           ;Config register CONFIG3H @ 0x300005
  2382                           ;	CCP2 MUX bit
  2383                           ;	CCP2MX = PORTC, CCP2 input/output is multiplexed with RC1
  2384                           ;	PORTB A/D Enable bit
  2385                           ;	PBADEN = OFF, PORTB<4:0> pins are configured as digital I/O on Reset
  2386                           ;	Low-Power Timer1 Oscillator Enable bit
  2387                           ;	LPT1OSC = OFF, Timer1 configured for higher power operation
  2388                           ;	HFINTOSC Fast Start-up
  2389                           ;	HFOFST = ON, HFINTOSC starts clocking the CPU without waiting for the oscillator to st
      +                          ablize.
  2390                           ;	MCLR Pin Enable bit
  2391                           ;	MCLRE = ON, MCLR pin enabled; RE3 input pin disabled
  2392   300005                     	org	3145733
  2393   300005  89                 	db	137
  2394                           
  2395                           ;Config register CONFIG4L @ 0x300006
  2396                           ;	Stack Full/Underflow Reset Enable bit
  2397                           ;	STVREN = ON, Stack full/underflow will cause Reset
  2398                           ;	Single-Supply ICSP Enable bit
  2399                           ;	LVP = ON, Single-Supply ICSP enabled
  2400                           ;	Extended Instruction Set Enable bit
  2401                           ;	XINST = OFF, Instruction set extension and Indexed Addressing mode disabled (Legacy mo
      +                          de)
  2402                           ;	Background Debugger Enable bit
  2403                           ;	DEBUG = 0x1, unprogrammed default
  2404   300006                     	org	3145734
  2405   300006  85                 	db	133
  2406                           
  2407                           ; Padding undefined space
  2408   300007                     	org	3145735
  2409   300007  FF                 	db	255
  2410                           
  2411                           ;Config register CONFIG5L @ 0x300008
  2412                           ;	Code Protection Block 0
  2413                           ;	CP0 = OFF, Block 0 (000800-003FFFh) not code-protected
  2414                           ;	Code Protection Block 1
  2415                           ;	CP1 = OFF, Block 1 (004000-007FFFh) not code-protected
  2416                           ;	Code Protection Block 2
  2417                           ;	CP2 = OFF, Block 2 (008000-00BFFFh) not code-protected
  2418                           ;	Code Protection Block 3
  2419                           ;	CP3 = OFF, Block 3 (00C000-00FFFFh) not code-protected
  2420   300008                     	org	3145736
  2421   300008  0F                 	db	15
  2422                           
  2423                           ;Config register CONFIG5H @ 0x300009
  2424                           ;	Boot Block Code Protection bit
  2425                           ;	CPB = OFF, Boot block (000000-0007FFh) not code-protected
  2426                           ;	Data EEPROM Code Protection bit
  2427                           ;	CPD = OFF, Data EEPROM not code-protected
  2428   300009                     	org	3145737
  2429   300009  C0                 	db	192
  2430                           
  2431                           ;Config register CONFIG6L @ 0x30000A
  2432                           ;	Write Protection Block 0
  2433                           ;	WRT0 = OFF, Block 0 (000800-003FFFh) not write-protected
  2434                           ;	Write Protection Block 1
  2435                           ;	WRT1 = OFF, Block 1 (004000-007FFFh) not write-protected
  2436                           ;	Write Protection Block 2
  2437                           ;	WRT2 = OFF, Block 2 (008000-00BFFFh) not write-protected
  2438                           ;	Write Protection Block 3
  2439                           ;	WRT3 = OFF, Block 3 (00C000h-00FFFFh) not write-protected
  2440   30000A                     	org	3145738
  2441   30000A  0F                 	db	15
  2442                           
  2443                           ;Config register CONFIG6H @ 0x30000B
  2444                           ;	Configuration Register Write Protection bit
  2445                           ;	WRTC = OFF, Configuration registers (300000-3000FFh) not write-protected
  2446                           ;	Boot Block Write Protection bit
  2447                           ;	WRTB = OFF, Boot Block (000000-0007FFh) not write-protected
  2448                           ;	Data EEPROM Write Protection bit
  2449                           ;	WRTD = OFF, Data EEPROM not write-protected
  2450   30000B                     	org	3145739
  2451   30000B  E0                 	db	224
  2452                           
  2453                           ;Config register CONFIG7L @ 0x30000C
  2454                           ;	Table Read Protection Block 0
  2455                           ;	EBTR0 = OFF, Block 0 (000800-003FFFh) not protected from table reads executed in other
      +                           blocks
  2456                           ;	Table Read Protection Block 1
  2457                           ;	EBTR1 = OFF, Block 1 (004000-007FFFh) not protected from table reads executed in other
      +                           blocks
  2458                           ;	Table Read Protection Block 2
  2459                           ;	EBTR2 = OFF, Block 2 (008000-00BFFFh) not protected from table reads executed in other
      +                           blocks
  2460                           ;	Table Read Protection Block 3
  2461                           ;	EBTR3 = OFF, Block 3 (00C000-00FFFFh) not protected from table reads executed in other
      +                           blocks
  2462   30000C                     	org	3145740
  2463   30000C  0F                 	db	15
  2464                           
  2465                           ;Config register CONFIG7H @ 0x30000D
  2466                           ;	Boot Block Table Read Protection bit
  2467                           ;	EBTRB = OFF, Boot Block (000000-0007FFh) not protected from table reads executed in ot
      +                          her blocks
  2468   30000D                     	org	3145741
  2469   30000D  40                 	db	64
  2470                           tosu	equ	0xFFF
  2471                           tosh	equ	0xFFE
  2472                           tosl	equ	0xFFD
  2473                           stkptr	equ	0xFFC
  2474                           pclatu	equ	0xFFB
  2475                           pclath	equ	0xFFA
  2476                           pcl	equ	0xFF9
  2477                           tblptru	equ	0xFF8
  2478                           tblptrh	equ	0xFF7
  2479                           tblptrl	equ	0xFF6
  2480                           tablat	equ	0xFF5
  2481                           prodh	equ	0xFF4
  2482                           prodl	equ	0xFF3
  2483                           indf0	equ	0xFEF
  2484                           postinc0	equ	0xFEE
  2485                           postdec0	equ	0xFED
  2486                           preinc0	equ	0xFEC
  2487                           plusw0	equ	0xFEB
  2488                           fsr0h	equ	0xFEA
  2489                           fsr0l	equ	0xFE9
  2490                           wreg	equ	0xFE8
  2491                           indf1	equ	0xFE7
  2492                           postinc1	equ	0xFE6
  2493                           postdec1	equ	0xFE5
  2494                           preinc1	equ	0xFE4
  2495                           plusw1	equ	0xFE3
  2496                           fsr1h	equ	0xFE2
  2497                           fsr1l	equ	0xFE1
  2498                           bsr	equ	0xFE0
  2499                           indf2	equ	0xFDF
  2500                           postinc2	equ	0xFDE
  2501                           postdec2	equ	0xFDD
  2502                           preinc2	equ	0xFDC
  2503                           plusw2	equ	0xFDB
  2504                           fsr2h	equ	0xFDA
  2505                           fsr2l	equ	0xFD9
  2506                           status	equ	0xFD8

Data Sizes:
    Strings     3
    Constant    16
    Data        35
    BSS         31
    Persistent  1
    Stack       0

Auto Spaces:
    Space          Size  Autos    Used
    COMRAM           94     18      85
    BANK0           160      0       0
    BANK1           256      0       0
    BANK2           256      0       0
    BANK3           256      0       0
    BANK4           256      0       0
    BANK5           256      0       0
    BANK6           256      0       0
    BANK7           256      0       0
    BANK8           256      0       0
    BANK9           256      0       0
    BANK10          256      0       0
    BANK11          256      0       0
    BANK12          256      0       0
    BANK13          256      0       0
    BANK14          256      0       0
    BANK15           96      0       0

Pointer List with Targets:

    Data_EEPROM_ReadByte@bData	PTR unsigned char  size(1) Largest target is 1
		 -> eeprom_val_read(COMRAM[1]), 

    f$.$buffer	PTR unsigned char  size(2) Largest target is 0

    f$.$source	PTR const unsigned char  size(2) Largest target is 0

    gpio_pin_direction_intialize@_pin_config	PTR const struct . size(1) Largest target is 1
		 -> led_initialize@pin_obj(COMRAM[1]), relay_initialize@pin_obj(COMRAM[1]), 

    gpio_pin_intialize@_pin_config	PTR const struct . size(1) Largest target is 1
		 -> led_initialize@pin_obj(COMRAM[1]), relay_initialize@pin_obj(COMRAM[1]), 

    gpio_pin_write_logic@_pin_config	PTR const struct . size(1) Largest target is 1
		 -> led_initialize@pin_obj(COMRAM[1]), led_turn_off@pin_obj(COMRAM[1]), led_turn_on@pin_obj(COMRAM[1]), relay_initialize@pin_obj(COMRAM[1]), 
		 -> relay_turn_off@pin_obj(COMRAM[1]), relay_turn_on@pin_obj(COMRAM[1]), 

    INT0_InterruptHandler	PTR FTN()void  size(2) Largest target is 1
		 -> NULL(), 

    INT1_InterruptHandler	PTR FTN()void  size(2) Largest target is 1
		 -> NULL(), 

    INT2_InterruptHandler	PTR FTN()void  size(2) Largest target is 1
		 -> NULL(), 

    Interrupt_INTx_Clear_Flag@int_obj$EXT_InterruptHandler	PTR FTN()void  size(2) Largest target is 0

    Interrupt_INTx_Disable@int_obj$EXT_InterruptHandler	PTR FTN()void  size(2) Largest target is 0

    Interrupt_INTx_Edge_Init@int_obj$EXT_InterruptHandler	PTR FTN()void  size(2) Largest target is 0

    Interrupt_INTx_Enable@int_obj$EXT_InterruptHandler	PTR FTN()void  size(2) Largest target is 0

    Interrupt_INTx_Pin_Init@int_obj$EXT_InterruptHandler	PTR FTN()void  size(2) Largest target is 0

    Interrupt_INTx_SetInterruptHandler@int_obj$EXT_InterruptHandler	PTR FTN()void  size(2) Largest target is 0

    Interrupt_RBx_Init@int_obj$EXT_InterruptHandler_HIGH	PTR FTN()void  size(2) Largest target is 0

    Interrupt_RBx_Init@int_obj$EXT_InterruptHandler_LOW	PTR FTN()void  size(2) Largest target is 0

    lat_registers	PTR volatile unsigned char [5] size(2) Largest target is 1
		 -> LATA(BITBIGSFRlll[1]), LATB(BITBIGSFRlh[1]), LATC(BITBIGSFRlh[1]), LATD(BITBIGSFRlh[1]), 
		 -> LATE(BITBIGSFRlh[1]), 

    led_initialize@led	PTR const struct . size(1) Largest target is 1
		 -> led_1(COMRAM[1]), 

    led_turn_off@led	PTR const struct . size(1) Largest target is 1
		 -> led_1(COMRAM[1]), 

    led_turn_on@led	PTR const struct . size(1) Largest target is 1
		 -> led_1(COMRAM[1]), 

    port_registers	PTR volatile unsigned char [5] size(2) Largest target is 1
		 -> PORTA(BITBIGSFRlll[1]), PORTB(BITBIGSFRllh[1]), PORTC(BITBIGSFRllh[1]), PORTD(BITBIGSFRllh[1]), 
		 -> PORTE(BITBIGSFRllh[1]), 

    RB4_InterruptHandler_HIGH	PTR FTN()void  size(2) Largest target is 1
		 -> NULL(), 

    RB4_InterruptHandler_LOW	PTR FTN()void  size(2) Largest target is 1
		 -> NULL(), 

    RB5_InterruptHandler_HIGH	PTR FTN()void  size(2) Largest target is 1
		 -> NULL(), 

    RB5_InterruptHandler_LOW	PTR FTN()void  size(2) Largest target is 1
		 -> NULL(), 

    RB6_InterruptHandler_HIGH	PTR FTN()void  size(2) Largest target is 1
		 -> NULL(), 

    RB6_InterruptHandler_LOW	PTR FTN()void  size(2) Largest target is 1
		 -> NULL(), 

    RB7_InterruptHandler_HIGH	PTR FTN()void  size(2) Largest target is 1
		 -> NULL(), 

    RB7_InterruptHandler_LOW	PTR FTN()void  size(2) Largest target is 1
		 -> NULL(), 

    S1001$EXT_InterruptHandler	PTR FTN()void  size(2) Largest target is 0

    S1099$EXT_InterruptHandler_HIGH	PTR FTN()void  size(2) Largest target is 0

    S1099$EXT_InterruptHandler_LOW	PTR FTN()void  size(2) Largest target is 0

    S1894$buffer	PTR unsigned char  size(2) Largest target is 0

    S1894$source	PTR const unsigned char  size(2) Largest target is 0

    sp__memset	PTR void  size(2) Largest target is 0

    tris_registers	PTR volatile unsigned char [5] size(2) Largest target is 1
		 -> TRISA(BITBIGSFRlll[1]), TRISB(BITBIGSFRhllll[1]), TRISC(BITBIGSFRhllll[1]), TRISD(BITBIGSFRhllll[1]), 
		 -> TRISE(BITBIGSFRhllll[1]), 

    vfprintf$0	PTR struct _IO_FILE size(1) Largest target is 12
		 -> sprintf@f(COMRAM[12]), 

    vfprintf$1	PTR const unsigned char  size(1) Largest target is 3
		 -> STR_1(CODE[3]), STR_2(CODE[3]), STR_3(CODE[3]), 

    vfprintf$2	PTR PTR void  size(1) Largest target is 1
		 -> sprintf@ap(COMRAM[1]), 


Critical Paths under _main in COMRAM

    _main->_led_initialize
    _led_turn_on->_gpio_pin_write_logic
    _led_turn_off->_gpio_pin_write_logic
    _led_initialize->_gpio_pin_intialize
    _gpio_pin_intialize->_gpio_pin_write_logic

Critical Paths under _InterruptManager in COMRAM

    _InterruptManager->_RB4_ISR
    _InterruptManager->_RB5_ISR
    _InterruptManager->_RB6_ISR
    _InterruptManager->_RB7_ISR

Critical Paths under _main in BANK0

    None.

Critical Paths under _InterruptManager in BANK0

    None.

Critical Paths under _main in BANK1

    None.

Critical Paths under _InterruptManager in BANK1

    None.

Critical Paths under _main in BANK2

    None.

Critical Paths under _InterruptManager in BANK2

    None.

Critical Paths under _main in BANK3

    None.

Critical Paths under _InterruptManager in BANK3

    None.

Critical Paths under _main in BANK4

    None.

Critical Paths under _InterruptManager in BANK4

    None.

Critical Paths under _main in BANK5

    None.

Critical Paths under _InterruptManager in BANK5

    None.

Critical Paths under _main in BANK6

    None.

Critical Paths under _InterruptManager in BANK6

    None.

Critical Paths under _main in BANK7

    None.

Critical Paths under _InterruptManager in BANK7

    None.

Critical Paths under _main in BANK8

    None.

Critical Paths under _InterruptManager in BANK8

    None.

Critical Paths under _main in BANK9

    None.

Critical Paths under _InterruptManager in BANK9

    None.

Critical Paths under _main in BANK10

    None.

Critical Paths under _InterruptManager in BANK10

    None.

Critical Paths under _main in BANK11

    None.

Critical Paths under _InterruptManager in BANK11

    None.

Critical Paths under _main in BANK12

    None.

Critical Paths under _InterruptManager in BANK12

    None.

Critical Paths under _main in BANK13

    None.

Critical Paths under _InterruptManager in BANK13

    None.

Critical Paths under _main in BANK14

    None.

Critical Paths under _InterruptManager in BANK14

    None.

Critical Paths under _main in BANK15

    None.

Critical Paths under _InterruptManager in BANK15

    None.

Call Graph Tables:

 ---------------------------------------------------------------------------------
 (Depth) Function   	        Calls       Base Space   Used Autos Params    Refs
 ---------------------------------------------------------------------------------
 (0) _main                                                 2     2      0   17856
                                             16 COMRAM     2     2      0
               _Data_EEPROM_ReadByte
              _Data_EEPROM_WriteByte
                     _led_initialize
                       _led_turn_off
                        _led_turn_on
 ---------------------------------------------------------------------------------
 (1) _led_turn_on                                          4     3      1    5111
                                              9 COMRAM     4     3      1
               _gpio_pin_write_logic
 ---------------------------------------------------------------------------------
 (1) _led_turn_off                                         4     3      1    5111
                                              9 COMRAM     4     3      1
               _gpio_pin_write_logic
 ---------------------------------------------------------------------------------
 (1) _led_initialize                                       4     3      1    6954
                                             12 COMRAM     4     3      1
                 _gpio_pin_intialize
 ---------------------------------------------------------------------------------
 (2) _gpio_pin_intialize                                   3     2      1    6726
                                              9 COMRAM     3     2      1
       _gpio_pin_direction_intialize
               _gpio_pin_write_logic
 ---------------------------------------------------------------------------------
 (2) _gpio_pin_write_logic                                 8     6      2    4891
                                              1 COMRAM     8     6      2
 ---------------------------------------------------------------------------------
 (3) _gpio_pin_direction_intialize                         7     6      1     559
                                              1 COMRAM     7     6      1
 ---------------------------------------------------------------------------------
 (1) _Data_EEPROM_WriteByte                                5     2      3     416
                                              1 COMRAM     4     1      3
 ---------------------------------------------------------------------------------
 (1) _Data_EEPROM_ReadByte                                 4     1      3     264
                                              1 COMRAM     4     1      3
 ---------------------------------------------------------------------------------
 Estimated maximum stack depth 3
 ---------------------------------------------------------------------------------
 (Depth) Function   	        Calls       Base Space   Used Autos Params    Refs
 ---------------------------------------------------------------------------------
 (4) _InterruptManager                                     0     0      0     120
                           _INT0_ISR
                           _INT1_ISR
                           _INT2_ISR
                            _RB4_ISR
                            _RB5_ISR
                            _RB6_ISR
                            _RB7_ISR
 ---------------------------------------------------------------------------------
 (5) _RB7_ISR                                              1     1      0      30
                                              0 COMRAM     1     1      0
 ---------------------------------------------------------------------------------
 (5) _RB6_ISR                                              1     1      0      30
                                              0 COMRAM     1     1      0
 ---------------------------------------------------------------------------------
 (5) _RB5_ISR                                              1     1      0      30
                                              0 COMRAM     1     1      0
 ---------------------------------------------------------------------------------
 (5) _RB4_ISR                                              1     1      0      30
                                              0 COMRAM     1     1      0
 ---------------------------------------------------------------------------------
 (5) _INT2_ISR                                             0     0      0       0
 ---------------------------------------------------------------------------------
 (5) _INT1_ISR                                             0     0      0       0
 ---------------------------------------------------------------------------------
 (5) _INT0_ISR                                             0     0      0       0
 ---------------------------------------------------------------------------------
 Estimated maximum stack depth 5
 ---------------------------------------------------------------------------------

 Call Graph Graphs:

 _main (ROOT)
   _Data_EEPROM_ReadByte
   _Data_EEPROM_WriteByte
   _led_initialize
     _gpio_pin_intialize
       _gpio_pin_direction_intialize
       _gpio_pin_write_logic
   _led_turn_off
     _gpio_pin_write_logic
   _led_turn_on
     _gpio_pin_write_logic

 _InterruptManager (ROOT)
   _INT0_ISR
   _INT1_ISR
   _INT2_ISR
   _RB4_ISR
   _RB5_ISR
   _RB6_ISR
   _RB7_ISR

 Address spaces:
Name               Size   Autos  Total    Cost      Usage
BIGRAM             F5F      0       0      43        0.0%
EEDATA             400      0       0       0        0.0%
BITBANK14          100      0       0      32        0.0%
BANK14             100      0       0      33        0.0%
BITBANK13          100      0       0      30        0.0%
BANK13             100      0       0      31        0.0%
BITBANK12          100      0       0      28        0.0%
BANK12             100      0       0      29        0.0%
BITBANK11          100      0       0      26        0.0%
BANK11             100      0       0      27        0.0%
BITBANK10          100      0       0      24        0.0%
BANK10             100      0       0      25        0.0%
BITBANK9           100      0       0      22        0.0%
BANK9              100      0       0      23        0.0%
BITBANK8           100      0       0      20        0.0%
BANK8              100      0       0      21        0.0%
BITBANK7           100      0       0      18        0.0%
BANK7              100      0       0      19        0.0%
BITBANK6           100      0       0      16        0.0%
BANK6              100      0       0      17        0.0%
BITBANK5           100      0       0      14        0.0%
BANK5              100      0       0      15        0.0%
BITBANK4           100      0       0      12        0.0%
BANK4              100      0       0      13        0.0%
BITBANK3           100      0       0      10        0.0%
BANK3              100      0       0      11        0.0%
BITBANK2           100      0       0       8        0.0%
BANK2              100      0       0       9        0.0%
BITBANK1           100      0       0       6        0.0%
BANK1              100      0       0       7        0.0%
BITBANK0            A0      0       0       4        0.0%
BANK0               A0      0       0       5        0.0%
BITBANK15           60      0       0      34        0.0%
BANK15              60      0       0      35        0.0%
BITCOMRAM           5E      0       0       0        0.0%
COMRAM              5E     12      55       1       90.4%
BITBIGSFRhllh       45      0       0      37        0.0%
BITBIGSFRlll        20      0       0      41        0.0%
BITBIGSFRhllll       F      0       0      38        0.0%
BITBIGSFRhh          D      0       0      36        0.0%
BITBIGSFRllh         4      0       0      40        0.0%
BITBIGSFRlh          4      0       0      39        0.0%
BIGSFR               0      0       0     200        0.0%
BITSFR               0      0       0     200        0.0%
SFR                  0      0       0     200        0.0%
STACK                0      0       0       2        0.0%
NULL                 0      0       0       0        0.0%
ABS                  0      0      55      42        0.0%
DATA                 0      0      55       3        0.0%
CODE                 0      0       0       0        0.0%


Microchip Technology PIC18 Macro Assembler V2.46 build 20240104201356 
Symbol Table                                                                                   Tue Aug 27 23:17:25 2024

                          ??_InterruptManager 0044                                           l300 134C  
                                         l304 13A2                                           l408 1236  
                                         l290 1412                                           l429 1470  
                                         l293 12D8                                           l286 13C0  
                                         l297 132E                                           l389 1126  
                                         l771 149A                                           l773 14A8  
                                         l774 14B6                                           l779 14F4  
                   _RB5_InterruptHandler_HIGH 002E                                           _ret 0055  
                         led_initialize@F3310 0041                                           wreg 0FE8  
                       relay_initialize@F3304 003D                                  ?_led_turn_on 004C  
                             __end_of_RB4_ISR 15B8                               __end_of_RB5_ISR 159E  
                             __end_of_RB6_ISR 1584                               __end_of_RB7_ISR 156A  
                                        l3000 12D0                                          l3002 12DC  
                                        l3010 132C                                          l3020 1382  
                                        l3004 130E                                          l3030 1472  
                                        l3022 1384                                          l3014 1330  
                                        l3006 1310                                          l3040 1488  
                                        l3032 1472                                          l3024 1394  
                                        l3016 1344                                          l3008 1320  
                                        l3050 1494                                          l3042 148A  
                                        l3034 147A                                          l3018 1350  
                                        l3026 13A0                                          l3060 14CC  
                                        l3052 1498                                          l3044 148C  
                                        l3036 1480                                          l3070 14E2  
                                        l3062 14D4                                          l3054 14B4  
                                        l3046 148E                                          l3038 1484  
                                        l3072 14E4                                          l3064 14DA  
                                        l3048 1490                                          l3074 14E6  
                                        l3066 14DE                                          l3058 14B8  
                                        l3076 14E8                                          l3068 14E0  
                                        l3078 14F2                                          l2800 120A  
                                        l2810 1016                                          l2802 1234  
                                        l2812 102A                                          l3604 121E  
                                        l2822 10F8                                          l2814 104A  
                                        l2830 1424                                          l2816 1052  
                                        l2824 1124                                          l2832 1444  
                                        l2818 10A8                                          l2834 144C  
                                        l2836 146E                                          l2828 1414  
                                        l2790 113C                                          l3590 1264  
                                        l3582 1238                                          l2792 115C  
                                        l3592 127A                                          l3584 1242  
                                        l2794 1164                                          l3594 128A  
                                        l3586 1252                                          l2796 11BA  
                                        l2788 1128                                          l3596 129C  
                                        l3588 1262                                          l2990 13F8  
                                        l2982 13A4                                          l3598 12AA  
                                        l2992 1408                                          l2984 13B8  
                                        l2986 13C4                                          l2994 1410  
                                        l2988 13F6                                          l2998 12BC  
                     ??_Data_EEPROM_WriteByte 0047                                          STR_1 1011  
                                        u2000 14A8                                          u2001 14A4  
                                        u2020 14CC                                          u2021 14C8  
                                        u2015 14B2                                          u2016 14B4  
                                        _LATA 0F89                                          _LATB 0F8A  
                                        _LATC 0F8B                                          _LATD 0F8C  
                                        _LATE 0F8D                                          u1700 113C  
                                        u1701 1138                                          u1710 115C  
                                        u2510 129C                                          u1711 1158  
                                        u2511 1298                                          u1800 1444  
                                        u1801 1440                                          u1740 102A  
                                        u1724 1182                                          u1741 1026  
                                        u1725 117E                                          u1750 104A  
                                        u1734 11D8                                          u1751 1046  
                                        u1735 11D4                                          u2527 126E  
                                        u1780 110E                                          u1764 1070  
                                        u1940 13B8                                          u1781 1108  
                                        u1765 106C                                          u1941 13B4  
                                        u1774 10C6                                          u1790 1424  
                                        u1775 10C2                                          u1791 1420  
                                        u1960 12D0                                          u1961 12CC  
                                        u1786 1110                                          u1955 1406  
                                        u1980 1344                                          u1957 1408  
                                        u1981 1340                                          u1975 131E  
                                        u1977 1320                                          u1995 1392  
                                        u1997 1394                      _RB4_InterruptHandler_LOW 0030  
                                        _main 1238                      _RB7_InterruptHandler_LOW 0024  
                                        fsr2h 0FDA                                          indf2 0FDF  
                                        fsr1l 0FE1                                          fsr2l 0FD9  
                                        btemp 0056                        __end_of_led_initialize 1414  
                                        prodl 0FF3                                          start 028E  
                               ?_led_turn_off 004C                                  ___param_bank 0000  
                        _gpio_pin_write_logic 1128                              __end_of_INT0_ISR 15C4  
                            __end_of_INT1_ISR 15C0                              __end_of_INT2_ISR 15BC  
                                       ?_main 0043                                         _EEADR 0FA9  
                                       i2l500 00F2                                         i2l502 0136  
                                       i2l511 028A                                         i2l600 1582  
                                       i2l505 01BE                                         i2l610 1568  
                                       i2l508 0246                                         i2l562 15C2  
                                       i2l570 15BA                                         i2l580 15B6  
                                       i2l492 002A                                         i2l566 15BE  
                                       i2l590 159C                                         i2l494 004A  
                                       i2l496 006A                                         i2l498 00AE  
                         relay_turn_off@F3314 003B                                         _PORTA 0F80  
                                       _PORTB 0F81                                         _PORTC 0F82  
                                       _PORTD 0F83                                         _PORTE 0F84  
                                       _TRISA 0F92                                         _TRISB 0F93  
                                       _TRISC 0F94                                         _TRISD 0F95  
                                       _TRISE 0F96                                         _led_1 0023  
                                       tablat 0FF5                                         ttemp5 0057  
                                       ttemp6 005A                                         ttemp7 005E  
                                       status 0FD8                                         wtemp8 0057  
                             ?_led_initialize 004F                  __end_of_Data_EEPROM_ReadByte 14F6  
                              ??_led_turn_off 004D                               __initialization 14F6  
                                __end_of_main 12BC                         ?_gpio_pin_write_logic 0044  
                               _lat_registers 000B                                        ??_main 0053  
                               __activetblptr 0003                              led_turn_on@F3315 0040  
                                   ??_RB4_ISR 0043                                     ??_RB5_ISR 0043  
                                   ??_RB6_ISR 0043                                     ??_RB7_ISR 0043  
                                      _EEADRH 0FAA                                        _EEDATA 0FA8  
                                      _EECON2 0FA7                                        i2l2500 00A8  
                                      i2l2510 00EC                                        i2l2502 00BC  
                                      i2l2520 0130                                        i2l2512 0100  
                                      i2l2504 00CA                                        i2l1714 15C0  
                                      i2l1722 15B8                                        i2l2530 0174  
                                      i2l2522 0144                                        i2l2514 010E  
                                      i2l2506 00D8                                        i2l1740 1586  
                                      i2l2540 01B4                                        i2l2524 0152  
                                      i2l2532 017A                                        i2l2516 011C  
                                      i2l2508 00E8                                        i2l1718 15BC  
                                      i2l1734 15B6                                        i2l1726 15A0  
                                      i2l1742 1588                                        i2l2550 01F8  
                                      i2l2542 01B8                                        i2l2534 0188  
                                      i2l2526 0160                                        i2l2518 012C  
                                      i2l1728 15A2                                        i2l2560 022C  
                                      i2l2552 01FC                                        i2l2544 01CC  
                                      i2l2536 0196                                        i2l2528 0170  
                                      i2l2480 0018                                        i2l1762 1582  
                                      i2l1754 156C                                        i2l1770 1554  
                                      i2l2570 0270                                        i2l2562 023C  
                                      i2l2546 01DA                                        i2l2554 0202  
                                      i2l2538 01A4                                        i2l2490 0066  
                                      i2l2482 0026                                        i2l1748 159C  
                                      i2l1756 156E                                        i2l2572 0280  
                                      i2l2564 0240                                        i2l2556 0210  
                                      i2l2548 01E8                                        i2l2492 0078  
                                      i2l2484 0038                                        i2l2574 0284  
                                      i2l2566 0254                                        i2l2558 021E  
                                      i2l2494 0086                                        i2l2486 0046  
                                      i2l2478 000A                                        i2l1776 1568  
                                      i2l1768 1552                                        i2l2568 0262  
                                      i2l2496 0094                                        i2l2488 0058  
                                      i2l2498 00A4                                        clear_0 151C  
                       led_initialize@pin_obj 0052                                        isa$std 0001  
     gpio_pin_direction_intialize@_pin_config 0044                                  __pdataCOMRAM 0001  
                                __mediumconst 0000                                        tblptrh 0FF7  
                                      tblptrl 0FF6                                        tblptru 0FF8  
                                  __accesstop 0060                       __end_of__initialization 1522  
                                   ?_INT0_ISR 0043                                     ?_INT1_ISR 0043  
                                   ?_INT2_ISR 0043                                 ___rparam_used 0001  
                           led_initialize@led 004F                             led_initialize@ret 0051  
                      ??_gpio_pin_write_logic 0046                                __pcstackCOMRAM 0043  
                           RB5_ISR@RB5_source 0043                       Data_EEPROM_ReadByte@ret 0047  
                        _Data_EEPROM_ReadByte 14B8                          __end_of_led_turn_off 13A4  
               __end_of_Data_EEPROM_WriteByte 14B8                         _INT0_InterruptHandler 0038  
                                  ??_INT0_ISR 0043                                    ??_INT1_ISR 0043  
                                  ??_INT2_ISR 0043                                    __pnvCOMRAM 0055  
                           led_turn_off@F3320 003F                                       _RB4_ISR 159E  
                                     _RB5_ISR 1584                         ?_Data_EEPROM_ReadByte 0044  
                                     _RB6_ISR 156A                                       _RB7_ISR 1550  
                   _RB6_InterruptHandler_HIGH 002A                                    _eeprom_val 003A  
                        led_turn_toggle@F3325 003E                                       i2u31_40 15B2  
                                     i2u31_41 15AE                                       i2u32_40 1598  
                                     i2u32_41 1594                                       i2u33_40 157E  
                                     i2u33_41 157A                                       i2u34_40 1564  
                                     i2u34_41 1560                             RB7_ISR@RB7_source 0043  
                            ??_led_initialize 0050                                    _btn_values 1001  
                              _tris_registers 0015                      _RB6_InterruptHandler_LOW 0028  
                                     __Hparam 0000                                       __Lparam 0000  
                                __psmallconst 1000                    __end_of_gpio_pin_intialize 1472  
                                     __pcinit 14F6                                       __ramtop 1000  
                                     __ptext0 1238                                       __ptext1 12BC  
                                     __ptext2 1330                                       __ptext3 13A4  
                                     __ptext4 1414                                       __ptext5 1128  
                                     __ptext6 1016                                       __ptext7 1472  
                                     __ptext8 14B8                          end_of_initialization 1522  
                       gpio_pin_intialize@ret 004E                           led_turn_off@pin_obj 004F  
                                     postdec1 0FE5                                       postdec2 0FDD  
                                     postinc0 0FEE                                       postinc2 0FDE  
                       _INT1_InterruptHandler 0036                                     _PORTBbits 0F81  
                      ??_Data_EEPROM_ReadByte 0047                              _InterruptManager 0008  
               gpio_pin_intialize@_pin_config 004C          __end_of_gpio_pin_direction_intialize 1128  
                _gpio_pin_direction_intialize 1016                                  _led_turn_off 1330  
                          relay_turn_on@F3309 003C                                 __pidataCOMRAM 152C  
                         start_initialization 14F6                                 ??_led_turn_on 004D  
               ?_gpio_pin_direction_intialize 0044                      Data_EEPROM_ReadByte@bAdd 0044  
                             led_turn_off@led 004C                               led_turn_off@ret 004E  
                             _eeprom_val_read 0042                                      ?_RB4_ISR 0043  
                                    ?_RB5_ISR 0043                                      ?_RB6_ISR 0043  
                                    ?_RB7_ISR 0043                                   __pbssCOMRAM 0024  
                         __end_of_led_turn_on 1330                         _INT2_InterruptHandler 0034  
             gpio_pin_direction_intialize@ret 004A                         _Data_EEPROM_WriteByte 1472  
                                   __pintcode 0008               gpio_pin_write_logic@_pin_config 0044  
                   gpio_pin_write_logic@logic 0045                                   __smallconst 1000  
                   _RB4_InterruptHandler_HIGH 0032                     _RB7_InterruptHandler_HIGH 0026  
                          _gpio_pin_intialize 1414                ??_gpio_pin_direction_intialize 0045  
                    _RB5_InterruptHandler_LOW 002C                                      _INT0_ISR 15C0  
                                    _INT1_ISR 15BC                                      _INT2_ISR 15B8  
                                    _RB4_Flag 0022                                      _RB5_Flag 0021  
                                    _RB6_Flag 0020                                      _RB7_Flag 001F  
                         ?_gpio_pin_intialize 004C                      __end_of_InterruptManager 028E  
                                    i2u120_40 0066                                      i2u120_41 0062  
                                    i2u121_40 0078                                      i2u121_41 0074  
                                    i2u130_40 010E                                      i2u122_40 0086  
                                    i2u130_41 010A                                      i2u122_41 0082  
                                    i2u131_40 011C                                      i2u123_40 0094  
                                    i2u115_40 0018                                      i2u131_41 0118  
                                    i2u123_41 0090                                      i2u115_41 0014  
                                    i2u140_40 01B4                                      i2u132_40 012C  
                                    i2u124_40 00A4                                      i2u116_40 0026  
                                    i2u140_41 01B0                                      i2u132_41 0128  
                                    i2u124_41 00A0                                      i2u116_41 0022  
                                    i2u141_40 01CC                                      i2u133_40 0144  
                                    i2u125_40 00BC                                      i2u117_40 0038  
                                    i2u141_41 01C8                                      i2u133_41 0140  
                                    i2u125_41 00B8                                      i2u117_41 0034  
                                    i2u150_40 0262                                      i2u142_40 01DA  
                                    i2u134_40 0152                                      i2u126_40 00CA  
                                    i2u118_40 0046                                      i2u150_41 025E  
                                    i2u142_41 01D6                                      i2u134_41 014E  
                                    i2u126_41 00C6                                      i2u118_41 0042  
                                    i2u151_40 0270                                      i2u143_40 01E8  
                                    i2u135_40 0160                                      i2u127_40 00D8  
                                    i2u119_40 0058                                      i2u151_41 026C  
                                    i2u143_41 01E4                                      i2u135_41 015C  
                                    i2u127_41 00D4                                      i2u119_41 0054  
                                    i2u152_40 0280                                      i2u144_40 01F8  
                                    i2u136_40 0170                                      i2u128_40 00E8  
                                    i2u152_41 027C                                      i2u144_41 01F4  
                                    i2u136_41 016C                                      i2u128_41 00E4  
                                    i2u145_40 0210                                      i2u137_40 0188  
                                    i2u129_40 0100                                      i2u145_41 020C  
                                    i2u137_41 0184                                      i2u129_41 00FC  
                                    i2u146_40 021E                                      i2u138_40 0196  
                                    i2u146_41 021A                                      i2u138_41 0192  
                                    i2u147_40 022C                                      i2u139_40 01A4  
                                    i2u147_41 0228                                      i2u139_41 01A0  
                                    i2u148_40 023C                                      i2u148_41 0238  
                                    i2u149_40 0254                                      i2u149_41 0250  
                          led_turn_on@pin_obj 004F                             RB4_ISR@RB4_source 0043  
                        ??_gpio_pin_intialize 004D                     Data_EEPROM_ReadByte@bData 0046  
                                 _led_turn_on 12BC                       gpio_pin_write_logic@ret 004B  
                                 _INTCON2bits 0FF1  Data_EEPROM_WriteByte@Global_Interrupt_Status 0047  
                                 _INTCON3bits 0FF0                                     copy_data0 150A  
                      ?_Data_EEPROM_WriteByte 0044                                    _EECON1bits 0FA6  
                              led_turn_on@led 004C                                led_turn_on@ret 004E  
                                    __Hrparam 0000                                      __Lrparam 0000  
                          __end_of_btn_values 1011                             RB6_ISR@RB6_source 0043  
                                    __ptext10 1550                                      __ptext11 156A  
                                    __ptext12 1584                                      __ptext13 159E  
                                    __ptext14 15B8                                      __ptext15 15BC  
                                    __ptext16 15C0                                      isa$xinst 0000  
                                    int$flags 0056                                    _INTCONbits 0FF2  
                __end_of_gpio_pin_write_logic 1238                                      intlevel2 0000  
                  Data_EEPROM_WriteByte@bData 0046                                _port_registers 0001  
                   Data_EEPROM_WriteByte@bAdd 0044                             ?_InterruptManager 0043  
                              _led_initialize 13A4  
