

Microchip MPLAB XC8 Assembler V2.46 build 20240104201356 
                                                                                               Mon Aug 26 23:46:50 2024

Microchip MPLAB XC8 C Compiler v2.46 (Free license) build 20240104201356 Og1 
     1                           	processor	18F46K20
     2                           	fnconf	rparam,??,?,0
     3                           	pagewidth 120
     4                           	opt	flic
     5                           	psect	idataCOMRAM,global,class=CODE,delta=1,noexec
     6                           	psect	idataBANK0,global,class=CODE,delta=1,noexec
     7                           	psect	smallconst,global,reloc=2,class=SMALLCONST,delta=1,noexec
     8                           	psect	nvCOMRAM,global,class=COMRAM,space=1,delta=1,lowdata,noexec
     9                           	psect	cinit,global,reloc=2,class=CODE,delta=1
    10                           	psect	bssCOMRAM,global,class=COMRAM,space=1,delta=1,lowdata,noexec
    11                           	psect	dataCOMRAM,global,class=COMRAM,space=1,delta=1,lowdata,noexec
    12                           	psect	dataBANK0,global,class=BANK0,space=1,delta=1,lowdata,noexec
    13                           	psect	cstackBANK0,global,class=BANK0,space=1,delta=1,lowdata,noexec
    14                           	psect	cstackCOMRAM,global,class=COMRAM,space=1,delta=1,lowdata,noexec
    15                           	psect	text0,global,reloc=2,class=CODE,delta=1
    16                           	psect	text1,global,reloc=2,class=CODE,delta=1
    17                           	psect	text2,global,reloc=2,class=CODE,delta=1
    18                           	psect	text3,global,reloc=2,class=CODE,delta=1
    19                           	psect	text4,global,reloc=2,class=CODE,delta=1
    20                           	psect	text5,global,reloc=2,class=CODE,delta=1
    21                           	psect	intcode,global,reloc=2,class=CODE,delta=1
    22                           	psect	text7,global,reloc=2,class=CODE,delta=1
    23                           	psect	text8,global,reloc=2,class=CODE,delta=1
    24                           	psect	text9,global,reloc=2,class=CODE,delta=1
    25                           	psect	text10,global,reloc=2,class=CODE,delta=1
    26                           	psect	text11,global,reloc=2,class=CODE,delta=1
    27                           	psect	text12,global,reloc=2,class=CODE,delta=1
    28                           	psect	text13,global,reloc=2,class=CODE,delta=1
    29                           	psect	text14,global,reloc=2,class=CODE,delta=1
    30                           	psect	text15,global,reloc=2,class=CODE,delta=1
    31                           	psect	text16,global,reloc=2,class=CODE,delta=1
    32                           	psect	text17,global,reloc=2,class=CODE,delta=1
    33                           	psect	text18,global,reloc=2,class=CODE,delta=1
    34                           	psect	text19,global,reloc=2,class=CODE,delta=1
    35                           	psect	text20,global,reloc=2,class=CODE,delta=1
    36                           	psect	text21,global,reloc=2,class=CODE,delta=1
    37                           	psect	text22,global,reloc=2,class=CODE,delta=1
    38                           	psect	text23,global,reloc=2,class=CODE,delta=1
    39                           	psect	text24,global,reloc=2,class=CODE,delta=1
    40                           	psect	intsave_regs,global,class=BIGRAM,space=1,delta=1,noexec
    41                           	psect	rparam,global,class=COMRAM,space=1,delta=1,noexec
    42                           	psect	temp,global,ovrld,common,class=COMRAM,space=1,delta=1,lowdata
    43                           	psect	config,global,abs,ovrld,class=CONFIG,space=4,delta=1,noexec
    44   000000                     
    45                           ; Generated 12/10/2023 GMT
    46                           ; 
    47                           ; Copyright © 2023, Microchip Technology Inc. and its subsidiaries ("Microchip")
    48                           ; All rights reserved.
    49                           ; 
    50                           ; This software is developed by Microchip Technology Inc. and its subsidiaries ("Microch
      +                          ip").
    51                           ; 
    52                           ; Redistribution and use in source and binary forms, with or without modification, are
    53                           ; permitted provided that the following conditions are met:
    54                           ; 
    55                           ;     1. Redistributions of source code must retain the above copyright notice, this lis
      +                          t of
    56                           ;        conditions and the following disclaimer.
    57                           ; 
    58                           ;     2. Redistributions in binary form must reproduce the above copyright notice, this 
      +                          list
    59                           ;        of conditions and the following disclaimer in the documentation and/or other
    60                           ;        materials provided with the distribution. Publication is not required when
    61                           ;        this file is used in an embedded application.
    62                           ; 
    63                           ;     3. Microchip's name may not be used to endorse or promote products derived from th
      +                          is
    64                           ;        software without specific prior written permission.
    65                           ; 
    66                           ; THIS SOFTWARE IS PROVIDED BY MICROCHIP "AS IS" AND ANY EXPRESS OR IMPLIED WARRANTIES,
    67                           ; INCLUDING, BUT NOT LIMITED TO, THE IMPLIED WARRANTIES OF MERCHANTABILITY AND FITNESS F
      +                          OR
    68                           ; PURPOSE ARE DISCLAIMED.  IN NO EVENT SHALL MICROCHIP BE LIABLE FOR ANY DIRECT, INDIREC
      +                          T,
    69                           ; INCIDENTAL, SPECIAL, EXEMPLARY, OR CONSEQUENTIAL DAMAGES (INCLUDING BUT NOT LIMITED TO
    70                           ; PROCUREMENT OF SUBSTITUTE GOODS OR SERVICES; LOSS OF USE, DATA OR PROFITS; OR BUSINESS
    71                           ; INTERRUPTION) HOWSOEVER CAUSED AND ON ANY THEORY OF LIABILITY, WHETHER IN CONTRACT, ST
      +                          RICT
    72                           ; LIABILITY, OR TORT (INCLUDING NEGLIGENCE OR OTHERWISE) ARISING IN ANY WAY OUT OF THE U
      +                          SE OF
    73                           ; THIS SOFTWARE, EVEN IF ADVISED OF THE POSSIBILITY OF SUCH DAMAGE.
    74                           ; 
    75                           ; 
    76                           ; Code-generator required, PIC18F46K20 Definitions
    77                           ; 
    78                           ; SFR Addresses
    79   000000                     
    80                           	psect	idataCOMRAM
    81   0018EC                     __pidataCOMRAM:
    82                           	callstack 0
    83                           
    84                           ;initializer for _lat_registers
    85   0018EC  89                 	db	137
    86   0018ED  0F                 	db	15
    87   0018EE  8A                 	db	138
    88   0018EF  0F                 	db	15
    89   0018F0  8B                 	db	139
    90   0018F1  0F                 	db	15
    91   0018F2  8C                 	db	140
    92   0018F3  0F                 	db	15
    93   0018F4  8D                 	db	141
    94   0018F5  0F                 	db	15
    95                           
    96                           ;initializer for _tris_registers
    97   0018F6  92                 	db	146
    98   0018F7  0F                 	db	15
    99   0018F8  93                 	db	147
   100   0018F9  0F                 	db	15
   101   0018FA  94                 	db	148
   102   0018FB  0F                 	db	15
   103   0018FC  95                 	db	149
   104   0018FD  0F                 	db	15
   105   0018FE  96                 	db	150
   106   0018FF  0F                 	db	15
   107                           
   108                           ;initializer for _RB7_Flag
   109   001900  01                 	db	1
   110                           
   111                           ;initializer for _RB6_Flag
   112   001901  01                 	db	1
   113                           
   114                           ;initializer for _RB5_Flag
   115   001902  01                 	db	1
   116                           
   117                           ;initializer for _RB4_Flag
   118   001903  01                 	db	1
   119                           
   120                           ;initializer for _led_4
   121   001904  32                 	db	50
   122                           
   123                           ;initializer for _led_3
   124   001905  22                 	db	34
   125                           
   126                           ;initializer for _led_2
   127   001906  12                 	db	18
   128                           
   129                           ;initializer for _led_1
   130   001907  02                 	db	2
   131                           
   132                           	psect	idataBANK0
   133   0018CA                     __pidataBANK0:
   134                           	callstack 0
   135                           
   136                           ;initializer for _port_registers
   137   0018CA  80                 	db	128
   138   0018CB  0F                 	db	15
   139   0018CC  81                 	db	129
   140   0018CD  0F                 	db	15
   141   0018CE  82                 	db	130
   142   0018CF  0F                 	db	15
   143   0018D0  83                 	db	131
   144   0018D1  0F                 	db	15
   145   0018D2  84                 	db	132
   146   0018D3  0F                 	db	15
   147                           
   148                           ;initializer for _RB7_obj
   149   0018D4  5C                 	db	low _RB7_Int_APP_ISR_HIGH
   150   0018D5  19                 	db	high _RB7_Int_APP_ISR_HIGH
   151   0018D6  2C                 	db	low _RB7_Int_APP_ISR_LOW
   152   0018D7  19                 	db	high _RB7_Int_APP_ISR_LOW
   153   0018D8  79                 	db	121
   154   0018D9  01                 	db	1
   155                           
   156                           ;initializer for _RB6_obj
   157   0018DA  38                 	db	low _RB6_Int_APP_ISR_HIGH
   158   0018DB  19                 	db	high _RB6_Int_APP_ISR_HIGH
   159   0018DC  08                 	db	low _RB6_Int_APP_ISR_LOW
   160   0018DD  19                 	db	high _RB6_Int_APP_ISR_LOW
   161   0018DE  71                 	db	113
   162   0018DF  01                 	db	1
   163                           
   164                           ;initializer for _RB5_obj
   165   0018E0  44                 	db	low _RB5_Int_APP_ISR_HIGH
   166   0018E1  19                 	db	high _RB5_Int_APP_ISR_HIGH
   167   0018E2  14                 	db	low _RB5_Int_APP_ISR_LOW
   168   0018E3  19                 	db	high _RB5_Int_APP_ISR_LOW
   169   0018E4  69                 	db	105
   170   0018E5  01                 	db	1
   171                           
   172                           ;initializer for _RB4_obj
   173   0018E6  50                 	db	low _RB4_Int_APP_ISR_HIGH
   174   0018E7  19                 	db	high _RB4_Int_APP_ISR_HIGH
   175   0018E8  20                 	db	low _RB4_Int_APP_ISR_LOW
   176   0018E9  19                 	db	high _RB4_Int_APP_ISR_LOW
   177   0018EA  61                 	db	97
   178   0018EB  01                 	db	1
   179                           
   180                           	psect	smallconst
   181   001000                     __psmallconst:
   182                           	callstack 0
   183   001000  00                 	db	0
   184   001001                     _btn_values:
   185                           	callstack 0
   186   001001  37                 	db	55
   187   001002  38                 	db	56
   188   001003  39                 	db	57
   189   001004  2F                 	db	47
   190   001005  34                 	db	52
   191   001006  35                 	db	53
   192   001007  36                 	db	54
   193   001008  37                 	db	55
   194   001009  31                 	db	49
   195   00100A  32                 	db	50
   196   00100B  33                 	db	51
   197   00100C  34                 	db	52
   198   00100D  23                 	db	35
   199   00100E  30                 	db	48
   200   00100F  3D                 	db	61
   201   001010  2B                 	db	43
   202   001011                     __end_of_btn_values:
   203                           	callstack 0
   204   000000                     _INTCON2bits	set	4081
   205   001011                     STR_1:
   206   001011  25                 	db	37
   207   001012  69                 	db	105	;'i'
   208   001013  00                 	db	0
   209   001014  00                 	db	0	; dummy byte at the end
   210   000000                     
   211                           	psect	nvCOMRAM
   212   00004C                     __pnvCOMRAM:
   213                           	callstack 0
   214   00004C                     _ret:
   215                           	callstack 0
   216   00004C                     	ds	1
   217   000000                     _PORTBbits	set	3969
   218   000000                     _PORTA	set	3968
   219   000000                     _LATA	set	3977
   220   000000                     _TRISA	set	3986
   221   000000                     _INTCON3bits	set	4080
   222   000000                     _INTCONbits	set	4082
   223   000000                     _TRISE	set	3990
   224   000000                     _TRISD	set	3989
   225   000000                     _TRISC	set	3988
   226   000000                     _TRISB	set	3987
   227   000000                     _LATE	set	3981
   228   000000                     _LATD	set	3980
   229   000000                     _LATC	set	3979
   230   000000                     _LATB	set	3978
   231   000000                     _PORTE	set	3972
   232   000000                     _PORTD	set	3971
   233   000000                     _PORTC	set	3970
   234   000000                     _PORTB	set	3969
   235                           
   236                           ; #config settings
   237                           
   238                           	psect	cinit
   239   001874                     __pcinit:
   240                           	callstack 0
   241   001874                     start_initialization:
   242                           	callstack 0
   243   001874                     __initialization:
   244                           	callstack 0
   245                           
   246                           ; Initialize objects allocated to BANK0 (34 bytes)
   247                           ; load TBLPTR registers with __pidataBANK0
   248   001874  0ECA               	movlw	low __pidataBANK0
   249   001876  6EF6               	movwf	tblptrl,c
   250   001878  0E18               	movlw	high __pidataBANK0
   251   00187A  6EF7               	movwf	tblptrh,c
   252   00187C  0E00               	movlw	low (__pidataBANK0 shr (0+16))
   253   00187E  6EF8               	movwf	tblptru,c
   254   001880  EE00  F060         	lfsr	0,__pdataBANK0
   255   001884  EE10 F022          	lfsr	1,34
   256   001888                     copy_data0:
   257   001888  0009               	tblrd		*+
   258   00188A  CFF5 FFEE          	movff	tablat,postinc0
   259   00188E  50E5               	movf	postdec1,w,c
   260   001890  50E1               	movf	fsr1l,w,c
   261   001892  E1FA               	bnz	copy_data0
   262                           
   263                           ; Initialize objects allocated to COMRAM (28 bytes)
   264                           ; load TBLPTR registers with __pidataCOMRAM
   265   001894  0EEC               	movlw	low __pidataCOMRAM
   266   001896  6EF6               	movwf	tblptrl,c
   267   001898  0E18               	movlw	high __pidataCOMRAM
   268   00189A  6EF7               	movwf	tblptrh,c
   269   00189C  0E00               	movlw	low (__pidataCOMRAM shr (0+16))
   270   00189E  6EF8               	movwf	tblptru,c
   271   0018A0  EE00  F01E         	lfsr	0,__pdataCOMRAM
   272   0018A4  EE10 F01C          	lfsr	1,28
   273   0018A8                     copy_data1:
   274   0018A8  0009               	tblrd		*+
   275   0018AA  CFF5 FFEE          	movff	tablat,postinc0
   276   0018AE  50E5               	movf	postdec1,w,c
   277   0018B0  50E1               	movf	fsr1l,w,c
   278   0018B2  E1FA               	bnz	copy_data1
   279                           
   280                           ; Clear objects allocated to COMRAM (29 bytes)
   281   0018B4  EE00  F001         	lfsr	0,__pbssCOMRAM
   282   0018B8  0E1D               	movlw	29
   283   0018BA                     clear_0:
   284   0018BA  6AEE               	clrf	postinc0,c
   285   0018BC  06E8               	decf	wreg,f,c
   286   0018BE  E1FD               	bnz	clear_0
   287   0018C0                     end_of_initialization:
   288                           	callstack 0
   289   0018C0                     __end_of__initialization:
   290                           	callstack 0
   291   0018C0  904D               	bcf	int$flags,0,c	;clear compiler interrupt flag (level 1)
   292   0018C2  924D               	bcf	int$flags,1,c	;clear compiler interrupt flag (level 2)
   293   0018C4  0100               	movlb	0
   294   0018C6  EFD4  F00B         	goto	_main	;jump to C main() function
   295                           
   296                           	psect	bssCOMRAM
   297   000001                     __pbssCOMRAM:
   298                           	callstack 0
   299   000001                     _RB7_InterruptHandler_LOW:
   300                           	callstack 0
   301   000001                     	ds	2
   302   000003                     _RB7_InterruptHandler_HIGH:
   303                           	callstack 0
   304   000003                     	ds	2
   305   000005                     _RB6_InterruptHandler_LOW:
   306                           	callstack 0
   307   000005                     	ds	2
   308   000007                     _RB6_InterruptHandler_HIGH:
   309                           	callstack 0
   310   000007                     	ds	2
   311   000009                     _RB5_InterruptHandler_LOW:
   312                           	callstack 0
   313   000009                     	ds	2
   314   00000B                     _RB5_InterruptHandler_HIGH:
   315                           	callstack 0
   316   00000B                     	ds	2
   317   00000D                     _RB4_InterruptHandler_LOW:
   318                           	callstack 0
   319   00000D                     	ds	2
   320   00000F                     _RB4_InterruptHandler_HIGH:
   321                           	callstack 0
   322   00000F                     	ds	2
   323   000011                     _INT2_InterruptHandler:
   324                           	callstack 0
   325   000011                     	ds	2
   326   000013                     _INT1_InterruptHandler:
   327                           	callstack 0
   328   000013                     	ds	2
   329   000015                     _INT0_InterruptHandler:
   330                           	callstack 0
   331   000015                     	ds	2
   332   000017                     relay_turn_off@F3314:
   333                           	callstack 0
   334   000017                     	ds	1
   335   000018                     relay_turn_on@F3309:
   336                           	callstack 0
   337   000018                     	ds	1
   338   000019                     relay_initialize@F3304:
   339                           	callstack 0
   340   000019                     	ds	1
   341   00001A                     led_turn_toggle@F3325:
   342                           	callstack 0
   343   00001A                     	ds	1
   344   00001B                     led_turn_off@F3320:
   345                           	callstack 0
   346   00001B                     	ds	1
   347   00001C                     led_turn_on@F3315:
   348                           	callstack 0
   349   00001C                     	ds	1
   350   00001D                     led_initialize@F3310:
   351                           	callstack 0
   352   00001D                     	ds	1
   353                           
   354                           	psect	dataCOMRAM
   355   00001E                     __pdataCOMRAM:
   356                           	callstack 0
   357   00001E                     _lat_registers:
   358                           	callstack 0
   359   00001E                     	ds	10
   360   000028                     _tris_registers:
   361                           	callstack 0
   362   000028                     	ds	10
   363   000032                     _RB7_Flag:
   364                           	callstack 0
   365   000032                     	ds	1
   366   000033                     _RB6_Flag:
   367                           	callstack 0
   368   000033                     	ds	1
   369   000034                     _RB5_Flag:
   370                           	callstack 0
   371   000034                     	ds	1
   372   000035                     _RB4_Flag:
   373                           	callstack 0
   374   000035                     	ds	1
   375   000036                     _led_4:
   376                           	callstack 0
   377   000036                     	ds	1
   378   000037                     _led_3:
   379                           	callstack 0
   380   000037                     	ds	1
   381   000038                     _led_2:
   382                           	callstack 0
   383   000038                     	ds	1
   384   000039                     _led_1:
   385                           	callstack 0
   386   000039                     	ds	1
   387                           
   388                           	psect	dataBANK0
   389   000060                     __pdataBANK0:
   390                           	callstack 0
   391   000060                     _port_registers:
   392                           	callstack 0
   393   000060                     	ds	10
   394   00006A                     _RB7_obj:
   395                           	callstack 0
   396   00006A                     	ds	6
   397   000070                     _RB6_obj:
   398                           	callstack 0
   399   000070                     	ds	6
   400   000076                     _RB5_obj:
   401                           	callstack 0
   402   000076                     	ds	6
   403   00007C                     _RB4_obj:
   404                           	callstack 0
   405   00007C                     	ds	6
   406                           
   407                           	psect	cstackBANK0
   408   000082                     __pcstackBANK0:
   409                           	callstack 0
   410   000082                     gpio_pin_direction_intialize@_pin_config:
   411                           	callstack 0
   412   000082                     gpio_pin_write_logic@_pin_config:
   413                           	callstack 0
   414                           
   415                           ; 1 bytes @ 0x0
   416   000082                     	ds	1
   417   000083                     ??_gpio_pin_direction_intialize:
   418   000083                     gpio_pin_write_logic@logic:
   419                           	callstack 0
   420                           
   421                           ; 1 bytes @ 0x1
   422   000083                     	ds	1
   423   000084                     ??_gpio_pin_write_logic:
   424                           
   425                           ; 1 bytes @ 0x2
   426   000084                     	ds	4
   427   000088                     gpio_pin_direction_intialize@ret:
   428                           	callstack 0
   429                           
   430                           ; 1 bytes @ 0x6
   431   000088                     	ds	1
   432   000089                     gpio_pin_write_logic@ret:
   433                           	callstack 0
   434   000089                     Interrupt_RBx_Init@int_obj:
   435                           	callstack 0
   436                           
   437                           ; 1 bytes @ 0x7
   438   000089                     	ds	1
   439   00008A                     gpio_pin_intialize@_pin_config:
   440                           	callstack 0
   441   00008A                     Interrupt_RBx_Init@ret:
   442                           	callstack 0
   443                           
   444                           ; 1 bytes @ 0x8
   445   00008A                     	ds	1
   446   00008B                     ??_gpio_pin_intialize:
   447                           
   448                           ; 1 bytes @ 0x9
   449   00008B                     	ds	1
   450   00008C                     gpio_pin_intialize@ret:
   451                           	callstack 0
   452                           
   453                           ; 1 bytes @ 0xA
   454   00008C                     	ds	1
   455   00008D                     led_initialize@led:
   456                           	callstack 0
   457                           
   458                           ; 1 bytes @ 0xB
   459   00008D                     	ds	1
   460   00008E                     ??_led_initialize:
   461                           
   462                           ; 1 bytes @ 0xC
   463   00008E                     	ds	1
   464   00008F                     led_initialize@ret:
   465                           	callstack 0
   466                           
   467                           ; 1 bytes @ 0xD
   468   00008F                     	ds	1
   469   000090                     led_initialize@pin_obj:
   470                           	callstack 0
   471                           
   472                           ; 1 bytes @ 0xE
   473   000090                     	ds	1
   474                           
   475                           	psect	cstackCOMRAM
   476   00003A                     __pcstackCOMRAM:
   477                           	callstack 0
   478   00003A                     i2gpio_pin_write_logic@_pin_config:
   479                           	callstack 0
   480                           
   481                           ; 1 bytes @ 0x0
   482   00003A                     	ds	1
   483   00003B                     i2gpio_pin_write_logic@logic:
   484                           	callstack 0
   485                           
   486                           ; 1 bytes @ 0x1
   487   00003B                     	ds	1
   488   00003C                     ??i2_gpio_pin_write_logic:
   489                           
   490                           ; 1 bytes @ 0x2
   491   00003C                     	ds	5
   492   000041                     led_turn_on@led:
   493                           	callstack 0
   494   000041                     led_turn_off@led:
   495                           	callstack 0
   496                           
   497                           ; 1 bytes @ 0x7
   498   000041                     	ds	1
   499   000042                     ??_led_turn_on:
   500   000042                     ??_led_turn_off:
   501                           
   502                           ; 1 bytes @ 0x8
   503   000042                     	ds	1
   504   000043                     led_turn_on@ret:
   505                           	callstack 0
   506   000043                     led_turn_off@ret:
   507                           	callstack 0
   508                           
   509                           ; 1 bytes @ 0x9
   510   000043                     	ds	1
   511   000044                     led_turn_on@pin_obj:
   512                           	callstack 0
   513   000044                     led_turn_off@pin_obj:
   514                           	callstack 0
   515                           
   516                           ; 1 bytes @ 0xA
   517   000044                     	ds	1
   518   000045                     RB4_ISR@RB4_source:
   519                           	callstack 0
   520   000045                     RB5_ISR@RB5_source:
   521                           	callstack 0
   522   000045                     RB6_ISR@RB6_source:
   523                           	callstack 0
   524   000045                     RB7_ISR@RB7_source:
   525                           	callstack 0
   526                           
   527                           ; 1 bytes @ 0xB
   528   000045                     	ds	1
   529   000046                     ??_InterruptManager:
   530                           
   531                           ; 1 bytes @ 0xC
   532   000046                     	ds	6
   533   00004C                     
   534                           ; 1 bytes @ 0x12
   535 ;;
   536 ;;Main: autosize = 0, tempsize = 0, incstack = 0, save=0
   537 ;;
   538 ;; *************** function _main *****************
   539 ;; Defined at:
   540 ;;		line 86 in file "application.c"
   541 ;; Parameters:    Size  Location     Type
   542 ;;		None
   543 ;; Auto vars:     Size  Location     Type
   544 ;;		None
   545 ;; Return value:  Size  Location     Type
   546 ;;                  2  767[None  ] int 
   547 ;; Registers used:
   548 ;;		wreg, fsr2l, fsr2h, status,2, status,0, prodl, prodh, cstack
   549 ;; Tracked objects:
   550 ;;		On entry : 0/0
   551 ;;		On exit  : 0/0
   552 ;;		Unchanged: 0/0
   553 ;; Data sizes:     COMRAM   BANK0   BANK1   BANK2   BANK3   BANK4   BANK5   BANK6   BANK7   BANK8   BANK9  BANK10  BANK1
      +1  BANK12  BANK13  BANK14  BANK15
   554 ;;      Params:         0       0       0       0       0       0       0       0       0       0       0       0       
      +0       0       0       0       0
   555 ;;      Locals:         0       0       0       0       0       0       0       0       0       0       0       0       
      +0       0       0       0       0
   556 ;;      Temps:          0       0       0       0       0       0       0       0       0       0       0       0       
      +0       0       0       0       0
   557 ;;      Totals:         0       0       0       0       0       0       0       0       0       0       0       0       
      +0       0       0       0       0
   558 ;;Total ram usage:        0 bytes
   559 ;; Hardware stack levels required when called: 8
   560 ;; This function calls:
   561 ;;		_Interrupt_RBx_Init
   562 ;;		_led_initialize
   563 ;; This function is called by:
   564 ;;		Startup code after reset
   565 ;; This function uses a non-reentrant model
   566 ;;
   567                           
   568                           	psect	text0
   569   0017A8                     __ptext0:
   570                           	callstack 0
   571   0017A8                     _main:
   572                           	callstack 23
   573   0017A8                     
   574                           ;application.c: 89:     ret = led_initialize(&led_1);
   575   0017A8  0E39               	movlw	low _led_1
   576   0017AA  0100               	movlb	0	; () banked
   577   0017AC  6F8D               	movwf	led_initialize@led& (0+255),b
   578   0017AE  EC25  F00B         	call	_led_initialize	;wreg free
   579   0017B2  6E4C               	movwf	_ret^0,c
   580                           
   581                           ;application.c: 90:     ret = led_initialize(&led_2);
   582   0017B4  0E38               	movlw	low _led_2
   583   0017B6  0100               	movlb	0	; () banked
   584   0017B8  6F8D               	movwf	led_initialize@led& (0+255),b
   585   0017BA  EC25  F00B         	call	_led_initialize	;wreg free
   586   0017BE  6E4C               	movwf	_ret^0,c
   587                           
   588                           ;application.c: 91:     ret = led_initialize(&led_3);
   589   0017C0  0E37               	movlw	low _led_3
   590   0017C2  0100               	movlb	0	; () banked
   591   0017C4  6F8D               	movwf	led_initialize@led& (0+255),b
   592   0017C6  EC25  F00B         	call	_led_initialize	;wreg free
   593   0017CA  6E4C               	movwf	_ret^0,c
   594                           
   595                           ;application.c: 92:     ret = led_initialize(&led_4);
   596   0017CC  0E36               	movlw	low _led_4
   597   0017CE  0100               	movlb	0	; () banked
   598   0017D0  6F8D               	movwf	led_initialize@led& (0+255),b
   599   0017D2  EC25  F00B         	call	_led_initialize	;wreg free
   600   0017D6  6E4C               	movwf	_ret^0,c
   601                           
   602                           ;application.c: 94:     ret = Interrupt_RBx_Init(&RB4_obj);
   603   0017D8  0E7C               	movlw	low _RB4_obj
   604   0017DA  0100               	movlb	0	; () banked
   605   0017DC  6F89               	movwf	Interrupt_RBx_Init@int_obj& (0+255),b
   606   0017DE  EC22  F009         	call	_Interrupt_RBx_Init	;wreg free
   607   0017E2  6E4C               	movwf	_ret^0,c
   608                           
   609                           ;application.c: 95:     ret = Interrupt_RBx_Init(&RB5_obj);
   610   0017E4  0E76               	movlw	low _RB5_obj
   611   0017E6  0100               	movlb	0	; () banked
   612   0017E8  6F89               	movwf	Interrupt_RBx_Init@int_obj& (0+255),b
   613   0017EA  EC22  F009         	call	_Interrupt_RBx_Init	;wreg free
   614   0017EE  6E4C               	movwf	_ret^0,c
   615                           
   616                           ;application.c: 96:     ret = Interrupt_RBx_Init(&RB6_obj);
   617   0017F0  0E70               	movlw	low _RB6_obj
   618   0017F2  0100               	movlb	0	; () banked
   619   0017F4  6F89               	movwf	Interrupt_RBx_Init@int_obj& (0+255),b
   620   0017F6  EC22  F009         	call	_Interrupt_RBx_Init	;wreg free
   621   0017FA  6E4C               	movwf	_ret^0,c
   622                           
   623                           ;application.c: 97:     ret = Interrupt_RBx_Init(&RB7_obj);
   624   0017FC  0E6A               	movlw	low _RB7_obj
   625   0017FE  0100               	movlb	0	; () banked
   626   001800  6F89               	movwf	Interrupt_RBx_Init@int_obj& (0+255),b
   627   001802  EC22  F009         	call	_Interrupt_RBx_Init	;wreg free
   628   001806  6E4C               	movwf	_ret^0,c
   629   001808                     l768:
   630   001808  EF04  F00C         	goto	l768
   631   00180C  EF5F  F001         	goto	start
   632   001810                     __end_of_main:
   633                           	callstack 0
   634                           
   635 ;; *************** function _led_initialize *****************
   636 ;; Defined at:
   637 ;;		line 17 in file "ECU_Layer/LED/ecu_led.c"
   638 ;; Parameters:    Size  Location     Type
   639 ;;  led             1   11[BANK0 ] PTR const struct .
   640 ;;		 -> led_4(1), led_3(1), led_2(1), led_1(1), 
   641 ;; Auto vars:     Size  Location     Type
   642 ;;  pin_obj         1   14[BANK0 ] struct .
   643 ;;  ret             1   13[BANK0 ] unsigned char 
   644 ;; Return value:  Size  Location     Type
   645 ;;                  1    wreg      unsigned char 
   646 ;; Registers used:
   647 ;;		wreg, fsr2l, fsr2h, status,2, status,0, prodl, prodh, cstack
   648 ;; Tracked objects:
   649 ;;		On entry : 0/0
   650 ;;		On exit  : 0/0
   651 ;;		Unchanged: 0/0
   652 ;; Data sizes:     COMRAM   BANK0   BANK1   BANK2   BANK3   BANK4   BANK5   BANK6   BANK7   BANK8   BANK9  BANK10  BANK1
      +1  BANK12  BANK13  BANK14  BANK15
   653 ;;      Params:         0       1       0       0       0       0       0       0       0       0       0       0       
      +0       0       0       0       0
   654 ;;      Locals:         0       2       0       0       0       0       0       0       0       0       0       0       
      +0       0       0       0       0
   655 ;;      Temps:          0       1       0       0       0       0       0       0       0       0       0       0       
      +0       0       0       0       0
   656 ;;      Totals:         0       4       0       0       0       0       0       0       0       0       0       0       
      +0       0       0       0       0
   657 ;;Total ram usage:        4 bytes
   658 ;; Hardware stack levels used: 1
   659 ;; Hardware stack levels required when called: 7
   660 ;; This function calls:
   661 ;;		_gpio_pin_intialize
   662 ;; This function is called by:
   663 ;;		_main
   664 ;; This function uses a non-reentrant model
   665 ;;
   666                           
   667                           	psect	text1
   668   00164A                     __ptext1:
   669                           	callstack 0
   670   00164A                     _led_initialize:
   671                           	callstack 23
   672   00164A                     
   673                           ;ECU_Layer/LED/ecu_led.c: 18:     Std_ReturnType ret = (Std_ReturnType)0x01;
   674   00164A  0E01               	movlw	1
   675   00164C  0100               	movlb	0	; () banked
   676   00164E  6F8F               	movwf	led_initialize@ret& (0+255),b
   677                           
   678                           ;ECU_Layer/LED/ecu_led.c: 20:     if (led == ((void*)0))
   679   001650  518D               	movf	led_initialize@led& (0+255),w,b
   680   001652  A4D8               	btfss	status,2,c
   681   001654  EF2E  F00B         	goto	u3761
   682   001658  EF30  F00B         	goto	u3760
   683   00165C                     u3761:
   684   00165C  EF34  F00B         	goto	l286
   685   001660                     u3760:
   686   001660                     
   687                           ; BSR set to: 0
   688                           ;ECU_Layer/LED/ecu_led.c: 21:     {;ECU_Layer/LED/ecu_led.c: 22:         ret = (Std_Retu
      +                          rnType)0x00;
   689   001660  0E00               	movlw	0
   690   001662  6F8F               	movwf	led_initialize@ret& (0+255),b
   691                           
   692                           ;ECU_Layer/LED/ecu_led.c: 23:     }
   693   001664  EF5D  F00B         	goto	l4035
   694   001668                     l286:
   695                           
   696                           ; BSR set to: 0
   697                           ;ECU_Layer/LED/ecu_led.c: 25:     {;ECU_Layer/LED/ecu_led.c: 26:         pin_config_t pi
      +                          n_obj = {
   698   001668  C01D  F090         	movff	led_initialize@F3310,led_initialize@pin_obj
   699   00166C                     
   700                           ; BSR set to: 0
   701   00166C  518D               	movf	led_initialize@led& (0+255),w,b
   702   00166E  6ED9               	movwf	fsr2l,c
   703   001670  6ADA               	clrf	fsr2h,c
   704   001672  50DF               	movf	223,w,c
   705   001674  0B0F               	andlw	15
   706   001676  6F8E               	movwf	??_led_initialize& (0+255),b
   707   001678  5190               	movf	led_initialize@pin_obj& (0+255),w,b
   708   00167A  198E               	xorwf	??_led_initialize& (0+255),w,b
   709   00167C  0BF8               	andlw	-8
   710   00167E  198E               	xorwf	??_led_initialize& (0+255),w,b
   711   001680  6F90               	movwf	led_initialize@pin_obj& (0+255),b
   712   001682  518D               	movf	led_initialize@led& (0+255),w,b
   713   001684  6ED9               	movwf	fsr2l,c
   714   001686  6ADA               	clrf	fsr2h,c
   715   001688  38DF               	swapf	223,w,c
   716   00168A  0B07               	andlw	7
   717   00168C  6F8E               	movwf	??_led_initialize& (0+255),b
   718   00168E  478E               	rlncf	??_led_initialize& (0+255),f,b
   719   001690  478E               	rlncf	??_led_initialize& (0+255),f,b
   720   001692  478E               	rlncf	??_led_initialize& (0+255),f,b
   721   001694  5190               	movf	led_initialize@pin_obj& (0+255),w,b
   722   001696  198E               	xorwf	??_led_initialize& (0+255),w,b
   723   001698  0BC7               	andlw	-57
   724   00169A  198E               	xorwf	??_led_initialize& (0+255),w,b
   725   00169C  6F90               	movwf	led_initialize@pin_obj& (0+255),b
   726   00169E                     
   727                           ; BSR set to: 0
   728   00169E  9D90               	bcf	led_initialize@pin_obj& (0+255),6,b
   729   0016A0                     
   730                           ; BSR set to: 0
   731   0016A0  518D               	movf	led_initialize@led& (0+255),w,b
   732   0016A2  6ED9               	movwf	fsr2l,c
   733   0016A4  6ADA               	clrf	fsr2h,c
   734   0016A6  AEDF               	btfss	indf2,7,c
   735   0016A8  D002               	bra	u3775
   736   0016AA  8F90               	bsf	led_initialize@pin_obj& (0+255),7,b
   737   0016AC  D002               	bra	u3777
   738   0016AE                     u3775:
   739   0016AE  0100               	movlb	0	; () banked
   740   0016B0  9F90               	bcf	led_initialize@pin_obj& (0+255),7,b
   741   0016B2                     u3777:
   742   0016B2                     
   743                           ; BSR set to: 0
   744                           ;ECU_Layer/LED/ecu_led.c: 32:         gpio_pin_intialize(&pin_obj);
   745   0016B2  0E90               	movlw	low led_initialize@pin_obj
   746   0016B4  6F8A               	movwf	gpio_pin_intialize@_pin_config& (0+255),b
   747   0016B6  EC08  F00C         	call	_gpio_pin_intialize	;wreg free
   748   0016BA                     l4035:
   749                           
   750                           ;ECU_Layer/LED/ecu_led.c: 34:     return ret;
   751   0016BA  0100               	movlb	0	; () banked
   752   0016BC  518F               	movf	led_initialize@ret& (0+255),w,b
   753   0016BE                     
   754                           ; BSR set to: 0
   755   0016BE  0012               	return		;funcret
   756   0016C0                     __end_of_led_initialize:
   757                           	callstack 0
   758                           
   759 ;; *************** function _gpio_pin_intialize *****************
   760 ;; Defined at:
   761 ;;		line 167 in file "MCAL_Layer/GPIO/hal_gpio.c"
   762 ;; Parameters:    Size  Location     Type
   763 ;;  _pin_config     1    8[BANK0 ] PTR const struct .
   764 ;;		 -> relay_initialize@pin_obj(1), led_initialize@pin_obj(1), 
   765 ;; Auto vars:     Size  Location     Type
   766 ;;  ret             1   10[BANK0 ] unsigned char 
   767 ;; Return value:  Size  Location     Type
   768 ;;                  1    wreg      unsigned char 
   769 ;; Registers used:
   770 ;;		wreg, fsr2l, fsr2h, status,2, status,0, prodl, prodh, cstack
   771 ;; Tracked objects:
   772 ;;		On entry : 0/0
   773 ;;		On exit  : 0/0
   774 ;;		Unchanged: 0/0
   775 ;; Data sizes:     COMRAM   BANK0   BANK1   BANK2   BANK3   BANK4   BANK5   BANK6   BANK7   BANK8   BANK9  BANK10  BANK1
      +1  BANK12  BANK13  BANK14  BANK15
   776 ;;      Params:         0       1       0       0       0       0       0       0       0       0       0       0       
      +0       0       0       0       0
   777 ;;      Locals:         0       1       0       0       0       0       0       0       0       0       0       0       
      +0       0       0       0       0
   778 ;;      Temps:          0       1       0       0       0       0       0       0       0       0       0       0       
      +0       0       0       0       0
   779 ;;      Totals:         0       3       0       0       0       0       0       0       0       0       0       0       
      +0       0       0       0       0
   780 ;;Total ram usage:        3 bytes
   781 ;; Hardware stack levels used: 1
   782 ;; Hardware stack levels required when called: 6
   783 ;; This function calls:
   784 ;;		_gpio_pin_direction_intialize
   785 ;;		_gpio_pin_write_logic
   786 ;; This function is called by:
   787 ;;		_led_initialize
   788 ;;		_seven_segment_intialize
   789 ;;		_lcd_4bit_initialize
   790 ;;		_lcd_8bit_initialize
   791 ;;		_dc_motor_initialize
   792 ;;		_keypad_initialize
   793 ;;		_relay_initialize
   794 ;; This function uses a non-reentrant model
   795 ;;
   796                           
   797                           	psect	text2
   798   001810                     __ptext2:
   799                           	callstack 0
   800   001810                     _gpio_pin_intialize:
   801                           	callstack 23
   802   001810                     
   803                           ;MCAL_Layer/GPIO/hal_gpio.c: 169:     if (((void*)0) == _pin_config || _pin_config->pin 
      +                          > 8 -1)
   804   001810  0100               	movlb	0	; () banked
   805   001812  518A               	movf	gpio_pin_intialize@_pin_config& (0+255),w,b
   806   001814  B4D8               	btfsc	status,2,c
   807   001816  EF0F  F00C         	goto	u3611
   808   00181A  EF11  F00C         	goto	u3610
   809   00181E                     u3611:
   810   00181E  EF21  F00C         	goto	l3857
   811   001822                     u3610:
   812   001822                     
   813                           ; BSR set to: 0
   814   001822  518A               	movf	gpio_pin_intialize@_pin_config& (0+255),w,b
   815   001824  6ED9               	movwf	fsr2l,c
   816   001826  6ADA               	clrf	fsr2h,c
   817   001828  30DF               	rrcf	223,w,c
   818   00182A  32E8               	rrcf	wreg,f,c
   819   00182C  32E8               	rrcf	wreg,f,c
   820   00182E  0B07               	andlw	7
   821   001830  6F8B               	movwf	??_gpio_pin_intialize& (0+255),b
   822   001832  0E07               	movlw	7
   823   001834  658B               	cpfsgt	??_gpio_pin_intialize& (0+255),b
   824   001836  EF1F  F00C         	goto	u3621
   825   00183A  EF21  F00C         	goto	u3620
   826   00183E                     u3621:
   827   00183E  EF25  F00C         	goto	l3859
   828   001842                     u3620:
   829   001842                     l3857:
   830                           
   831                           ; BSR set to: 0
   832                           ;MCAL_Layer/GPIO/hal_gpio.c: 170:     {;MCAL_Layer/GPIO/hal_gpio.c: 171:         ret = (
      +                          Std_ReturnType)0x00;
   833   001842  0E00               	movlw	0
   834   001844  6F8C               	movwf	gpio_pin_intialize@ret& (0+255),b
   835                           
   836                           ;MCAL_Layer/GPIO/hal_gpio.c: 172:     }
   837   001846  EF38  F00C         	goto	l3861
   838   00184A                     l3859:
   839                           
   840                           ; BSR set to: 0
   841                           ;MCAL_Layer/GPIO/hal_gpio.c: 174:     {;MCAL_Layer/GPIO/hal_gpio.c: 175:         ret = g
      +                          pio_pin_direction_intialize(_pin_config);
   842   00184A  C08A  F082         	movff	gpio_pin_intialize@_pin_config,gpio_pin_direction_intialize@_pin_config
   843   00184E  EC0B  F008         	call	_gpio_pin_direction_intialize	;wreg free
   844   001852  0100               	movlb	0	; () banked
   845   001854  6F8C               	movwf	gpio_pin_intialize@ret& (0+255),b
   846                           
   847                           ;MCAL_Layer/GPIO/hal_gpio.c: 176:         ret = gpio_pin_write_logic(_pin_config , _pin_
      +                          config->logic);
   848   001856  C08A  F082         	movff	gpio_pin_intialize@_pin_config,gpio_pin_write_logic@_pin_config
   849   00185A  518A               	movf	gpio_pin_intialize@_pin_config& (0+255),w,b
   850   00185C  6ED9               	movwf	fsr2l,c
   851   00185E  6ADA               	clrf	fsr2h,c
   852   001860  0E00               	movlw	0
   853   001862  BEDF               	btfsc	indf2,7,c
   854   001864  0E01               	movlw	1
   855   001866  6F83               	movwf	gpio_pin_write_logic@logic& (0+255),b
   856   001868  EC97  F008         	call	_gpio_pin_write_logic	;wreg free
   857   00186C  0100               	movlb	0	; () banked
   858   00186E  6F8C               	movwf	gpio_pin_intialize@ret& (0+255),b
   859   001870                     l3861:
   860                           
   861                           ; BSR set to: 0
   862                           ;MCAL_Layer/GPIO/hal_gpio.c: 179:     return ret;
   863   001870  518C               	movf	gpio_pin_intialize@ret& (0+255),w,b
   864   001872                     
   865                           ; BSR set to: 0
   866   001872  0012               	return		;funcret
   867   001874                     __end_of_gpio_pin_intialize:
   868                           	callstack 0
   869                           
   870 ;; *************** function _gpio_pin_write_logic *****************
   871 ;; Defined at:
   872 ;;		line 84 in file "MCAL_Layer/GPIO/hal_gpio.c"
   873 ;; Parameters:    Size  Location     Type
   874 ;;  _pin_config     1    0[BANK0 ] PTR const struct .
   875 ;;		 -> relay_turn_off@pin_obj(1), relay_turn_on@pin_obj(1), relay_initialize@pin_obj(1), led_turn_off@pin_obj(1), 
   876 ;;		 -> led_turn_on@pin_obj(1), led_initialize@pin_obj(1), 
   877 ;;  logic           1    1[BANK0 ] enum E3230
   878 ;; Auto vars:     Size  Location     Type
   879 ;;  ret             1    7[BANK0 ] unsigned char 
   880 ;; Return value:  Size  Location     Type
   881 ;;                  1    wreg      unsigned char 
   882 ;; Registers used:
   883 ;;		wreg, fsr2l, fsr2h, status,2, status,0, prodl, prodh
   884 ;; Tracked objects:
   885 ;;		On entry : 0/0
   886 ;;		On exit  : 0/0
   887 ;;		Unchanged: 0/0
   888 ;; Data sizes:     COMRAM   BANK0   BANK1   BANK2   BANK3   BANK4   BANK5   BANK6   BANK7   BANK8   BANK9  BANK10  BANK1
      +1  BANK12  BANK13  BANK14  BANK15
   889 ;;      Params:         0       2       0       0       0       0       0       0       0       0       0       0       
      +0       0       0       0       0
   890 ;;      Locals:         0       1       0       0       0       0       0       0       0       0       0       0       
      +0       0       0       0       0
   891 ;;      Temps:          0       5       0       0       0       0       0       0       0       0       0       0       
      +0       0       0       0       0
   892 ;;      Totals:         0       8       0       0       0       0       0       0       0       0       0       0       
      +0       0       0       0       0
   893 ;;Total ram usage:        8 bytes
   894 ;; Hardware stack levels used: 1
   895 ;; Hardware stack levels required when called: 5
   896 ;; This function calls:
   897 ;;		Nothing
   898 ;; This function is called by:
   899 ;;		_gpio_pin_intialize
   900 ;;		_seven_segment_write_number
   901 ;;		_lcd_4bit_send_command
   902 ;;		_lcd_4bit_send_char_data
   903 ;;		_lcd_8bit_send_command
   904 ;;		_lcd_8bit_send_char_data
   905 ;;		_lcd_send_4bits
   906 ;;		_lcd_send_4bits_enable_signal
   907 ;;		_lcd_send_8bits_enable_signal
   908 ;;		_dc_motor_move_right
   909 ;;		_dc_motor_move_left
   910 ;;		_dc_motor_stop
   911 ;;		_keypad_get_value
   912 ;;		_relay_turn_on
   913 ;;		_relay_turn_off
   914 ;; This function uses a non-reentrant model
   915 ;;
   916                           
   917                           	psect	text3
   918   00112E                     __ptext3:
   919                           	callstack 0
   920   00112E                     _gpio_pin_write_logic:
   921                           	callstack 23
   922   00112E                     
   923                           ;MCAL_Layer/GPIO/hal_gpio.c: 85:     Std_ReturnType ret = (Std_ReturnType)0x01;
   924   00112E  0E01               	movlw	1
   925   001130  0100               	movlb	0	; () banked
   926   001132  6F89               	movwf	gpio_pin_write_logic@ret& (0+255),b
   927                           
   928                           ;MCAL_Layer/GPIO/hal_gpio.c: 86:     if (((void*)0) == _pin_config || _pin_config->pin >
      +                           8 -1)
   929   001134  5182               	movf	gpio_pin_write_logic@_pin_config& (0+255),w,b
   930   001136  B4D8               	btfsc	status,2,c
   931   001138  EFA0  F008         	goto	u3481
   932   00113C  EFA2  F008         	goto	u3480
   933   001140                     u3481:
   934   001140  EFB2  F008         	goto	l3785
   935   001144                     u3480:
   936   001144                     
   937                           ; BSR set to: 0
   938   001144  5182               	movf	gpio_pin_write_logic@_pin_config& (0+255),w,b
   939   001146  6ED9               	movwf	fsr2l,c
   940   001148  6ADA               	clrf	fsr2h,c
   941   00114A  30DF               	rrcf	223,w,c
   942   00114C  32E8               	rrcf	wreg,f,c
   943   00114E  32E8               	rrcf	wreg,f,c
   944   001150  0B07               	andlw	7
   945   001152  6F84               	movwf	??_gpio_pin_write_logic& (0+255),b
   946   001154  0E07               	movlw	7
   947   001156  6584               	cpfsgt	??_gpio_pin_write_logic& (0+255),b
   948   001158  EFB0  F008         	goto	u3491
   949   00115C  EFB2  F008         	goto	u3490
   950   001160                     u3491:
   951   001160  EF0B  F009         	goto	l3793
   952   001164                     u3490:
   953   001164                     l3785:
   954                           
   955                           ; BSR set to: 0
   956                           ;MCAL_Layer/GPIO/hal_gpio.c: 87:     {;MCAL_Layer/GPIO/hal_gpio.c: 88:         ret = (St
      +                          d_ReturnType)0x00;
   957   001164  0E00               	movlw	0
   958   001166  6F89               	movwf	gpio_pin_write_logic@ret& (0+255),b
   959                           
   960                           ;MCAL_Layer/GPIO/hal_gpio.c: 89:     }
   961   001168  EF20  F009         	goto	l3795
   962   00116C                     l3787:
   963                           
   964                           ; BSR set to: 0
   965                           ;MCAL_Layer/GPIO/hal_gpio.c: 95:                 (*lat_registers[_pin_config->port] &= ~
      +                          ((uint8)1<<_pin_config->pin));
   966   00116C  5182               	movf	gpio_pin_write_logic@_pin_config& (0+255),w,b
   967   00116E  6ED9               	movwf	fsr2l,c
   968   001170  6ADA               	clrf	fsr2h,c
   969   001172  30DF               	rrcf	223,w,c
   970   001174  32E8               	rrcf	wreg,f,c
   971   001176  32E8               	rrcf	wreg,f,c
   972   001178  0B07               	andlw	7
   973   00117A  6F84               	movwf	??_gpio_pin_write_logic& (0+255),b
   974   00117C  0E01               	movlw	1
   975   00117E  6F85               	movwf	(??_gpio_pin_write_logic+1)& (0+255),b
   976   001180  2B84               	incf	??_gpio_pin_write_logic& (0+255),f,b
   977   001182  EFC5  F008         	goto	u3504
   978   001186                     u3505:
   979   001186  90D8               	bcf	status,0,c
   980   001188  3785               	rlcf	(??_gpio_pin_write_logic+1)& (0+255),f,b
   981   00118A                     u3504:
   982   00118A  2F84               	decfsz	??_gpio_pin_write_logic& (0+255),f,b
   983   00118C  EFC3  F008         	goto	u3505
   984   001190  0100               	movlb	0	; () banked
   985   001192  5185               	movf	(??_gpio_pin_write_logic+1)& (0+255),w,b
   986   001194  0AFF               	xorlw	255
   987   001196  6F86               	movwf	(??_gpio_pin_write_logic+2)& (0+255),b
   988   001198  5182               	movf	gpio_pin_write_logic@_pin_config& (0+255),w,b
   989   00119A  6ED9               	movwf	fsr2l,c
   990   00119C  6ADA               	clrf	fsr2h,c
   991   00119E  50DF               	movf	223,w,c
   992   0011A0  0B07               	andlw	7
   993   0011A2  0D02               	mullw	2
   994   0011A4  50F3               	movf	243,w,c
   995   0011A6  0F1E               	addlw	low _lat_registers
   996   0011A8  6ED9               	movwf	fsr2l,c
   997   0011AA  6ADA               	clrf	fsr2h,c
   998   0011AC  CFDE F087          	movff	postinc2,??_gpio_pin_write_logic+3
   999   0011B0  CFDD F088          	movff	postdec2,??_gpio_pin_write_logic+4
  1000   0011B4  C087  FFD9         	movff	??_gpio_pin_write_logic+3,fsr2l
  1001   0011B8  C088  FFDA         	movff	??_gpio_pin_write_logic+4,fsr2h
  1002   0011BC  5186               	movf	(??_gpio_pin_write_logic+2)& (0+255),w,b
  1003   0011BE  16DF               	andwf	indf2,f,c
  1004                           
  1005                           ;MCAL_Layer/GPIO/hal_gpio.c: 96:                 break;
  1006   0011C0  EF20  F009         	goto	l3795
  1007   0011C4                     l3789:
  1008                           
  1009                           ; BSR set to: 0
  1010                           ;MCAL_Layer/GPIO/hal_gpio.c: 98:                 (*lat_registers[_pin_config->port] |= (
      +                          (uint8)1<<_pin_config->pin));
  1011   0011C4  5182               	movf	gpio_pin_write_logic@_pin_config& (0+255),w,b
  1012   0011C6  6ED9               	movwf	fsr2l,c
  1013   0011C8  6ADA               	clrf	fsr2h,c
  1014   0011CA  30DF               	rrcf	223,w,c
  1015   0011CC  32E8               	rrcf	wreg,f,c
  1016   0011CE  32E8               	rrcf	wreg,f,c
  1017   0011D0  0B07               	andlw	7
  1018   0011D2  6F84               	movwf	??_gpio_pin_write_logic& (0+255),b
  1019   0011D4  0E01               	movlw	1
  1020   0011D6  6F85               	movwf	(??_gpio_pin_write_logic+1)& (0+255),b
  1021   0011D8  2B84               	incf	??_gpio_pin_write_logic& (0+255),f,b
  1022   0011DA  EFF1  F008         	goto	u3514
  1023   0011DE                     u3515:
  1024   0011DE  90D8               	bcf	status,0,c
  1025   0011E0  3785               	rlcf	(??_gpio_pin_write_logic+1)& (0+255),f,b
  1026   0011E2                     u3514:
  1027   0011E2  2F84               	decfsz	??_gpio_pin_write_logic& (0+255),f,b
  1028   0011E4  EFEF  F008         	goto	u3515
  1029   0011E8  0100               	movlb	0	; () banked
  1030   0011EA  5182               	movf	gpio_pin_write_logic@_pin_config& (0+255),w,b
  1031   0011EC  6ED9               	movwf	fsr2l,c
  1032   0011EE  6ADA               	clrf	fsr2h,c
  1033   0011F0  50DF               	movf	223,w,c
  1034   0011F2  0B07               	andlw	7
  1035   0011F4  0D02               	mullw	2
  1036   0011F6  50F3               	movf	243,w,c
  1037   0011F8  0F1E               	addlw	low _lat_registers
  1038   0011FA  6ED9               	movwf	fsr2l,c
  1039   0011FC  6ADA               	clrf	fsr2h,c
  1040   0011FE  CFDE F086          	movff	postinc2,??_gpio_pin_write_logic+2
  1041   001202  CFDD F087          	movff	postdec2,??_gpio_pin_write_logic+3
  1042   001206  C086  FFD9         	movff	??_gpio_pin_write_logic+2,fsr2l
  1043   00120A  C087  FFDA         	movff	??_gpio_pin_write_logic+3,fsr2h
  1044   00120E  5185               	movf	(??_gpio_pin_write_logic+1)& (0+255),w,b
  1045   001210  12DF               	iorwf	indf2,f,c
  1046                           
  1047                           ;MCAL_Layer/GPIO/hal_gpio.c: 99:                 break;
  1048   001212  EF20  F009         	goto	l3795
  1049   001216                     l3793:
  1050                           
  1051                           ; BSR set to: 0
  1052   001216  5183               	movf	gpio_pin_write_logic@logic& (0+255),w,b
  1053   001218  6F84               	movwf	??_gpio_pin_write_logic& (0+255),b
  1054   00121A  6B85               	clrf	(??_gpio_pin_write_logic+1)& (0+255),b
  1055                           
  1056                           ; Switch on 2 bytes has been partitioned into a top level switch of size 1, and 1 sub-sw
      +                          itches
  1057                           ; Switch size 1, requested type "simple"
  1058                           ; Number of cases is 1, Range of values is 0 to 0
  1059                           ; switch strategies available:
  1060                           ; Name         Instructions Cycles
  1061                           ; simple_byte            4     3 (average)
  1062                           ;	Chosen strategy is simple_byte
  1063   00121C  5185               	movf	(??_gpio_pin_write_logic+1)& (0+255),w,b
  1064   00121E  0A00               	xorlw	0	; case 0
  1065   001220  B4D8               	btfsc	status,2,c
  1066   001222  EF15  F009         	goto	l4737
  1067   001226  EFB2  F008         	goto	l3785
  1068   00122A                     l4737:
  1069                           
  1070                           ; BSR set to: 0
  1071                           ; Switch size 1, requested type "simple"
  1072                           ; Number of cases is 2, Range of values is 0 to 1
  1073                           ; switch strategies available:
  1074                           ; Name         Instructions Cycles
  1075                           ; simple_byte            7     4 (average)
  1076                           ;	Chosen strategy is simple_byte
  1077   00122A  5184               	movf	??_gpio_pin_write_logic& (0+255),w,b
  1078   00122C  0A00               	xorlw	0	; case 0
  1079   00122E  B4D8               	btfsc	status,2,c
  1080   001230  EFB6  F008         	goto	l3787
  1081   001234  0A01               	xorlw	1	; case 1
  1082   001236  B4D8               	btfsc	status,2,c
  1083   001238  EFE2  F008         	goto	l3789
  1084   00123C  EFB2  F008         	goto	l3785
  1085   001240                     l3795:
  1086                           
  1087                           ; BSR set to: 0
  1088                           ;MCAL_Layer/GPIO/hal_gpio.c: 105:     return ret;
  1089   001240  5189               	movf	gpio_pin_write_logic@ret& (0+255),w,b
  1090   001242                     
  1091                           ; BSR set to: 0
  1092   001242  0012               	return		;funcret
  1093   001244                     __end_of_gpio_pin_write_logic:
  1094                           	callstack 0
  1095                           
  1096 ;; *************** function _Interrupt_RBx_Init *****************
  1097 ;; Defined at:
  1098 ;;		line 211 in file "MCAL_Layer/interrupt/mcal_external_interrupt.c"
  1099 ;; Parameters:    Size  Location     Type
  1100 ;;  int_obj         1    7[BANK0 ] PTR const struct .
  1101 ;;		 -> RB7_obj(6), RB6_obj(6), RB5_obj(6), RB4_obj(6), 
  1102 ;; Auto vars:     Size  Location     Type
  1103 ;;  ret             1    8[BANK0 ] unsigned char 
  1104 ;; Return value:  Size  Location     Type
  1105 ;;                  1    wreg      unsigned char 
  1106 ;; Registers used:
  1107 ;;		wreg, fsr2l, fsr2h, status,2, status,0, prodl, prodh, cstack
  1108 ;; Tracked objects:
  1109 ;;		On entry : 0/0
  1110 ;;		On exit  : 0/0
  1111 ;;		Unchanged: 0/0
  1112 ;; Data sizes:     COMRAM   BANK0   BANK1   BANK2   BANK3   BANK4   BANK5   BANK6   BANK7   BANK8   BANK9  BANK10  BANK1
      +1  BANK12  BANK13  BANK14  BANK15
  1113 ;;      Params:         0       1       0       0       0       0       0       0       0       0       0       0       
      +0       0       0       0       0
  1114 ;;      Locals:         0       1       0       0       0       0       0       0       0       0       0       0       
      +0       0       0       0       0
  1115 ;;      Temps:          0       0       0       0       0       0       0       0       0       0       0       0       
      +0       0       0       0       0
  1116 ;;      Totals:         0       2       0       0       0       0       0       0       0       0       0       0       
      +0       0       0       0       0
  1117 ;;Total ram usage:        2 bytes
  1118 ;; Hardware stack levels used: 1
  1119 ;; Hardware stack levels required when called: 6
  1120 ;; This function calls:
  1121 ;;		_gpio_pin_direction_intialize
  1122 ;; This function is called by:
  1123 ;;		_main
  1124 ;; This function uses a non-reentrant model
  1125 ;;
  1126                           
  1127                           	psect	text4
  1128   001244                     __ptext4:
  1129                           	callstack 0
  1130   001244                     _Interrupt_RBx_Init:
  1131                           	callstack 24
  1132   001244                     
  1133                           ;MCAL_Layer/interrupt/mcal_external_interrupt.c: 213:     if (((void*)0) == int_obj)
  1134   001244  0100               	movlb	0	; () banked
  1135   001246  5189               	movf	Interrupt_RBx_Init@int_obj& (0+255),w,b
  1136   001248  A4D8               	btfss	status,2,c
  1137   00124A  EF29  F009         	goto	u4021
  1138   00124E  EF2B  F009         	goto	u4020
  1139   001252                     u4021:
  1140   001252  EF2F  F009         	goto	l618
  1141   001256                     u4020:
  1142   001256                     
  1143                           ; BSR set to: 0
  1144                           ;MCAL_Layer/interrupt/mcal_external_interrupt.c: 214:     {;MCAL_Layer/interrupt/mcal_ex
      +                          ternal_interrupt.c: 215:         ret = (Std_ReturnType)0x00;
  1145   001256  0E00               	movlw	0
  1146   001258  6F8A               	movwf	Interrupt_RBx_Init@ret& (0+255),b
  1147                           
  1148                           ;MCAL_Layer/interrupt/mcal_external_interrupt.c: 216:     }
  1149   00125A  EFA4  F009         	goto	l4123
  1150   00125E                     l618:
  1151                           
  1152                           ; BSR set to: 0
  1153                           ;MCAL_Layer/interrupt/mcal_external_interrupt.c: 218:     {;MCAL_Layer/interrupt/mcal_ex
      +                          ternal_interrupt.c: 220:         (INTCONbits.RBIE = 0);
  1154   00125E  96F2               	bcf	242,3,c	;volatile
  1155                           
  1156                           ;MCAL_Layer/interrupt/mcal_external_interrupt.c: 223:         (INTCONbits.RBIF = 0);
  1157   001260  90F2               	bcf	242,0,c	;volatile
  1158                           
  1159                           ;MCAL_Layer/interrupt/mcal_external_interrupt.c: 238:                 (INTCONbits.GIE = 
      +                          1);
  1160   001262  8EF2               	bsf	242,7,c	;volatile
  1161                           
  1162                           ;MCAL_Layer/interrupt/mcal_external_interrupt.c: 239:                 (INTCONbits.PEIE =
      +                           1);
  1163   001264  8CF2               	bsf	242,6,c	;volatile
  1164   001266                     
  1165                           ; BSR set to: 0
  1166                           ;MCAL_Layer/interrupt/mcal_external_interrupt.c: 242:         ret = gpio_pin_direction_i
      +                          ntialize(&(int_obj->mcu_pin));
  1167   001266  5189               	movf	Interrupt_RBx_Init@int_obj& (0+255),w,b
  1168   001268  0F04               	addlw	4
  1169   00126A  6F82               	movwf	gpio_pin_direction_intialize@_pin_config& (0+255),b
  1170   00126C  EC0B  F008         	call	_gpio_pin_direction_intialize	;wreg free
  1171   001270  0100               	movlb	0	; () banked
  1172   001272  6F8A               	movwf	Interrupt_RBx_Init@ret& (0+255),b
  1173                           
  1174                           ;MCAL_Layer/interrupt/mcal_external_interrupt.c: 244:         switch (int_obj->mcu_pin.p
      +                          in)
  1175   001274  EF88  F009         	goto	l4121
  1176   001278                     l4101:
  1177                           
  1178                           ; BSR set to: 0
  1179                           ;MCAL_Layer/interrupt/mcal_external_interrupt.c: 247:                 RB4_InterruptHandl
      +                          er_LOW = int_obj->EXT_InterruptHandler_LOW;
  1180   001278  5189               	movf	Interrupt_RBx_Init@int_obj& (0+255),w,b
  1181   00127A  6ED9               	movwf	fsr2l,c
  1182   00127C  6ADA               	clrf	fsr2h,c
  1183   00127E  0E02               	movlw	2
  1184   001280  26D9               	addwf	fsr2l,f,c
  1185   001282  CFDE F00D          	movff	postinc2,_RB4_InterruptHandler_LOW
  1186   001286  CFDD F00E          	movff	postdec2,_RB4_InterruptHandler_LOW+1
  1187   00128A                     
  1188                           ; BSR set to: 0
  1189                           ;MCAL_Layer/interrupt/mcal_external_interrupt.c: 248:                 RB4_InterruptHandl
      +                          er_HIGH = int_obj->EXT_InterruptHandler_HIGH;
  1190   00128A  5189               	movf	Interrupt_RBx_Init@int_obj& (0+255),w,b
  1191   00128C  6ED9               	movwf	fsr2l,c
  1192   00128E  6ADA               	clrf	fsr2h,c
  1193   001290  CFDE F00F          	movff	postinc2,_RB4_InterruptHandler_HIGH
  1194   001294  CFDD F010          	movff	postdec2,_RB4_InterruptHandler_HIGH+1
  1195                           
  1196                           ;MCAL_Layer/interrupt/mcal_external_interrupt.c: 249:                 break;
  1197   001298  EFA3  F009         	goto	l622
  1198   00129C                     l4105:
  1199                           
  1200                           ; BSR set to: 0
  1201                           ;MCAL_Layer/interrupt/mcal_external_interrupt.c: 251:                 RB5_InterruptHandl
      +                          er_LOW = int_obj->EXT_InterruptHandler_LOW;
  1202   00129C  5189               	movf	Interrupt_RBx_Init@int_obj& (0+255),w,b
  1203   00129E  6ED9               	movwf	fsr2l,c
  1204   0012A0  6ADA               	clrf	fsr2h,c
  1205   0012A2  0E02               	movlw	2
  1206   0012A4  26D9               	addwf	fsr2l,f,c
  1207   0012A6  CFDE F009          	movff	postinc2,_RB5_InterruptHandler_LOW
  1208   0012AA  CFDD F00A          	movff	postdec2,_RB5_InterruptHandler_LOW+1
  1209   0012AE                     
  1210                           ; BSR set to: 0
  1211                           ;MCAL_Layer/interrupt/mcal_external_interrupt.c: 252:                 RB5_InterruptHandl
      +                          er_HIGH = int_obj->EXT_InterruptHandler_HIGH;
  1212   0012AE  5189               	movf	Interrupt_RBx_Init@int_obj& (0+255),w,b
  1213   0012B0  6ED9               	movwf	fsr2l,c
  1214   0012B2  6ADA               	clrf	fsr2h,c
  1215   0012B4  CFDE F00B          	movff	postinc2,_RB5_InterruptHandler_HIGH
  1216   0012B8  CFDD F00C          	movff	postdec2,_RB5_InterruptHandler_HIGH+1
  1217                           
  1218                           ;MCAL_Layer/interrupt/mcal_external_interrupt.c: 253:                 break;
  1219   0012BC  EFA3  F009         	goto	l622
  1220   0012C0                     l4109:
  1221                           
  1222                           ; BSR set to: 0
  1223                           ;MCAL_Layer/interrupt/mcal_external_interrupt.c: 255:                 RB6_InterruptHandl
      +                          er_LOW = int_obj->EXT_InterruptHandler_LOW;
  1224   0012C0  5189               	movf	Interrupt_RBx_Init@int_obj& (0+255),w,b
  1225   0012C2  6ED9               	movwf	fsr2l,c
  1226   0012C4  6ADA               	clrf	fsr2h,c
  1227   0012C6  0E02               	movlw	2
  1228   0012C8  26D9               	addwf	fsr2l,f,c
  1229   0012CA  CFDE F005          	movff	postinc2,_RB6_InterruptHandler_LOW
  1230   0012CE  CFDD F006          	movff	postdec2,_RB6_InterruptHandler_LOW+1
  1231   0012D2                     
  1232                           ; BSR set to: 0
  1233                           ;MCAL_Layer/interrupt/mcal_external_interrupt.c: 256:                 RB6_InterruptHandl
      +                          er_HIGH = int_obj->EXT_InterruptHandler_HIGH;
  1234   0012D2  5189               	movf	Interrupt_RBx_Init@int_obj& (0+255),w,b
  1235   0012D4  6ED9               	movwf	fsr2l,c
  1236   0012D6  6ADA               	clrf	fsr2h,c
  1237   0012D8  CFDE F007          	movff	postinc2,_RB6_InterruptHandler_HIGH
  1238   0012DC  CFDD F008          	movff	postdec2,_RB6_InterruptHandler_HIGH+1
  1239                           
  1240                           ;MCAL_Layer/interrupt/mcal_external_interrupt.c: 257:                 break;
  1241   0012E0  EFA3  F009         	goto	l622
  1242   0012E4                     l4113:
  1243                           
  1244                           ; BSR set to: 0
  1245                           ;MCAL_Layer/interrupt/mcal_external_interrupt.c: 259:                 RB7_InterruptHandl
      +                          er_LOW = int_obj->EXT_InterruptHandler_LOW;
  1246   0012E4  5189               	movf	Interrupt_RBx_Init@int_obj& (0+255),w,b
  1247   0012E6  6ED9               	movwf	fsr2l,c
  1248   0012E8  6ADA               	clrf	fsr2h,c
  1249   0012EA  0E02               	movlw	2
  1250   0012EC  26D9               	addwf	fsr2l,f,c
  1251   0012EE  CFDE F001          	movff	postinc2,_RB7_InterruptHandler_LOW
  1252   0012F2  CFDD F002          	movff	postdec2,_RB7_InterruptHandler_LOW+1
  1253   0012F6                     
  1254                           ; BSR set to: 0
  1255                           ;MCAL_Layer/interrupt/mcal_external_interrupt.c: 260:                 RB7_InterruptHandl
      +                          er_HIGH = int_obj->EXT_InterruptHandler_HIGH;
  1256   0012F6  5189               	movf	Interrupt_RBx_Init@int_obj& (0+255),w,b
  1257   0012F8  6ED9               	movwf	fsr2l,c
  1258   0012FA  6ADA               	clrf	fsr2h,c
  1259   0012FC  CFDE F003          	movff	postinc2,_RB7_InterruptHandler_HIGH
  1260   001300  CFDD F004          	movff	postdec2,_RB7_InterruptHandler_HIGH+1
  1261                           
  1262                           ;MCAL_Layer/interrupt/mcal_external_interrupt.c: 261:                 break;
  1263   001304  EFA3  F009         	goto	l622
  1264   001308                     l4117:
  1265                           
  1266                           ; BSR set to: 0
  1267                           ;MCAL_Layer/interrupt/mcal_external_interrupt.c: 263:                 ret = (Std_ReturnT
      +                          ype)0x00;
  1268   001308  0E00               	movlw	0
  1269   00130A  6F8A               	movwf	Interrupt_RBx_Init@ret& (0+255),b
  1270                           
  1271                           ;MCAL_Layer/interrupt/mcal_external_interrupt.c: 264:                 break;
  1272   00130C  EFA3  F009         	goto	l622
  1273   001310                     l4121:
  1274                           
  1275                           ; BSR set to: 0
  1276   001310  5189               	movf	Interrupt_RBx_Init@int_obj& (0+255),w,b
  1277   001312  6ED9               	movwf	fsr2l,c
  1278   001314  6ADA               	clrf	fsr2h,c
  1279   001316  0E04               	movlw	4
  1280   001318  26D9               	addwf	fsr2l,f,c
  1281   00131A  30DF               	rrcf	223,w,c
  1282   00131C  32E8               	rrcf	wreg,f,c
  1283   00131E  32E8               	rrcf	wreg,f,c
  1284   001320  0B07               	andlw	7
  1285                           
  1286                           ; Switch size 1, requested type "simple"
  1287                           ; Number of cases is 4, Range of values is 4 to 7
  1288                           ; switch strategies available:
  1289                           ; Name         Instructions Cycles
  1290                           ; simple_byte           13     7 (average)
  1291                           ;	Chosen strategy is simple_byte
  1292   001322  0A04               	xorlw	4	; case 4
  1293   001324  B4D8               	btfsc	status,2,c
  1294   001326  EF3C  F009         	goto	l4101
  1295   00132A  0A01               	xorlw	1	; case 5
  1296   00132C  B4D8               	btfsc	status,2,c
  1297   00132E  EF4E  F009         	goto	l4105
  1298   001332  0A03               	xorlw	3	; case 6
  1299   001334  B4D8               	btfsc	status,2,c
  1300   001336  EF60  F009         	goto	l4109
  1301   00133A  0A01               	xorlw	1	; case 7
  1302   00133C  B4D8               	btfsc	status,2,c
  1303   00133E  EF72  F009         	goto	l4113
  1304   001342  EF84  F009         	goto	l4117
  1305   001346                     l622:
  1306                           
  1307                           ; BSR set to: 0
  1308                           ;MCAL_Layer/interrupt/mcal_external_interrupt.c: 267:         (INTCONbits.RBIE = 1);
  1309   001346  86F2               	bsf	242,3,c	;volatile
  1310   001348                     l4123:
  1311                           
  1312                           ; BSR set to: 0
  1313                           ;MCAL_Layer/interrupt/mcal_external_interrupt.c: 270:     return ret;
  1314   001348  518A               	movf	Interrupt_RBx_Init@ret& (0+255),w,b
  1315   00134A                     
  1316                           ; BSR set to: 0
  1317   00134A  0012               	return		;funcret
  1318   00134C                     __end_of_Interrupt_RBx_Init:
  1319                           	callstack 0
  1320                           
  1321 ;; *************** function _gpio_pin_direction_intialize *****************
  1322 ;; Defined at:
  1323 ;;		line 27 in file "MCAL_Layer/GPIO/hal_gpio.c"
  1324 ;; Parameters:    Size  Location     Type
  1325 ;;  _pin_config     1    0[BANK0 ] PTR const struct .
  1326 ;;		 -> RB7_obj(6), RB6_obj(6), RB5_obj(6), RB4_obj(6), 
  1327 ;;		 -> relay_initialize@pin_obj(1), led_initialize@pin_obj(1), 
  1328 ;; Auto vars:     Size  Location     Type
  1329 ;;  ret             1    6[BANK0 ] unsigned char 
  1330 ;; Return value:  Size  Location     Type
  1331 ;;                  1    wreg      unsigned char 
  1332 ;; Registers used:
  1333 ;;		wreg, fsr2l, fsr2h, status,2, status,0, prodl, prodh
  1334 ;; Tracked objects:
  1335 ;;		On entry : 0/0
  1336 ;;		On exit  : 0/0
  1337 ;;		Unchanged: 0/0
  1338 ;; Data sizes:     COMRAM   BANK0   BANK1   BANK2   BANK3   BANK4   BANK5   BANK6   BANK7   BANK8   BANK9  BANK10  BANK1
      +1  BANK12  BANK13  BANK14  BANK15
  1339 ;;      Params:         0       1       0       0       0       0       0       0       0       0       0       0       
      +0       0       0       0       0
  1340 ;;      Locals:         0       1       0       0       0       0       0       0       0       0       0       0       
      +0       0       0       0       0
  1341 ;;      Temps:          0       5       0       0       0       0       0       0       0       0       0       0       
      +0       0       0       0       0
  1342 ;;      Totals:         0       7       0       0       0       0       0       0       0       0       0       0       
      +0       0       0       0       0
  1343 ;;Total ram usage:        7 bytes
  1344 ;; Hardware stack levels used: 1
  1345 ;; Hardware stack levels required when called: 5
  1346 ;; This function calls:
  1347 ;;		Nothing
  1348 ;; This function is called by:
  1349 ;;		_gpio_pin_intialize
  1350 ;;		_Interrupt_RBx_Init
  1351 ;;		_button_initialize
  1352 ;;		_keypad_initialize
  1353 ;;		_Interrupt_INTx_Pin_Init
  1354 ;; This function uses a non-reentrant model
  1355 ;;
  1356                           
  1357                           	psect	text5
  1358   001016                     __ptext5:
  1359                           	callstack 0
  1360   001016                     _gpio_pin_direction_intialize:
  1361                           	callstack 23
  1362   001016                     
  1363                           ;MCAL_Layer/GPIO/hal_gpio.c: 28:     Std_ReturnType ret = (Std_ReturnType)0x01;
  1364   001016  0E01               	movlw	1
  1365   001018  0100               	movlb	0	; () banked
  1366   00101A  6F88               	movwf	gpio_pin_direction_intialize@ret& (0+255),b
  1367                           
  1368                           ;MCAL_Layer/GPIO/hal_gpio.c: 29:     if (((void*)0) == _pin_config || _pin_config->pin >
      +                           8 -1)
  1369   00101C  5182               	movf	gpio_pin_direction_intialize@_pin_config& (0+255),w,b
  1370   00101E  B4D8               	btfsc	status,2,c
  1371   001020  EF14  F008         	goto	u3521
  1372   001024  EF16  F008         	goto	u3520
  1373   001028                     u3521:
  1374   001028  EF26  F008         	goto	l3807
  1375   00102C                     u3520:
  1376   00102C                     
  1377                           ; BSR set to: 0
  1378   00102C  5182               	movf	gpio_pin_direction_intialize@_pin_config& (0+255),w,b
  1379   00102E  6ED9               	movwf	fsr2l,c
  1380   001030  6ADA               	clrf	fsr2h,c
  1381   001032  30DF               	rrcf	223,w,c
  1382   001034  32E8               	rrcf	wreg,f,c
  1383   001036  32E8               	rrcf	wreg,f,c
  1384   001038  0B07               	andlw	7
  1385   00103A  6F83               	movwf	??_gpio_pin_direction_intialize& (0+255),b
  1386   00103C  0E07               	movlw	7
  1387   00103E  6583               	cpfsgt	??_gpio_pin_direction_intialize& (0+255),b
  1388   001040  EF24  F008         	goto	u3531
  1389   001044  EF26  F008         	goto	u3530
  1390   001048                     u3531:
  1391   001048  EF7F  F008         	goto	l3815
  1392   00104C                     u3530:
  1393   00104C                     l3807:
  1394                           
  1395                           ; BSR set to: 0
  1396                           ;MCAL_Layer/GPIO/hal_gpio.c: 30:     {;MCAL_Layer/GPIO/hal_gpio.c: 31:         ret = (St
      +                          d_ReturnType)0x00;
  1397   00104C  0E00               	movlw	0
  1398   00104E  6F88               	movwf	gpio_pin_direction_intialize@ret& (0+255),b
  1399                           
  1400                           ;MCAL_Layer/GPIO/hal_gpio.c: 32:     }
  1401   001050  EF95  F008         	goto	l3817
  1402   001054                     l3809:
  1403                           
  1404                           ; BSR set to: 0
  1405                           ;MCAL_Layer/GPIO/hal_gpio.c: 38:                 (*tris_registers[_pin_config->port] &= 
      +                          ~((uint8)1<<_pin_config->pin));
  1406   001054  5182               	movf	gpio_pin_direction_intialize@_pin_config& (0+255),w,b
  1407   001056  6ED9               	movwf	fsr2l,c
  1408   001058  6ADA               	clrf	fsr2h,c
  1409   00105A  30DF               	rrcf	223,w,c
  1410   00105C  32E8               	rrcf	wreg,f,c
  1411   00105E  32E8               	rrcf	wreg,f,c
  1412   001060  0B07               	andlw	7
  1413   001062  6F83               	movwf	??_gpio_pin_direction_intialize& (0+255),b
  1414   001064  0E01               	movlw	1
  1415   001066  6F84               	movwf	(??_gpio_pin_direction_intialize+1)& (0+255),b
  1416   001068  2B83               	incf	??_gpio_pin_direction_intialize& (0+255),f,b
  1417   00106A  EF39  F008         	goto	u3544
  1418   00106E                     u3545:
  1419   00106E  90D8               	bcf	status,0,c
  1420   001070  3784               	rlcf	(??_gpio_pin_direction_intialize+1)& (0+255),f,b
  1421   001072                     u3544:
  1422   001072  2F83               	decfsz	??_gpio_pin_direction_intialize& (0+255),f,b
  1423   001074  EF37  F008         	goto	u3545
  1424   001078  0100               	movlb	0	; () banked
  1425   00107A  5184               	movf	(??_gpio_pin_direction_intialize+1)& (0+255),w,b
  1426   00107C  0AFF               	xorlw	255
  1427   00107E  6F85               	movwf	(??_gpio_pin_direction_intialize+2)& (0+255),b
  1428   001080  5182               	movf	gpio_pin_direction_intialize@_pin_config& (0+255),w,b
  1429   001082  6ED9               	movwf	fsr2l,c
  1430   001084  6ADA               	clrf	fsr2h,c
  1431   001086  50DF               	movf	223,w,c
  1432   001088  0B07               	andlw	7
  1433   00108A  0D02               	mullw	2
  1434   00108C  50F3               	movf	243,w,c
  1435   00108E  0F28               	addlw	low _tris_registers
  1436   001090  6ED9               	movwf	fsr2l,c
  1437   001092  6ADA               	clrf	fsr2h,c
  1438   001094  CFDE F086          	movff	postinc2,??_gpio_pin_direction_intialize+3
  1439   001098  CFDD F087          	movff	postdec2,??_gpio_pin_direction_intialize+4
  1440   00109C  C086  FFD9         	movff	??_gpio_pin_direction_intialize+3,fsr2l
  1441   0010A0  C087  FFDA         	movff	??_gpio_pin_direction_intialize+4,fsr2h
  1442   0010A4  5185               	movf	(??_gpio_pin_direction_intialize+2)& (0+255),w,b
  1443   0010A6  16DF               	andwf	indf2,f,c
  1444                           
  1445                           ;MCAL_Layer/GPIO/hal_gpio.c: 39:                 break;
  1446   0010A8  EF95  F008         	goto	l3817
  1447   0010AC                     l3811:
  1448                           
  1449                           ; BSR set to: 0
  1450                           ;MCAL_Layer/GPIO/hal_gpio.c: 41:                 (*tris_registers[_pin_config->port] |= 
      +                          ((uint8)1<<_pin_config->pin));
  1451   0010AC  5182               	movf	gpio_pin_direction_intialize@_pin_config& (0+255),w,b
  1452   0010AE  6ED9               	movwf	fsr2l,c
  1453   0010B0  6ADA               	clrf	fsr2h,c
  1454   0010B2  30DF               	rrcf	223,w,c
  1455   0010B4  32E8               	rrcf	wreg,f,c
  1456   0010B6  32E8               	rrcf	wreg,f,c
  1457   0010B8  0B07               	andlw	7
  1458   0010BA  6F83               	movwf	??_gpio_pin_direction_intialize& (0+255),b
  1459   0010BC  0E01               	movlw	1
  1460   0010BE  6F84               	movwf	(??_gpio_pin_direction_intialize+1)& (0+255),b
  1461   0010C0  2B83               	incf	??_gpio_pin_direction_intialize& (0+255),f,b
  1462   0010C2  EF65  F008         	goto	u3554
  1463   0010C6                     u3555:
  1464   0010C6  90D8               	bcf	status,0,c
  1465   0010C8  3784               	rlcf	(??_gpio_pin_direction_intialize+1)& (0+255),f,b
  1466   0010CA                     u3554:
  1467   0010CA  2F83               	decfsz	??_gpio_pin_direction_intialize& (0+255),f,b
  1468   0010CC  EF63  F008         	goto	u3555
  1469   0010D0  0100               	movlb	0	; () banked
  1470   0010D2  5182               	movf	gpio_pin_direction_intialize@_pin_config& (0+255),w,b
  1471   0010D4  6ED9               	movwf	fsr2l,c
  1472   0010D6  6ADA               	clrf	fsr2h,c
  1473   0010D8  50DF               	movf	223,w,c
  1474   0010DA  0B07               	andlw	7
  1475   0010DC  0D02               	mullw	2
  1476   0010DE  50F3               	movf	243,w,c
  1477   0010E0  0F28               	addlw	low _tris_registers
  1478   0010E2  6ED9               	movwf	fsr2l,c
  1479   0010E4  6ADA               	clrf	fsr2h,c
  1480   0010E6  CFDE F085          	movff	postinc2,??_gpio_pin_direction_intialize+2
  1481   0010EA  CFDD F086          	movff	postdec2,??_gpio_pin_direction_intialize+3
  1482   0010EE  C085  FFD9         	movff	??_gpio_pin_direction_intialize+2,fsr2l
  1483   0010F2  C086  FFDA         	movff	??_gpio_pin_direction_intialize+3,fsr2h
  1484   0010F6  5184               	movf	(??_gpio_pin_direction_intialize+1)& (0+255),w,b
  1485   0010F8  12DF               	iorwf	indf2,f,c
  1486                           
  1487                           ;MCAL_Layer/GPIO/hal_gpio.c: 42:                 break;
  1488   0010FA  EF95  F008         	goto	l3817
  1489   0010FE                     l3815:
  1490                           
  1491                           ; BSR set to: 0
  1492   0010FE  5182               	movf	gpio_pin_direction_intialize@_pin_config& (0+255),w,b
  1493   001100  6ED9               	movwf	fsr2l,c
  1494   001102  6ADA               	clrf	fsr2h,c
  1495   001104  BCDF               	btfsc	indf2,6,c
  1496   001106  EF87  F008         	goto	u3561
  1497   00110A  EF8A  F008         	goto	u3560
  1498   00110E                     u3561:
  1499   00110E  0E01               	movlw	1
  1500   001110  EF8B  F008         	goto	u3566
  1501   001114                     u3560:
  1502   001114  0E00               	movlw	0
  1503   001116                     u3566:
  1504                           
  1505                           ; Switch size 1, requested type "simple"
  1506                           ; Number of cases is 2, Range of values is 0 to 1
  1507                           ; switch strategies available:
  1508                           ; Name         Instructions Cycles
  1509                           ; simple_byte            7     4 (average)
  1510                           ;	Chosen strategy is simple_byte
  1511   001116  0A00               	xorlw	0	; case 0
  1512   001118  B4D8               	btfsc	status,2,c
  1513   00111A  EF2A  F008         	goto	l3809
  1514   00111E  0A01               	xorlw	1	; case 1
  1515   001120  B4D8               	btfsc	status,2,c
  1516   001122  EF56  F008         	goto	l3811
  1517   001126  EF26  F008         	goto	l3807
  1518   00112A                     l3817:
  1519                           
  1520                           ; BSR set to: 0
  1521                           ;MCAL_Layer/GPIO/hal_gpio.c: 46:     return ret;
  1522   00112A  5188               	movf	gpio_pin_direction_intialize@ret& (0+255),w,b
  1523   00112C                     
  1524                           ; BSR set to: 0
  1525   00112C  0012               	return		;funcret
  1526   00112E                     __end_of_gpio_pin_direction_intialize:
  1527                           	callstack 0
  1528                           
  1529 ;; *************** function _InterruptManager *****************
  1530 ;; Defined at:
  1531 ;;		line 35 in file "MCAL_Layer/interrupt/mcal_interrupt_manager.c"
  1532 ;; Parameters:    Size  Location     Type
  1533 ;;		None
  1534 ;; Auto vars:     Size  Location     Type
  1535 ;;		None
  1536 ;; Return value:  Size  Location     Type
  1537 ;;                  1    wreg      void 
  1538 ;; Registers used:
  1539 ;;		wreg, fsr2l, fsr2h, status,2, status,0, pcl, pclath, pclatu, tosl, prodl, prodh, cstack
  1540 ;; Tracked objects:
  1541 ;;		On entry : 0/0
  1542 ;;		On exit  : 0/0
  1543 ;;		Unchanged: 0/0
  1544 ;; Data sizes:     COMRAM   BANK0   BANK1   BANK2   BANK3   BANK4   BANK5   BANK6   BANK7   BANK8   BANK9  BANK10  BANK1
      +1  BANK12  BANK13  BANK14  BANK15
  1545 ;;      Params:         0       0       0       0       0       0       0       0       0       0       0       0       
      +0       0       0       0       0
  1546 ;;      Locals:         0       0       0       0       0       0       0       0       0       0       0       0       
      +0       0       0       0       0
  1547 ;;      Temps:          6       0       0       0       0       0       0       0       0       0       0       0       
      +0       0       0       0       0
  1548 ;;      Totals:         6       0       0       0       0       0       0       0       0       0       0       0       
      +0       0       0       0       0
  1549 ;;Total ram usage:        6 bytes
  1550 ;; Hardware stack levels used: 1
  1551 ;; Hardware stack levels required when called: 4
  1552 ;; This function calls:
  1553 ;;		_INT0_ISR
  1554 ;;		_INT1_ISR
  1555 ;;		_INT2_ISR
  1556 ;;		_RB4_ISR
  1557 ;;		_RB5_ISR
  1558 ;;		_RB6_ISR
  1559 ;;		_RB7_ISR
  1560 ;; This function is called by:
  1561 ;;		Interrupt level 2
  1562 ;; This function uses a non-reentrant model
  1563 ;;
  1564                           
  1565                           	psect	intcode
  1566   000008                     __pintcode:
  1567                           	callstack 0
  1568   000008                     _InterruptManager:
  1569                           	callstack 23
  1570                           
  1571                           ; BSR set to: 0
  1572                           ;incstack = 0
  1573   000008  824D               	bsf	int$flags,1,c	;set compiler interrupt flag (level 2)
  1574   00000A  CFFA F046          	movff	pclath,??_InterruptManager
  1575   00000E  CFFB F047          	movff	pclatu,??_InterruptManager+1
  1576   000012  CFD9 F048          	movff	fsr2l,??_InterruptManager+2
  1577   000016  CFDA F049          	movff	fsr2h,??_InterruptManager+3
  1578   00001A  CFF3 F04A          	movff	prodl,??_InterruptManager+4
  1579   00001E  CFF4 F04B          	movff	prodh,??_InterruptManager+5
  1580   000022                     
  1581                           ;MCAL_Layer/interrupt/mcal_interrupt_manager.c: 38:     if ((INTCONbits.INT0IE == 1) && 
      +                          (INTCONbits.INT0IF == 1))
  1582   000022  A8F2               	btfss	242,4,c	;volatile
  1583   000024  EF16  F000         	goto	i2u448_41
  1584   000028  EF18  F000         	goto	i2u448_40
  1585   00002C                     i2u448_41:
  1586   00002C  EF21  F000         	goto	i2l492
  1587   000030                     i2u448_40:
  1588   000030  A2F2               	btfss	242,1,c	;volatile
  1589   000032  EF1D  F000         	goto	i2u449_41
  1590   000036  EF1F  F000         	goto	i2u449_40
  1591   00003A                     i2u449_41:
  1592   00003A  EF21  F000         	goto	i2l492
  1593   00003E                     i2u449_40:
  1594   00003E                     
  1595                           ;MCAL_Layer/interrupt/mcal_interrupt_manager.c: 39:     {;MCAL_Layer/interrupt/mcal_inte
      +                          rrupt_manager.c: 40:         INT0_ISR();
  1596   00003E  ECB8  F00C         	call	_INT0_ISR	;wreg free
  1597   000042                     i2l492:
  1598                           
  1599                           ;MCAL_Layer/interrupt/mcal_interrupt_manager.c: 43:     if ((INTCON3bits.INT1IE == 1) &&
      +                           (INTCON3bits.INT1IF == 1))
  1600   000042  A6F0               	btfss	240,3,c	;volatile
  1601   000044  EF26  F000         	goto	i2u450_41
  1602   000048  EF28  F000         	goto	i2u450_40
  1603   00004C                     i2u450_41:
  1604   00004C  EF31  F000         	goto	i2l494
  1605   000050                     i2u450_40:
  1606   000050  A0F0               	btfss	240,0,c	;volatile
  1607   000052  EF2D  F000         	goto	i2u451_41
  1608   000056  EF2F  F000         	goto	i2u451_40
  1609   00005A                     i2u451_41:
  1610   00005A  EF31  F000         	goto	i2l494
  1611   00005E                     i2u451_40:
  1612   00005E                     
  1613                           ;MCAL_Layer/interrupt/mcal_interrupt_manager.c: 44:     {;MCAL_Layer/interrupt/mcal_inte
      +                          rrupt_manager.c: 45:         INT1_ISR();
  1614   00005E  ECB6  F00C         	call	_INT1_ISR	;wreg free
  1615   000062                     i2l494:
  1616                           
  1617                           ;MCAL_Layer/interrupt/mcal_interrupt_manager.c: 48:     if ((INTCON3bits.INT2IE == 1) &&
      +                           (INTCON3bits.INT2IF == 1))
  1618   000062  A8F0               	btfss	240,4,c	;volatile
  1619   000064  EF36  F000         	goto	i2u452_41
  1620   000068  EF38  F000         	goto	i2u452_40
  1621   00006C                     i2u452_41:
  1622   00006C  EF41  F000         	goto	i2l496
  1623   000070                     i2u452_40:
  1624   000070  A2F0               	btfss	240,1,c	;volatile
  1625   000072  EF3D  F000         	goto	i2u453_41
  1626   000076  EF3F  F000         	goto	i2u453_40
  1627   00007A                     i2u453_41:
  1628   00007A  EF41  F000         	goto	i2l496
  1629   00007E                     i2u453_40:
  1630   00007E                     
  1631                           ;MCAL_Layer/interrupt/mcal_interrupt_manager.c: 49:     {;MCAL_Layer/interrupt/mcal_inte
      +                          rrupt_manager.c: 50:         INT2_ISR();
  1632   00007E  ECB4  F00C         	call	_INT2_ISR	;wreg free
  1633   000082                     i2l496:
  1634                           
  1635                           ;MCAL_Layer/interrupt/mcal_interrupt_manager.c: 56:     if ((INTCONbits.RBIE == 1) && (I
      +                          NTCONbits.RBIF == 1) &&
  1636   000082  A6F2               	btfss	242,3,c	;volatile
  1637   000084  EF46  F000         	goto	i2u454_41
  1638   000088  EF48  F000         	goto	i2u454_40
  1639   00008C                     i2u454_41:
  1640   00008C  EF63  F000         	goto	i2l498
  1641   000090                     i2u454_40:
  1642   000090  A0F2               	btfss	242,0,c	;volatile
  1643   000092  EF4D  F000         	goto	i2u455_41
  1644   000096  EF4F  F000         	goto	i2u455_40
  1645   00009A                     i2u455_41:
  1646   00009A  EF63  F000         	goto	i2l498
  1647   00009E                     i2u455_40:
  1648   00009E  A881               	btfss	129,4,c	;volatile
  1649   0000A0  EF54  F000         	goto	i2u456_41
  1650   0000A4  EF56  F000         	goto	i2u456_40
  1651   0000A8                     i2u456_41:
  1652   0000A8  EF63  F000         	goto	i2l498
  1653   0000AC                     i2u456_40:
  1654   0000AC  0435               	decf	_RB4_Flag^0,w,c	;volatile
  1655   0000AE  A4D8               	btfss	status,2,c
  1656   0000B0  EF5C  F000         	goto	i2u457_41
  1657   0000B4  EF5E  F000         	goto	i2u457_40
  1658   0000B8                     i2u457_41:
  1659   0000B8  EF63  F000         	goto	i2l498
  1660   0000BC                     i2u457_40:
  1661   0000BC                     
  1662                           ;MCAL_Layer/interrupt/mcal_interrupt_manager.c: 58:     {;MCAL_Layer/interrupt/mcal_inte
      +                          rrupt_manager.c: 59:         RB4_Flag = 0;
  1663   0000BC  0E00               	movlw	0
  1664   0000BE  6E35               	movwf	_RB4_Flag^0,c	;volatile
  1665   0000C0                     
  1666                           ;MCAL_Layer/interrupt/mcal_interrupt_manager.c: 60:         RB4_ISR(1);
  1667   0000C0  0E01               	movlw	1
  1668   0000C2  ECE6  F00A         	call	_RB4_ISR
  1669   0000C6                     i2l498:
  1670                           
  1671                           ;MCAL_Layer/interrupt/mcal_interrupt_manager.c: 63:     if ((INTCONbits.RBIE == 1) && (I
      +                          NTCONbits.RBIF == 1) &&
  1672   0000C6  A6F2               	btfss	242,3,c	;volatile
  1673   0000C8  EF68  F000         	goto	i2u458_41
  1674   0000CC  EF6A  F000         	goto	i2u458_40
  1675   0000D0                     i2u458_41:
  1676   0000D0  EF85  F000         	goto	i2l500
  1677   0000D4                     i2u458_40:
  1678   0000D4  A0F2               	btfss	242,0,c	;volatile
  1679   0000D6  EF6F  F000         	goto	i2u459_41
  1680   0000DA  EF71  F000         	goto	i2u459_40
  1681   0000DE                     i2u459_41:
  1682   0000DE  EF85  F000         	goto	i2l500
  1683   0000E2                     i2u459_40:
  1684   0000E2  B881               	btfsc	129,4,c	;volatile
  1685   0000E4  EF76  F000         	goto	i2u460_41
  1686   0000E8  EF78  F000         	goto	i2u460_40
  1687   0000EC                     i2u460_41:
  1688   0000EC  EF85  F000         	goto	i2l500
  1689   0000F0                     i2u460_40:
  1690   0000F0  5035               	movf	_RB4_Flag^0,w,c	;volatile
  1691   0000F2  A4D8               	btfss	status,2,c
  1692   0000F4  EF7E  F000         	goto	i2u461_41
  1693   0000F8  EF80  F000         	goto	i2u461_40
  1694   0000FC                     i2u461_41:
  1695   0000FC  EF85  F000         	goto	i2l500
  1696   000100                     i2u461_40:
  1697   000100                     
  1698                           ;MCAL_Layer/interrupt/mcal_interrupt_manager.c: 65:     {;MCAL_Layer/interrupt/mcal_inte
      +                          rrupt_manager.c: 66:         RB4_Flag = 1;
  1699   000100  0E01               	movlw	1
  1700   000102  6E35               	movwf	_RB4_Flag^0,c	;volatile
  1701   000104                     
  1702                           ;MCAL_Layer/interrupt/mcal_interrupt_manager.c: 67:         RB4_ISR(0);
  1703   000104  0E00               	movlw	0
  1704   000106  ECE6  F00A         	call	_RB4_ISR
  1705   00010A                     i2l500:
  1706                           
  1707                           ;MCAL_Layer/interrupt/mcal_interrupt_manager.c: 70:     if ((INTCONbits.RBIE == 1) && (I
      +                          NTCONbits.RBIF == 1) &&
  1708   00010A  A6F2               	btfss	242,3,c	;volatile
  1709   00010C  EF8A  F000         	goto	i2u462_41
  1710   000110  EF8C  F000         	goto	i2u462_40
  1711   000114                     i2u462_41:
  1712   000114  EFA7  F000         	goto	i2l502
  1713   000118                     i2u462_40:
  1714   000118  A0F2               	btfss	242,0,c	;volatile
  1715   00011A  EF91  F000         	goto	i2u463_41
  1716   00011E  EF93  F000         	goto	i2u463_40
  1717   000122                     i2u463_41:
  1718   000122  EFA7  F000         	goto	i2l502
  1719   000126                     i2u463_40:
  1720   000126  AA81               	btfss	129,5,c	;volatile
  1721   000128  EF98  F000         	goto	i2u464_41
  1722   00012C  EF9A  F000         	goto	i2u464_40
  1723   000130                     i2u464_41:
  1724   000130  EFA7  F000         	goto	i2l502
  1725   000134                     i2u464_40:
  1726   000134  0434               	decf	_RB5_Flag^0,w,c	;volatile
  1727   000136  A4D8               	btfss	status,2,c
  1728   000138  EFA0  F000         	goto	i2u465_41
  1729   00013C  EFA2  F000         	goto	i2u465_40
  1730   000140                     i2u465_41:
  1731   000140  EFA7  F000         	goto	i2l502
  1732   000144                     i2u465_40:
  1733   000144                     
  1734                           ;MCAL_Layer/interrupt/mcal_interrupt_manager.c: 72:     {;MCAL_Layer/interrupt/mcal_inte
      +                          rrupt_manager.c: 73:         RB5_Flag = 0;
  1735   000144  0E00               	movlw	0
  1736   000146  6E34               	movwf	_RB5_Flag^0,c	;volatile
  1737   000148                     
  1738                           ;MCAL_Layer/interrupt/mcal_interrupt_manager.c: 74:         RB5_ISR(1);
  1739   000148  0E01               	movlw	1
  1740   00014A  ECA7  F00A         	call	_RB5_ISR
  1741   00014E                     i2l502:
  1742                           
  1743                           ;MCAL_Layer/interrupt/mcal_interrupt_manager.c: 77:     if ((INTCONbits.RBIE == 1) && (I
      +                          NTCONbits.RBIF == 1) &&
  1744   00014E  A6F2               	btfss	242,3,c	;volatile
  1745   000150  EFAC  F000         	goto	i2u466_41
  1746   000154  EFAE  F000         	goto	i2u466_40
  1747   000158                     i2u466_41:
  1748   000158  EFC9  F000         	goto	i2l4623
  1749   00015C                     i2u466_40:
  1750   00015C  A0F2               	btfss	242,0,c	;volatile
  1751   00015E  EFB3  F000         	goto	i2u467_41
  1752   000162  EFB5  F000         	goto	i2u467_40
  1753   000166                     i2u467_41:
  1754   000166  EFC9  F000         	goto	i2l4623
  1755   00016A                     i2u467_40:
  1756   00016A  BA81               	btfsc	129,5,c	;volatile
  1757   00016C  EFBA  F000         	goto	i2u468_41
  1758   000170  EFBC  F000         	goto	i2u468_40
  1759   000174                     i2u468_41:
  1760   000174  EFC9  F000         	goto	i2l4623
  1761   000178                     i2u468_40:
  1762   000178  5034               	movf	_RB5_Flag^0,w,c	;volatile
  1763   00017A  A4D8               	btfss	status,2,c
  1764   00017C  EFC2  F000         	goto	i2u469_41
  1765   000180  EFC4  F000         	goto	i2u469_40
  1766   000184                     i2u469_41:
  1767   000184  EFC9  F000         	goto	i2l4623
  1768   000188                     i2u469_40:
  1769   000188                     
  1770                           ;MCAL_Layer/interrupt/mcal_interrupt_manager.c: 79:     {;MCAL_Layer/interrupt/mcal_inte
      +                          rrupt_manager.c: 80:         RB5_Flag = 1;
  1771   000188  0E01               	movlw	1
  1772   00018A  6E34               	movwf	_RB5_Flag^0,c	;volatile
  1773   00018C                     
  1774                           ;MCAL_Layer/interrupt/mcal_interrupt_manager.c: 81:         RB5_ISR(0);
  1775   00018C  0E00               	movlw	0
  1776   00018E  ECA7  F00A         	call	_RB5_ISR
  1777   000192                     i2l4623:
  1778                           
  1779                           ;MCAL_Layer/interrupt/mcal_interrupt_manager.c: 84:     if ((INTCONbits.RBIE == 1) && (I
      +                          NTCONbits.RBIF == 1) &&
  1780   000192  A6F2               	btfss	242,3,c	;volatile
  1781   000194  EFCE  F000         	goto	i2u470_41
  1782   000198  EFD0  F000         	goto	i2u470_40
  1783   00019C                     i2u470_41:
  1784   00019C  EFEB  F000         	goto	i2l505
  1785   0001A0                     i2u470_40:
  1786   0001A0  A0F2               	btfss	242,0,c	;volatile
  1787   0001A2  EFD5  F000         	goto	i2u471_41
  1788   0001A6  EFD7  F000         	goto	i2u471_40
  1789   0001AA                     i2u471_41:
  1790   0001AA  EFEB  F000         	goto	i2l505
  1791   0001AE                     i2u471_40:
  1792   0001AE  AC81               	btfss	129,6,c	;volatile
  1793   0001B0  EFDC  F000         	goto	i2u472_41
  1794   0001B4  EFDE  F000         	goto	i2u472_40
  1795   0001B8                     i2u472_41:
  1796   0001B8  EFEB  F000         	goto	i2l505
  1797   0001BC                     i2u472_40:
  1798   0001BC  0433               	decf	_RB6_Flag^0,w,c	;volatile
  1799   0001BE  A4D8               	btfss	status,2,c
  1800   0001C0  EFE4  F000         	goto	i2u473_41
  1801   0001C4  EFE6  F000         	goto	i2u473_40
  1802   0001C8                     i2u473_41:
  1803   0001C8  EFEB  F000         	goto	i2l505
  1804   0001CC                     i2u473_40:
  1805   0001CC                     
  1806                           ;MCAL_Layer/interrupt/mcal_interrupt_manager.c: 86:     {;MCAL_Layer/interrupt/mcal_inte
      +                          rrupt_manager.c: 87:         RB6_Flag = 0;
  1807   0001CC  0E00               	movlw	0
  1808   0001CE  6E33               	movwf	_RB6_Flag^0,c	;volatile
  1809   0001D0                     
  1810                           ;MCAL_Layer/interrupt/mcal_interrupt_manager.c: 88:         RB6_ISR(1);
  1811   0001D0  0E01               	movlw	1
  1812   0001D2  EC68  F00A         	call	_RB6_ISR
  1813   0001D6                     i2l505:
  1814                           
  1815                           ;MCAL_Layer/interrupt/mcal_interrupt_manager.c: 91:     if ((INTCONbits.RBIE == 1) && (I
      +                          NTCONbits.RBIF == 1) &&
  1816   0001D6  A6F2               	btfss	242,3,c	;volatile
  1817   0001D8  EFF0  F000         	goto	i2u474_41
  1818   0001DC  EFF2  F000         	goto	i2u474_40
  1819   0001E0                     i2u474_41:
  1820   0001E0  EF0D  F001         	goto	i2l4645
  1821   0001E4                     i2u474_40:
  1822   0001E4  A0F2               	btfss	242,0,c	;volatile
  1823   0001E6  EFF7  F000         	goto	i2u475_41
  1824   0001EA  EFF9  F000         	goto	i2u475_40
  1825   0001EE                     i2u475_41:
  1826   0001EE  EF0D  F001         	goto	i2l4645
  1827   0001F2                     i2u475_40:
  1828   0001F2  BC81               	btfsc	129,6,c	;volatile
  1829   0001F4  EFFE  F000         	goto	i2u476_41
  1830   0001F8  EF00  F001         	goto	i2u476_40
  1831   0001FC                     i2u476_41:
  1832   0001FC  EF0D  F001         	goto	i2l4645
  1833   000200                     i2u476_40:
  1834   000200  5033               	movf	_RB6_Flag^0,w,c	;volatile
  1835   000202  A4D8               	btfss	status,2,c
  1836   000204  EF06  F001         	goto	i2u477_41
  1837   000208  EF08  F001         	goto	i2u477_40
  1838   00020C                     i2u477_41:
  1839   00020C  EF0D  F001         	goto	i2l4645
  1840   000210                     i2u477_40:
  1841   000210                     
  1842                           ;MCAL_Layer/interrupt/mcal_interrupt_manager.c: 93:     {;MCAL_Layer/interrupt/mcal_inte
      +                          rrupt_manager.c: 94:         RB6_Flag = 1;
  1843   000210  0E01               	movlw	1
  1844   000212  6E33               	movwf	_RB6_Flag^0,c	;volatile
  1845   000214                     
  1846                           ;MCAL_Layer/interrupt/mcal_interrupt_manager.c: 95:         RB6_ISR(0);
  1847   000214  0E00               	movlw	0
  1848   000216  EC68  F00A         	call	_RB6_ISR
  1849   00021A                     i2l4645:
  1850                           
  1851                           ;MCAL_Layer/interrupt/mcal_interrupt_manager.c: 98:     if ((INTCONbits.RBIE == 1) && (I
      +                          NTCONbits.RBIF == 1) &&
  1852   00021A  A6F2               	btfss	242,3,c	;volatile
  1853   00021C  EF12  F001         	goto	i2u478_41
  1854   000220  EF14  F001         	goto	i2u478_40
  1855   000224                     i2u478_41:
  1856   000224  EF2F  F001         	goto	i2l508
  1857   000228                     i2u478_40:
  1858   000228  A0F2               	btfss	242,0,c	;volatile
  1859   00022A  EF19  F001         	goto	i2u479_41
  1860   00022E  EF1B  F001         	goto	i2u479_40
  1861   000232                     i2u479_41:
  1862   000232  EF2F  F001         	goto	i2l508
  1863   000236                     i2u479_40:
  1864   000236  AE81               	btfss	129,7,c	;volatile
  1865   000238  EF20  F001         	goto	i2u480_41
  1866   00023C  EF22  F001         	goto	i2u480_40
  1867   000240                     i2u480_41:
  1868   000240  EF2F  F001         	goto	i2l508
  1869   000244                     i2u480_40:
  1870   000244  0432               	decf	_RB7_Flag^0,w,c	;volatile
  1871   000246  A4D8               	btfss	status,2,c
  1872   000248  EF28  F001         	goto	i2u481_41
  1873   00024C  EF2A  F001         	goto	i2u481_40
  1874   000250                     i2u481_41:
  1875   000250  EF2F  F001         	goto	i2l508
  1876   000254                     i2u481_40:
  1877   000254                     
  1878                           ;MCAL_Layer/interrupt/mcal_interrupt_manager.c: 100:     {;MCAL_Layer/interrupt/mcal_int
      +                          errupt_manager.c: 101:         RB7_Flag = 0;
  1879   000254  0E00               	movlw	0
  1880   000256  6E32               	movwf	_RB7_Flag^0,c	;volatile
  1881   000258                     
  1882                           ;MCAL_Layer/interrupt/mcal_interrupt_manager.c: 102:         RB7_ISR(1);
  1883   000258  0E01               	movlw	1
  1884   00025A  EC29  F00A         	call	_RB7_ISR
  1885   00025E                     i2l508:
  1886                           
  1887                           ;MCAL_Layer/interrupt/mcal_interrupt_manager.c: 105:     if ((INTCONbits.RBIE == 1) && (
      +                          INTCONbits.RBIF == 1) &&
  1888   00025E  A6F2               	btfss	242,3,c	;volatile
  1889   000260  EF34  F001         	goto	i2u482_41
  1890   000264  EF36  F001         	goto	i2u482_40
  1891   000268                     i2u482_41:
  1892   000268  EF51  F001         	goto	i2l511
  1893   00026C                     i2u482_40:
  1894   00026C  A0F2               	btfss	242,0,c	;volatile
  1895   00026E  EF3B  F001         	goto	i2u483_41
  1896   000272  EF3D  F001         	goto	i2u483_40
  1897   000276                     i2u483_41:
  1898   000276  EF51  F001         	goto	i2l511
  1899   00027A                     i2u483_40:
  1900   00027A  BE81               	btfsc	129,7,c	;volatile
  1901   00027C  EF42  F001         	goto	i2u484_41
  1902   000280  EF44  F001         	goto	i2u484_40
  1903   000284                     i2u484_41:
  1904   000284  EF51  F001         	goto	i2l511
  1905   000288                     i2u484_40:
  1906   000288  5032               	movf	_RB7_Flag^0,w,c	;volatile
  1907   00028A  A4D8               	btfss	status,2,c
  1908   00028C  EF4A  F001         	goto	i2u485_41
  1909   000290  EF4C  F001         	goto	i2u485_40
  1910   000294                     i2u485_41:
  1911   000294  EF51  F001         	goto	i2l511
  1912   000298                     i2u485_40:
  1913   000298                     
  1914                           ;MCAL_Layer/interrupt/mcal_interrupt_manager.c: 107:     {;MCAL_Layer/interrupt/mcal_int
      +                          errupt_manager.c: 108:         RB7_Flag = 1;
  1915   000298  0E01               	movlw	1
  1916   00029A  6E32               	movwf	_RB7_Flag^0,c	;volatile
  1917   00029C                     
  1918                           ;MCAL_Layer/interrupt/mcal_interrupt_manager.c: 109:         RB7_ISR(0);
  1919   00029C  0E00               	movlw	0
  1920   00029E  EC29  F00A         	call	_RB7_ISR
  1921   0002A2                     i2l511:
  1922   0002A2  C04B  FFF4         	movff	??_InterruptManager+5,prodh
  1923   0002A6  C04A  FFF3         	movff	??_InterruptManager+4,prodl
  1924   0002AA  C049  FFDA         	movff	??_InterruptManager+3,fsr2h
  1925   0002AE  C048  FFD9         	movff	??_InterruptManager+2,fsr2l
  1926   0002B2  C047  FFFB         	movff	??_InterruptManager+1,pclatu
  1927   0002B6  C046  FFFA         	movff	??_InterruptManager,pclath
  1928   0002BA  924D               	bcf	int$flags,1,c	;clear compiler interrupt flag (level 2)
  1929   0002BC  0011               	retfie		f
  1930   0002BE                     __end_of_InterruptManager:
  1931                           	callstack 0
  1932                           
  1933 ;; *************** function _RB7_ISR *****************
  1934 ;; Defined at:
  1935 ;;		line 168 in file "MCAL_Layer/interrupt/mcal_external_interrupt.c"
  1936 ;; Parameters:    Size  Location     Type
  1937 ;;  RB7_source      1    wreg     unsigned char 
  1938 ;; Auto vars:     Size  Location     Type
  1939 ;;  RB7_source      1   11[COMRAM] unsigned char 
  1940 ;; Return value:  Size  Location     Type
  1941 ;;                  1    wreg      void 
  1942 ;; Registers used:
  1943 ;;		wreg, fsr2l, fsr2h, status,2, status,0, pcl, pclath, pclatu, tosl, prodl, prodh, cstack
  1944 ;; Tracked objects:
  1945 ;;		On entry : 0/0
  1946 ;;		On exit  : 0/0
  1947 ;;		Unchanged: 0/0
  1948 ;; Data sizes:     COMRAM   BANK0   BANK1   BANK2   BANK3   BANK4   BANK5   BANK6   BANK7   BANK8   BANK9  BANK10  BANK1
      +1  BANK12  BANK13  BANK14  BANK15
  1949 ;;      Params:         0       0       0       0       0       0       0       0       0       0       0       0       
      +0       0       0       0       0
  1950 ;;      Locals:         1       0       0       0       0       0       0       0       0       0       0       0       
      +0       0       0       0       0
  1951 ;;      Temps:          0       0       0       0       0       0       0       0       0       0       0       0       
      +0       0       0       0       0
  1952 ;;      Totals:         1       0       0       0       0       0       0       0       0       0       0       0       
      +0       0       0       0       0
  1953 ;;Total ram usage:        1 bytes
  1954 ;; Hardware stack levels used: 1
  1955 ;; Hardware stack levels required when called: 3
  1956 ;; This function calls:
  1957 ;;		NULL
  1958 ;;		_RB4_Int_APP_ISR_HIGH
  1959 ;;		_RB4_Int_APP_ISR_LOW
  1960 ;;		_RB5_Int_APP_ISR_HIGH
  1961 ;;		_RB5_Int_APP_ISR_LOW
  1962 ;;		_RB6_Int_APP_ISR_HIGH
  1963 ;;		_RB6_Int_APP_ISR_LOW
  1964 ;;		_RB7_Int_APP_ISR_HIGH
  1965 ;;		_RB7_Int_APP_ISR_LOW
  1966 ;; This function is called by:
  1967 ;;		_InterruptManager
  1968 ;; This function uses a non-reentrant model
  1969 ;;
  1970                           
  1971                           	psect	text7
  1972   001452                     __ptext7:
  1973                           	callstack 0
  1974   001452                     _RB7_ISR:
  1975                           	callstack 23
  1976                           
  1977                           ;incstack = 0
  1978                           ;RB7_ISR@RB7_source stored from wreg
  1979   001452  6E45               	movwf	RB7_ISR@RB7_source^0,c
  1980   001454                     
  1981                           ;MCAL_Layer/interrupt/mcal_external_interrupt.c: 170:     (INTCONbits.RBIF = 0);
  1982   001454  90F2               	bcf	242,0,c	;volatile
  1983   001456                     
  1984                           ;MCAL_Layer/interrupt/mcal_external_interrupt.c: 175:     if (0 == RB7_source)
  1985   001456  5045               	movf	RB7_ISR@RB7_source^0,w,c
  1986   001458  A4D8               	btfss	status,2,c
  1987   00145A  EF31  F00A         	goto	i2u396_41
  1988   00145E  EF33  F00A         	goto	i2u396_40
  1989   001462                     i2u396_41:
  1990   001462  EF4A  F00A         	goto	i2l4089
  1991   001466                     i2u396_40:
  1992   001466                     
  1993                           ;MCAL_Layer/interrupt/mcal_external_interrupt.c: 176:     {;MCAL_Layer/interrupt/mcal_ex
      +                          ternal_interrupt.c: 177:         if (RB7_InterruptHandler_LOW){ RB7_InterruptHandler_LOW
      +                          ();}
  1994   001466  5001               	movf	_RB7_InterruptHandler_LOW^0,w,c
  1995   001468  1002               	iorwf	(_RB7_InterruptHandler_LOW+1)^0,w,c
  1996   00146A  B4D8               	btfsc	status,2,c
  1997   00146C  EF3A  F00A         	goto	i2u397_41
  1998   001470  EF3C  F00A         	goto	i2u397_40
  1999   001474                     i2u397_41:
  2000   001474  EF67  F00A         	goto	i2l610
  2001   001478                     i2u397_40:
  2002   001478  D802               	call	i2u398_48
  2003   00147A  EF48  F00A         	goto	i2u398_49
  2004   00147E                     i2u398_48:
  2005   00147E  0005               	push	
  2006   001480  6EFA               	movwf	pclath,c
  2007   001482  5001               	movf	_RB7_InterruptHandler_LOW^0,w,c
  2008   001484  6EFD               	movwf	tosl,c
  2009   001486  5002               	movf	(_RB7_InterruptHandler_LOW+1)^0,w,c
  2010   001488  6EFE               	movwf	tosh,c
  2011   00148A  6AFF               	clrf	tosu,c
  2012   00148C  50FA               	movf	pclath,w,c
  2013   00148E  0012               	return		;indir
  2014   001490                     i2u398_49:
  2015   001490  EF67  F00A         	goto	i2l610
  2016   001494                     i2l4089:
  2017   001494  0445               	decf	RB7_ISR@RB7_source^0,w,c
  2018   001496  A4D8               	btfss	status,2,c
  2019   001498  EF50  F00A         	goto	i2u399_41
  2020   00149C  EF52  F00A         	goto	i2u399_40
  2021   0014A0                     i2u399_41:
  2022   0014A0  EF67  F00A         	goto	i2l610
  2023   0014A4                     i2u399_40:
  2024   0014A4                     
  2025                           ;MCAL_Layer/interrupt/mcal_external_interrupt.c: 181:     {;MCAL_Layer/interrupt/mcal_ex
      +                          ternal_interrupt.c: 182:         if (RB7_InterruptHandler_HIGH){ RB7_InterruptHandler_HI
      +                          GH();}
  2026   0014A4  5003               	movf	_RB7_InterruptHandler_HIGH^0,w,c
  2027   0014A6  1004               	iorwf	(_RB7_InterruptHandler_HIGH+1)^0,w,c
  2028   0014A8  B4D8               	btfsc	status,2,c
  2029   0014AA  EF59  F00A         	goto	i2u400_41
  2030   0014AE  EF5B  F00A         	goto	i2u400_40
  2031   0014B2                     i2u400_41:
  2032   0014B2  EF67  F00A         	goto	i2l610
  2033   0014B6                     i2u400_40:
  2034   0014B6  D802               	call	i2u401_48
  2035   0014B8  EF67  F00A         	goto	i2u401_49
  2036   0014BC                     i2u401_48:
  2037   0014BC  0005               	push	
  2038   0014BE  6EFA               	movwf	pclath,c
  2039   0014C0  5003               	movf	_RB7_InterruptHandler_HIGH^0,w,c
  2040   0014C2  6EFD               	movwf	tosl,c
  2041   0014C4  5004               	movf	(_RB7_InterruptHandler_HIGH+1)^0,w,c
  2042   0014C6  6EFE               	movwf	tosh,c
  2043   0014C8  6AFF               	clrf	tosu,c
  2044   0014CA  50FA               	movf	pclath,w,c
  2045   0014CC  0012               	return		;indir
  2046   0014CE                     i2u401_49:
  2047   0014CE                     i2l610:
  2048   0014CE  0012               	return		;funcret
  2049   0014D0                     __end_of_RB7_ISR:
  2050                           	callstack 0
  2051                           
  2052 ;; *************** function _RB6_ISR *****************
  2053 ;; Defined at:
  2054 ;;		line 150 in file "MCAL_Layer/interrupt/mcal_external_interrupt.c"
  2055 ;; Parameters:    Size  Location     Type
  2056 ;;  RB6_source      1    wreg     unsigned char 
  2057 ;; Auto vars:     Size  Location     Type
  2058 ;;  RB6_source      1   11[COMRAM] unsigned char 
  2059 ;; Return value:  Size  Location     Type
  2060 ;;                  1    wreg      void 
  2061 ;; Registers used:
  2062 ;;		wreg, fsr2l, fsr2h, status,2, status,0, pcl, pclath, pclatu, tosl, prodl, prodh, cstack
  2063 ;; Tracked objects:
  2064 ;;		On entry : 0/0
  2065 ;;		On exit  : 0/0
  2066 ;;		Unchanged: 0/0
  2067 ;; Data sizes:     COMRAM   BANK0   BANK1   BANK2   BANK3   BANK4   BANK5   BANK6   BANK7   BANK8   BANK9  BANK10  BANK1
      +1  BANK12  BANK13  BANK14  BANK15
  2068 ;;      Params:         0       0       0       0       0       0       0       0       0       0       0       0       
      +0       0       0       0       0
  2069 ;;      Locals:         1       0       0       0       0       0       0       0       0       0       0       0       
      +0       0       0       0       0
  2070 ;;      Temps:          0       0       0       0       0       0       0       0       0       0       0       0       
      +0       0       0       0       0
  2071 ;;      Totals:         1       0       0       0       0       0       0       0       0       0       0       0       
      +0       0       0       0       0
  2072 ;;Total ram usage:        1 bytes
  2073 ;; Hardware stack levels used: 1
  2074 ;; Hardware stack levels required when called: 3
  2075 ;; This function calls:
  2076 ;;		NULL
  2077 ;;		_RB4_Int_APP_ISR_HIGH
  2078 ;;		_RB4_Int_APP_ISR_LOW
  2079 ;;		_RB5_Int_APP_ISR_HIGH
  2080 ;;		_RB5_Int_APP_ISR_LOW
  2081 ;;		_RB6_Int_APP_ISR_HIGH
  2082 ;;		_RB6_Int_APP_ISR_LOW
  2083 ;;		_RB7_Int_APP_ISR_HIGH
  2084 ;;		_RB7_Int_APP_ISR_LOW
  2085 ;; This function is called by:
  2086 ;;		_InterruptManager
  2087 ;; This function uses a non-reentrant model
  2088 ;;
  2089                           
  2090                           	psect	text8
  2091   0014D0                     __ptext8:
  2092                           	callstack 0
  2093   0014D0                     _RB6_ISR:
  2094                           	callstack 23
  2095                           
  2096                           ;incstack = 0
  2097                           ;RB6_ISR@RB6_source stored from wreg
  2098   0014D0  6E45               	movwf	RB6_ISR@RB6_source^0,c
  2099   0014D2                     
  2100                           ;MCAL_Layer/interrupt/mcal_external_interrupt.c: 152:     (INTCONbits.RBIF = 0);
  2101   0014D2  90F2               	bcf	242,0,c	;volatile
  2102   0014D4                     
  2103                           ;MCAL_Layer/interrupt/mcal_external_interrupt.c: 157:     if (0 == RB6_source)
  2104   0014D4  5045               	movf	RB6_ISR@RB6_source^0,w,c
  2105   0014D6  A4D8               	btfss	status,2,c
  2106   0014D8  EF70  F00A         	goto	i2u390_41
  2107   0014DC  EF72  F00A         	goto	i2u390_40
  2108   0014E0                     i2u390_41:
  2109   0014E0  EF89  F00A         	goto	i2l4075
  2110   0014E4                     i2u390_40:
  2111   0014E4                     
  2112                           ;MCAL_Layer/interrupt/mcal_external_interrupt.c: 158:     {;MCAL_Layer/interrupt/mcal_ex
      +                          ternal_interrupt.c: 159:         if (RB6_InterruptHandler_LOW){ RB6_InterruptHandler_LOW
      +                          ();}
  2113   0014E4  5005               	movf	_RB6_InterruptHandler_LOW^0,w,c
  2114   0014E6  1006               	iorwf	(_RB6_InterruptHandler_LOW+1)^0,w,c
  2115   0014E8  B4D8               	btfsc	status,2,c
  2116   0014EA  EF79  F00A         	goto	i2u391_41
  2117   0014EE  EF7B  F00A         	goto	i2u391_40
  2118   0014F2                     i2u391_41:
  2119   0014F2  EFA6  F00A         	goto	i2l600
  2120   0014F6                     i2u391_40:
  2121   0014F6  D802               	call	i2u392_48
  2122   0014F8  EF87  F00A         	goto	i2u392_49
  2123   0014FC                     i2u392_48:
  2124   0014FC  0005               	push	
  2125   0014FE  6EFA               	movwf	pclath,c
  2126   001500  5005               	movf	_RB6_InterruptHandler_LOW^0,w,c
  2127   001502  6EFD               	movwf	tosl,c
  2128   001504  5006               	movf	(_RB6_InterruptHandler_LOW+1)^0,w,c
  2129   001506  6EFE               	movwf	tosh,c
  2130   001508  6AFF               	clrf	tosu,c
  2131   00150A  50FA               	movf	pclath,w,c
  2132   00150C  0012               	return		;indir
  2133   00150E                     i2u392_49:
  2134   00150E  EFA6  F00A         	goto	i2l600
  2135   001512                     i2l4075:
  2136   001512  0445               	decf	RB6_ISR@RB6_source^0,w,c
  2137   001514  A4D8               	btfss	status,2,c
  2138   001516  EF8F  F00A         	goto	i2u393_41
  2139   00151A  EF91  F00A         	goto	i2u393_40
  2140   00151E                     i2u393_41:
  2141   00151E  EFA6  F00A         	goto	i2l600
  2142   001522                     i2u393_40:
  2143   001522                     
  2144                           ;MCAL_Layer/interrupt/mcal_external_interrupt.c: 163:     {;MCAL_Layer/interrupt/mcal_ex
      +                          ternal_interrupt.c: 164:         if (RB6_InterruptHandler_HIGH){ RB6_InterruptHandler_HI
      +                          GH();}
  2145   001522  5007               	movf	_RB6_InterruptHandler_HIGH^0,w,c
  2146   001524  1008               	iorwf	(_RB6_InterruptHandler_HIGH+1)^0,w,c
  2147   001526  B4D8               	btfsc	status,2,c
  2148   001528  EF98  F00A         	goto	i2u394_41
  2149   00152C  EF9A  F00A         	goto	i2u394_40
  2150   001530                     i2u394_41:
  2151   001530  EFA6  F00A         	goto	i2l600
  2152   001534                     i2u394_40:
  2153   001534  D802               	call	i2u395_48
  2154   001536  EFA6  F00A         	goto	i2u395_49
  2155   00153A                     i2u395_48:
  2156   00153A  0005               	push	
  2157   00153C  6EFA               	movwf	pclath,c
  2158   00153E  5007               	movf	_RB6_InterruptHandler_HIGH^0,w,c
  2159   001540  6EFD               	movwf	tosl,c
  2160   001542  5008               	movf	(_RB6_InterruptHandler_HIGH+1)^0,w,c
  2161   001544  6EFE               	movwf	tosh,c
  2162   001546  6AFF               	clrf	tosu,c
  2163   001548  50FA               	movf	pclath,w,c
  2164   00154A  0012               	return		;indir
  2165   00154C                     i2u395_49:
  2166   00154C                     i2l600:
  2167   00154C  0012               	return		;funcret
  2168   00154E                     __end_of_RB6_ISR:
  2169                           	callstack 0
  2170                           
  2171 ;; *************** function _RB5_ISR *****************
  2172 ;; Defined at:
  2173 ;;		line 132 in file "MCAL_Layer/interrupt/mcal_external_interrupt.c"
  2174 ;; Parameters:    Size  Location     Type
  2175 ;;  RB5_source      1    wreg     unsigned char 
  2176 ;; Auto vars:     Size  Location     Type
  2177 ;;  RB5_source      1   11[COMRAM] unsigned char 
  2178 ;; Return value:  Size  Location     Type
  2179 ;;                  1    wreg      void 
  2180 ;; Registers used:
  2181 ;;		wreg, fsr2l, fsr2h, status,2, status,0, pcl, pclath, pclatu, tosl, prodl, prodh, cstack
  2182 ;; Tracked objects:
  2183 ;;		On entry : 0/0
  2184 ;;		On exit  : 0/0
  2185 ;;		Unchanged: 0/0
  2186 ;; Data sizes:     COMRAM   BANK0   BANK1   BANK2   BANK3   BANK4   BANK5   BANK6   BANK7   BANK8   BANK9  BANK10  BANK1
      +1  BANK12  BANK13  BANK14  BANK15
  2187 ;;      Params:         0       0       0       0       0       0       0       0       0       0       0       0       
      +0       0       0       0       0
  2188 ;;      Locals:         1       0       0       0       0       0       0       0       0       0       0       0       
      +0       0       0       0       0
  2189 ;;      Temps:          0       0       0       0       0       0       0       0       0       0       0       0       
      +0       0       0       0       0
  2190 ;;      Totals:         1       0       0       0       0       0       0       0       0       0       0       0       
      +0       0       0       0       0
  2191 ;;Total ram usage:        1 bytes
  2192 ;; Hardware stack levels used: 1
  2193 ;; Hardware stack levels required when called: 3
  2194 ;; This function calls:
  2195 ;;		NULL
  2196 ;;		_RB4_Int_APP_ISR_HIGH
  2197 ;;		_RB4_Int_APP_ISR_LOW
  2198 ;;		_RB5_Int_APP_ISR_HIGH
  2199 ;;		_RB5_Int_APP_ISR_LOW
  2200 ;;		_RB6_Int_APP_ISR_HIGH
  2201 ;;		_RB6_Int_APP_ISR_LOW
  2202 ;;		_RB7_Int_APP_ISR_HIGH
  2203 ;;		_RB7_Int_APP_ISR_LOW
  2204 ;; This function is called by:
  2205 ;;		_InterruptManager
  2206 ;; This function uses a non-reentrant model
  2207 ;;
  2208                           
  2209                           	psect	text9
  2210   00154E                     __ptext9:
  2211                           	callstack 0
  2212   00154E                     _RB5_ISR:
  2213                           	callstack 23
  2214                           
  2215                           ;incstack = 0
  2216                           ;RB5_ISR@RB5_source stored from wreg
  2217   00154E  6E45               	movwf	RB5_ISR@RB5_source^0,c
  2218   001550                     
  2219                           ;MCAL_Layer/interrupt/mcal_external_interrupt.c: 134:     (INTCONbits.RBIF = 0);
  2220   001550  90F2               	bcf	242,0,c	;volatile
  2221   001552                     
  2222                           ;MCAL_Layer/interrupt/mcal_external_interrupt.c: 138:     if (0 == RB5_source)
  2223   001552  5045               	movf	RB5_ISR@RB5_source^0,w,c
  2224   001554  A4D8               	btfss	status,2,c
  2225   001556  EFAF  F00A         	goto	i2u384_41
  2226   00155A  EFB1  F00A         	goto	i2u384_40
  2227   00155E                     i2u384_41:
  2228   00155E  EFC8  F00A         	goto	i2l4061
  2229   001562                     i2u384_40:
  2230   001562                     
  2231                           ;MCAL_Layer/interrupt/mcal_external_interrupt.c: 139:     {;MCAL_Layer/interrupt/mcal_ex
      +                          ternal_interrupt.c: 140:         if (RB5_InterruptHandler_LOW){ RB5_InterruptHandler_LOW
      +                          ();}
  2232   001562  5009               	movf	_RB5_InterruptHandler_LOW^0,w,c
  2233   001564  100A               	iorwf	(_RB5_InterruptHandler_LOW+1)^0,w,c
  2234   001566  B4D8               	btfsc	status,2,c
  2235   001568  EFB8  F00A         	goto	i2u385_41
  2236   00156C  EFBA  F00A         	goto	i2u385_40
  2237   001570                     i2u385_41:
  2238   001570  EFE5  F00A         	goto	i2l590
  2239   001574                     i2u385_40:
  2240   001574  D802               	call	i2u386_48
  2241   001576  EFC6  F00A         	goto	i2u386_49
  2242   00157A                     i2u386_48:
  2243   00157A  0005               	push	
  2244   00157C  6EFA               	movwf	pclath,c
  2245   00157E  5009               	movf	_RB5_InterruptHandler_LOW^0,w,c
  2246   001580  6EFD               	movwf	tosl,c
  2247   001582  500A               	movf	(_RB5_InterruptHandler_LOW+1)^0,w,c
  2248   001584  6EFE               	movwf	tosh,c
  2249   001586  6AFF               	clrf	tosu,c
  2250   001588  50FA               	movf	pclath,w,c
  2251   00158A  0012               	return		;indir
  2252   00158C                     i2u386_49:
  2253   00158C  EFE5  F00A         	goto	i2l590
  2254   001590                     i2l4061:
  2255   001590  0445               	decf	RB5_ISR@RB5_source^0,w,c
  2256   001592  A4D8               	btfss	status,2,c
  2257   001594  EFCE  F00A         	goto	i2u387_41
  2258   001598  EFD0  F00A         	goto	i2u387_40
  2259   00159C                     i2u387_41:
  2260   00159C  EFE5  F00A         	goto	i2l590
  2261   0015A0                     i2u387_40:
  2262   0015A0                     
  2263                           ;MCAL_Layer/interrupt/mcal_external_interrupt.c: 144:     {;MCAL_Layer/interrupt/mcal_ex
      +                          ternal_interrupt.c: 145:         if (RB5_InterruptHandler_HIGH){ RB5_InterruptHandler_HI
      +                          GH();}
  2264   0015A0  500B               	movf	_RB5_InterruptHandler_HIGH^0,w,c
  2265   0015A2  100C               	iorwf	(_RB5_InterruptHandler_HIGH+1)^0,w,c
  2266   0015A4  B4D8               	btfsc	status,2,c
  2267   0015A6  EFD7  F00A         	goto	i2u388_41
  2268   0015AA  EFD9  F00A         	goto	i2u388_40
  2269   0015AE                     i2u388_41:
  2270   0015AE  EFE5  F00A         	goto	i2l590
  2271   0015B2                     i2u388_40:
  2272   0015B2  D802               	call	i2u389_48
  2273   0015B4  EFE5  F00A         	goto	i2u389_49
  2274   0015B8                     i2u389_48:
  2275   0015B8  0005               	push	
  2276   0015BA  6EFA               	movwf	pclath,c
  2277   0015BC  500B               	movf	_RB5_InterruptHandler_HIGH^0,w,c
  2278   0015BE  6EFD               	movwf	tosl,c
  2279   0015C0  500C               	movf	(_RB5_InterruptHandler_HIGH+1)^0,w,c
  2280   0015C2  6EFE               	movwf	tosh,c
  2281   0015C4  6AFF               	clrf	tosu,c
  2282   0015C6  50FA               	movf	pclath,w,c
  2283   0015C8  0012               	return		;indir
  2284   0015CA                     i2u389_49:
  2285   0015CA                     i2l590:
  2286   0015CA  0012               	return		;funcret
  2287   0015CC                     __end_of_RB5_ISR:
  2288                           	callstack 0
  2289                           
  2290 ;; *************** function _RB4_ISR *****************
  2291 ;; Defined at:
  2292 ;;		line 114 in file "MCAL_Layer/interrupt/mcal_external_interrupt.c"
  2293 ;; Parameters:    Size  Location     Type
  2294 ;;  RB4_source      1    wreg     unsigned char 
  2295 ;; Auto vars:     Size  Location     Type
  2296 ;;  RB4_source      1   11[COMRAM] unsigned char 
  2297 ;; Return value:  Size  Location     Type
  2298 ;;                  1    wreg      void 
  2299 ;; Registers used:
  2300 ;;		wreg, fsr2l, fsr2h, status,2, status,0, pcl, pclath, pclatu, tosl, prodl, prodh, cstack
  2301 ;; Tracked objects:
  2302 ;;		On entry : 0/0
  2303 ;;		On exit  : 0/0
  2304 ;;		Unchanged: 0/0
  2305 ;; Data sizes:     COMRAM   BANK0   BANK1   BANK2   BANK3   BANK4   BANK5   BANK6   BANK7   BANK8   BANK9  BANK10  BANK1
      +1  BANK12  BANK13  BANK14  BANK15
  2306 ;;      Params:         0       0       0       0       0       0       0       0       0       0       0       0       
      +0       0       0       0       0
  2307 ;;      Locals:         1       0       0       0       0       0       0       0       0       0       0       0       
      +0       0       0       0       0
  2308 ;;      Temps:          0       0       0       0       0       0       0       0       0       0       0       0       
      +0       0       0       0       0
  2309 ;;      Totals:         1       0       0       0       0       0       0       0       0       0       0       0       
      +0       0       0       0       0
  2310 ;;Total ram usage:        1 bytes
  2311 ;; Hardware stack levels used: 1
  2312 ;; Hardware stack levels required when called: 3
  2313 ;; This function calls:
  2314 ;;		NULL
  2315 ;;		_RB4_Int_APP_ISR_HIGH
  2316 ;;		_RB4_Int_APP_ISR_LOW
  2317 ;;		_RB5_Int_APP_ISR_HIGH
  2318 ;;		_RB5_Int_APP_ISR_LOW
  2319 ;;		_RB6_Int_APP_ISR_HIGH
  2320 ;;		_RB6_Int_APP_ISR_LOW
  2321 ;;		_RB7_Int_APP_ISR_HIGH
  2322 ;;		_RB7_Int_APP_ISR_LOW
  2323 ;; This function is called by:
  2324 ;;		_InterruptManager
  2325 ;; This function uses a non-reentrant model
  2326 ;;
  2327                           
  2328                           	psect	text10
  2329   0015CC                     __ptext10:
  2330                           	callstack 0
  2331   0015CC                     _RB4_ISR:
  2332                           	callstack 23
  2333                           
  2334                           ;incstack = 0
  2335                           ;RB4_ISR@RB4_source stored from wreg
  2336   0015CC  6E45               	movwf	RB4_ISR@RB4_source^0,c
  2337   0015CE                     
  2338                           ;MCAL_Layer/interrupt/mcal_external_interrupt.c: 116:     (INTCONbits.RBIF = 0);
  2339   0015CE  90F2               	bcf	242,0,c	;volatile
  2340   0015D0                     
  2341                           ;MCAL_Layer/interrupt/mcal_external_interrupt.c: 120:     if (0 == RB4_source)
  2342   0015D0  5045               	movf	RB4_ISR@RB4_source^0,w,c
  2343   0015D2  A4D8               	btfss	status,2,c
  2344   0015D4  EFEE  F00A         	goto	i2u378_41
  2345   0015D8  EFF0  F00A         	goto	i2u378_40
  2346   0015DC                     i2u378_41:
  2347   0015DC  EF07  F00B         	goto	i2l4047
  2348   0015E0                     i2u378_40:
  2349   0015E0                     
  2350                           ;MCAL_Layer/interrupt/mcal_external_interrupt.c: 121:     {;MCAL_Layer/interrupt/mcal_ex
      +                          ternal_interrupt.c: 122:         if (RB4_InterruptHandler_LOW){ RB4_InterruptHandler_LOW
      +                          ();}
  2351   0015E0  500D               	movf	_RB4_InterruptHandler_LOW^0,w,c
  2352   0015E2  100E               	iorwf	(_RB4_InterruptHandler_LOW+1)^0,w,c
  2353   0015E4  B4D8               	btfsc	status,2,c
  2354   0015E6  EFF7  F00A         	goto	i2u379_41
  2355   0015EA  EFF9  F00A         	goto	i2u379_40
  2356   0015EE                     i2u379_41:
  2357   0015EE  EF24  F00B         	goto	i2l580
  2358   0015F2                     i2u379_40:
  2359   0015F2  D802               	call	i2u380_48
  2360   0015F4  EF05  F00B         	goto	i2u380_49
  2361   0015F8                     i2u380_48:
  2362   0015F8  0005               	push	
  2363   0015FA  6EFA               	movwf	pclath,c
  2364   0015FC  500D               	movf	_RB4_InterruptHandler_LOW^0,w,c
  2365   0015FE  6EFD               	movwf	tosl,c
  2366   001600  500E               	movf	(_RB4_InterruptHandler_LOW+1)^0,w,c
  2367   001602  6EFE               	movwf	tosh,c
  2368   001604  6AFF               	clrf	tosu,c
  2369   001606  50FA               	movf	pclath,w,c
  2370   001608  0012               	return		;indir
  2371   00160A                     i2u380_49:
  2372   00160A  EF24  F00B         	goto	i2l580
  2373   00160E                     i2l4047:
  2374   00160E  0445               	decf	RB4_ISR@RB4_source^0,w,c
  2375   001610  A4D8               	btfss	status,2,c
  2376   001612  EF0D  F00B         	goto	i2u381_41
  2377   001616  EF0F  F00B         	goto	i2u381_40
  2378   00161A                     i2u381_41:
  2379   00161A  EF24  F00B         	goto	i2l580
  2380   00161E                     i2u381_40:
  2381   00161E                     
  2382                           ;MCAL_Layer/interrupt/mcal_external_interrupt.c: 126:     {;MCAL_Layer/interrupt/mcal_ex
      +                          ternal_interrupt.c: 127:         if (RB4_InterruptHandler_HIGH){ RB4_InterruptHandler_HI
      +                          GH();}
  2383   00161E  500F               	movf	_RB4_InterruptHandler_HIGH^0,w,c
  2384   001620  1010               	iorwf	(_RB4_InterruptHandler_HIGH+1)^0,w,c
  2385   001622  B4D8               	btfsc	status,2,c
  2386   001624  EF16  F00B         	goto	i2u382_41
  2387   001628  EF18  F00B         	goto	i2u382_40
  2388   00162C                     i2u382_41:
  2389   00162C  EF24  F00B         	goto	i2l580
  2390   001630                     i2u382_40:
  2391   001630  D802               	call	i2u383_48
  2392   001632  EF24  F00B         	goto	i2u383_49
  2393   001636                     i2u383_48:
  2394   001636  0005               	push	
  2395   001638  6EFA               	movwf	pclath,c
  2396   00163A  500F               	movf	_RB4_InterruptHandler_HIGH^0,w,c
  2397   00163C  6EFD               	movwf	tosl,c
  2398   00163E  5010               	movf	(_RB4_InterruptHandler_HIGH+1)^0,w,c
  2399   001640  6EFE               	movwf	tosh,c
  2400   001642  6AFF               	clrf	tosu,c
  2401   001644  50FA               	movf	pclath,w,c
  2402   001646  0012               	return		;indir
  2403   001648                     i2u383_49:
  2404   001648                     i2l580:
  2405   001648  0012               	return		;funcret
  2406   00164A                     __end_of_RB4_ISR:
  2407                           	callstack 0
  2408                           
  2409 ;; *************** function _RB6_Int_APP_ISR_LOW *****************
  2410 ;; Defined at:
  2411 ;;		line 132 in file "application.c"
  2412 ;; Parameters:    Size  Location     Type
  2413 ;;		None
  2414 ;; Auto vars:     Size  Location     Type
  2415 ;;		None
  2416 ;; Return value:  Size  Location     Type
  2417 ;;                  1    wreg      void 
  2418 ;; Registers used:
  2419 ;;		wreg, fsr2l, fsr2h, status,2, status,0, prodl, prodh, cstack
  2420 ;; Tracked objects:
  2421 ;;		On entry : 0/0
  2422 ;;		On exit  : 0/0
  2423 ;;		Unchanged: 0/0
  2424 ;; Data sizes:     COMRAM   BANK0   BANK1   BANK2   BANK3   BANK4   BANK5   BANK6   BANK7   BANK8   BANK9  BANK10  BANK1
      +1  BANK12  BANK13  BANK14  BANK15
  2425 ;;      Params:         0       0       0       0       0       0       0       0       0       0       0       0       
      +0       0       0       0       0
  2426 ;;      Locals:         0       0       0       0       0       0       0       0       0       0       0       0       
      +0       0       0       0       0
  2427 ;;      Temps:          0       0       0       0       0       0       0       0       0       0       0       0       
      +0       0       0       0       0
  2428 ;;      Totals:         0       0       0       0       0       0       0       0       0       0       0       0       
      +0       0       0       0       0
  2429 ;;Total ram usage:        0 bytes
  2430 ;; Hardware stack levels used: 1
  2431 ;; Hardware stack levels required when called: 2
  2432 ;; This function calls:
  2433 ;;		_led_turn_on
  2434 ;; This function is called by:
  2435 ;;		_RB4_ISR
  2436 ;;		_RB5_ISR
  2437 ;;		_RB6_ISR
  2438 ;;		_RB7_ISR
  2439 ;; This function uses a non-reentrant model
  2440 ;;
  2441                           
  2442                           	psect	text11
  2443   001908                     __ptext11:
  2444                           	callstack 0
  2445   001908                     _RB6_Int_APP_ISR_LOW:
  2446                           	callstack 23
  2447   001908                     
  2448                           ;application.c: 133:     ret = led_turn_on(&led_4);
  2449   001908  0E36               	movlw	low _led_4
  2450   00190A  6E41               	movwf	led_turn_on@led^0,c
  2451   00190C  EC9A  F00B         	call	_led_turn_on	;wreg free
  2452   001910  6E4C               	movwf	_ret^0,c
  2453   001912  0012               	return		;funcret
  2454   001914                     __end_of_RB6_Int_APP_ISR_LOW:
  2455                           	callstack 0
  2456                           
  2457 ;; *************** function _RB5_Int_APP_ISR_LOW *****************
  2458 ;; Defined at:
  2459 ;;		line 124 in file "application.c"
  2460 ;; Parameters:    Size  Location     Type
  2461 ;;		None
  2462 ;; Auto vars:     Size  Location     Type
  2463 ;;		None
  2464 ;; Return value:  Size  Location     Type
  2465 ;;                  1    wreg      void 
  2466 ;; Registers used:
  2467 ;;		wreg, fsr2l, fsr2h, status,2, status,0, prodl, prodh, cstack
  2468 ;; Tracked objects:
  2469 ;;		On entry : 0/0
  2470 ;;		On exit  : 0/0
  2471 ;;		Unchanged: 0/0
  2472 ;; Data sizes:     COMRAM   BANK0   BANK1   BANK2   BANK3   BANK4   BANK5   BANK6   BANK7   BANK8   BANK9  BANK10  BANK1
      +1  BANK12  BANK13  BANK14  BANK15
  2473 ;;      Params:         0       0       0       0       0       0       0       0       0       0       0       0       
      +0       0       0       0       0
  2474 ;;      Locals:         0       0       0       0       0       0       0       0       0       0       0       0       
      +0       0       0       0       0
  2475 ;;      Temps:          0       0       0       0       0       0       0       0       0       0       0       0       
      +0       0       0       0       0
  2476 ;;      Totals:         0       0       0       0       0       0       0       0       0       0       0       0       
      +0       0       0       0       0
  2477 ;;Total ram usage:        0 bytes
  2478 ;; Hardware stack levels used: 1
  2479 ;; Hardware stack levels required when called: 2
  2480 ;; This function calls:
  2481 ;;		_led_turn_off
  2482 ;; This function is called by:
  2483 ;;		_RB4_ISR
  2484 ;;		_RB5_ISR
  2485 ;;		_RB6_ISR
  2486 ;;		_RB7_ISR
  2487 ;; This function uses a non-reentrant model
  2488 ;;
  2489                           
  2490                           	psect	text12
  2491   001914                     __ptext12:
  2492                           	callstack 0
  2493   001914                     _RB5_Int_APP_ISR_LOW:
  2494                           	callstack 23
  2495   001914                     
  2496                           ;application.c: 125:     ret = led_turn_off(&led_2);
  2497   001914  0E38               	movlw	low _led_2
  2498   001916  6E41               	movwf	led_turn_off@led^0,c
  2499   001918  EC60  F00B         	call	_led_turn_off	;wreg free
  2500   00191C  6E4C               	movwf	_ret^0,c
  2501   00191E  0012               	return		;funcret
  2502   001920                     __end_of_RB5_Int_APP_ISR_LOW:
  2503                           	callstack 0
  2504                           
  2505 ;; *************** function _RB4_Int_APP_ISR_LOW *****************
  2506 ;; Defined at:
  2507 ;;		line 116 in file "application.c"
  2508 ;; Parameters:    Size  Location     Type
  2509 ;;		None
  2510 ;; Auto vars:     Size  Location     Type
  2511 ;;		None
  2512 ;; Return value:  Size  Location     Type
  2513 ;;                  1    wreg      void 
  2514 ;; Registers used:
  2515 ;;		wreg, fsr2l, fsr2h, status,2, status,0, prodl, prodh, cstack
  2516 ;; Tracked objects:
  2517 ;;		On entry : 0/0
  2518 ;;		On exit  : 0/0
  2519 ;;		Unchanged: 0/0
  2520 ;; Data sizes:     COMRAM   BANK0   BANK1   BANK2   BANK3   BANK4   BANK5   BANK6   BANK7   BANK8   BANK9  BANK10  BANK1
      +1  BANK12  BANK13  BANK14  BANK15
  2521 ;;      Params:         0       0       0       0       0       0       0       0       0       0       0       0       
      +0       0       0       0       0
  2522 ;;      Locals:         0       0       0       0       0       0       0       0       0       0       0       0       
      +0       0       0       0       0
  2523 ;;      Temps:          0       0       0       0       0       0       0       0       0       0       0       0       
      +0       0       0       0       0
  2524 ;;      Totals:         0       0       0       0       0       0       0       0       0       0       0       0       
      +0       0       0       0       0
  2525 ;;Total ram usage:        0 bytes
  2526 ;; Hardware stack levels used: 1
  2527 ;; Hardware stack levels required when called: 2
  2528 ;; This function calls:
  2529 ;;		_led_turn_on
  2530 ;; This function is called by:
  2531 ;;		_RB4_ISR
  2532 ;;		_RB5_ISR
  2533 ;;		_RB6_ISR
  2534 ;;		_RB7_ISR
  2535 ;; This function uses a non-reentrant model
  2536 ;;
  2537                           
  2538                           	psect	text13
  2539   001920                     __ptext13:
  2540                           	callstack 0
  2541   001920                     _RB4_Int_APP_ISR_LOW:
  2542                           	callstack 23
  2543   001920                     
  2544                           ;application.c: 117:     ret = led_turn_on(&led_2);
  2545   001920  0E38               	movlw	low _led_2
  2546   001922  6E41               	movwf	led_turn_on@led^0,c
  2547   001924  EC9A  F00B         	call	_led_turn_on	;wreg free
  2548   001928  6E4C               	movwf	_ret^0,c
  2549   00192A  0012               	return		;funcret
  2550   00192C                     __end_of_RB4_Int_APP_ISR_LOW:
  2551                           	callstack 0
  2552                           
  2553 ;; *************** function _RB7_Int_APP_ISR_LOW *****************
  2554 ;; Defined at:
  2555 ;;		line 140 in file "application.c"
  2556 ;; Parameters:    Size  Location     Type
  2557 ;;		None
  2558 ;; Auto vars:     Size  Location     Type
  2559 ;;		None
  2560 ;; Return value:  Size  Location     Type
  2561 ;;                  1    wreg      void 
  2562 ;; Registers used:
  2563 ;;		wreg, fsr2l, fsr2h, status,2, status,0, prodl, prodh, cstack
  2564 ;; Tracked objects:
  2565 ;;		On entry : 0/0
  2566 ;;		On exit  : 0/0
  2567 ;;		Unchanged: 0/0
  2568 ;; Data sizes:     COMRAM   BANK0   BANK1   BANK2   BANK3   BANK4   BANK5   BANK6   BANK7   BANK8   BANK9  BANK10  BANK1
      +1  BANK12  BANK13  BANK14  BANK15
  2569 ;;      Params:         0       0       0       0       0       0       0       0       0       0       0       0       
      +0       0       0       0       0
  2570 ;;      Locals:         0       0       0       0       0       0       0       0       0       0       0       0       
      +0       0       0       0       0
  2571 ;;      Temps:          0       0       0       0       0       0       0       0       0       0       0       0       
      +0       0       0       0       0
  2572 ;;      Totals:         0       0       0       0       0       0       0       0       0       0       0       0       
      +0       0       0       0       0
  2573 ;;Total ram usage:        0 bytes
  2574 ;; Hardware stack levels used: 1
  2575 ;; Hardware stack levels required when called: 2
  2576 ;; This function calls:
  2577 ;;		_led_turn_off
  2578 ;; This function is called by:
  2579 ;;		_RB4_ISR
  2580 ;;		_RB5_ISR
  2581 ;;		_RB6_ISR
  2582 ;;		_RB7_ISR
  2583 ;; This function uses a non-reentrant model
  2584 ;;
  2585                           
  2586                           	psect	text14
  2587   00192C                     __ptext14:
  2588                           	callstack 0
  2589   00192C                     _RB7_Int_APP_ISR_LOW:
  2590                           	callstack 23
  2591   00192C                     
  2592                           ;application.c: 141:     ret = led_turn_off(&led_4);
  2593   00192C  0E36               	movlw	low _led_4
  2594   00192E  6E41               	movwf	led_turn_off@led^0,c
  2595   001930  EC60  F00B         	call	_led_turn_off	;wreg free
  2596   001934  6E4C               	movwf	_ret^0,c
  2597   001936  0012               	return		;funcret
  2598   001938                     __end_of_RB7_Int_APP_ISR_LOW:
  2599                           	callstack 0
  2600                           
  2601 ;; *************** function _RB6_Int_APP_ISR_HIGH *****************
  2602 ;; Defined at:
  2603 ;;		line 128 in file "application.c"
  2604 ;; Parameters:    Size  Location     Type
  2605 ;;		None
  2606 ;; Auto vars:     Size  Location     Type
  2607 ;;		None
  2608 ;; Return value:  Size  Location     Type
  2609 ;;                  1    wreg      void 
  2610 ;; Registers used:
  2611 ;;		wreg, fsr2l, fsr2h, status,2, status,0, prodl, prodh, cstack
  2612 ;; Tracked objects:
  2613 ;;		On entry : 0/0
  2614 ;;		On exit  : 0/0
  2615 ;;		Unchanged: 0/0
  2616 ;; Data sizes:     COMRAM   BANK0   BANK1   BANK2   BANK3   BANK4   BANK5   BANK6   BANK7   BANK8   BANK9  BANK10  BANK1
      +1  BANK12  BANK13  BANK14  BANK15
  2617 ;;      Params:         0       0       0       0       0       0       0       0       0       0       0       0       
      +0       0       0       0       0
  2618 ;;      Locals:         0       0       0       0       0       0       0       0       0       0       0       0       
      +0       0       0       0       0
  2619 ;;      Temps:          0       0       0       0       0       0       0       0       0       0       0       0       
      +0       0       0       0       0
  2620 ;;      Totals:         0       0       0       0       0       0       0       0       0       0       0       0       
      +0       0       0       0       0
  2621 ;;Total ram usage:        0 bytes
  2622 ;; Hardware stack levels used: 1
  2623 ;; Hardware stack levels required when called: 2
  2624 ;; This function calls:
  2625 ;;		_led_turn_on
  2626 ;; This function is called by:
  2627 ;;		_RB4_ISR
  2628 ;;		_RB5_ISR
  2629 ;;		_RB6_ISR
  2630 ;;		_RB7_ISR
  2631 ;; This function uses a non-reentrant model
  2632 ;;
  2633                           
  2634                           	psect	text15
  2635   001938                     __ptext15:
  2636                           	callstack 0
  2637   001938                     _RB6_Int_APP_ISR_HIGH:
  2638                           	callstack 23
  2639   001938                     
  2640                           ;application.c: 129:     ret = led_turn_on(&led_3);
  2641   001938  0E37               	movlw	low _led_3
  2642   00193A  6E41               	movwf	led_turn_on@led^0,c
  2643   00193C  EC9A  F00B         	call	_led_turn_on	;wreg free
  2644   001940  6E4C               	movwf	_ret^0,c
  2645   001942  0012               	return		;funcret
  2646   001944                     __end_of_RB6_Int_APP_ISR_HIGH:
  2647                           	callstack 0
  2648                           
  2649 ;; *************** function _RB5_Int_APP_ISR_HIGH *****************
  2650 ;; Defined at:
  2651 ;;		line 120 in file "application.c"
  2652 ;; Parameters:    Size  Location     Type
  2653 ;;		None
  2654 ;; Auto vars:     Size  Location     Type
  2655 ;;		None
  2656 ;; Return value:  Size  Location     Type
  2657 ;;                  1    wreg      void 
  2658 ;; Registers used:
  2659 ;;		wreg, fsr2l, fsr2h, status,2, status,0, prodl, prodh, cstack
  2660 ;; Tracked objects:
  2661 ;;		On entry : 0/0
  2662 ;;		On exit  : 0/0
  2663 ;;		Unchanged: 0/0
  2664 ;; Data sizes:     COMRAM   BANK0   BANK1   BANK2   BANK3   BANK4   BANK5   BANK6   BANK7   BANK8   BANK9  BANK10  BANK1
      +1  BANK12  BANK13  BANK14  BANK15
  2665 ;;      Params:         0       0       0       0       0       0       0       0       0       0       0       0       
      +0       0       0       0       0
  2666 ;;      Locals:         0       0       0       0       0       0       0       0       0       0       0       0       
      +0       0       0       0       0
  2667 ;;      Temps:          0       0       0       0       0       0       0       0       0       0       0       0       
      +0       0       0       0       0
  2668 ;;      Totals:         0       0       0       0       0       0       0       0       0       0       0       0       
      +0       0       0       0       0
  2669 ;;Total ram usage:        0 bytes
  2670 ;; Hardware stack levels used: 1
  2671 ;; Hardware stack levels required when called: 2
  2672 ;; This function calls:
  2673 ;;		_led_turn_off
  2674 ;; This function is called by:
  2675 ;;		_RB4_ISR
  2676 ;;		_RB5_ISR
  2677 ;;		_RB6_ISR
  2678 ;;		_RB7_ISR
  2679 ;; This function uses a non-reentrant model
  2680 ;;
  2681                           
  2682                           	psect	text16
  2683   001944                     __ptext16:
  2684                           	callstack 0
  2685   001944                     _RB5_Int_APP_ISR_HIGH:
  2686                           	callstack 23
  2687   001944                     
  2688                           ;application.c: 121:     ret = led_turn_off(&led_1);
  2689   001944  0E39               	movlw	low _led_1
  2690   001946  6E41               	movwf	led_turn_off@led^0,c
  2691   001948  EC60  F00B         	call	_led_turn_off	;wreg free
  2692   00194C  6E4C               	movwf	_ret^0,c
  2693   00194E  0012               	return		;funcret
  2694   001950                     __end_of_RB5_Int_APP_ISR_HIGH:
  2695                           	callstack 0
  2696                           
  2697 ;; *************** function _RB4_Int_APP_ISR_HIGH *****************
  2698 ;; Defined at:
  2699 ;;		line 112 in file "application.c"
  2700 ;; Parameters:    Size  Location     Type
  2701 ;;		None
  2702 ;; Auto vars:     Size  Location     Type
  2703 ;;		None
  2704 ;; Return value:  Size  Location     Type
  2705 ;;                  1    wreg      void 
  2706 ;; Registers used:
  2707 ;;		wreg, fsr2l, fsr2h, status,2, status,0, prodl, prodh, cstack
  2708 ;; Tracked objects:
  2709 ;;		On entry : 0/0
  2710 ;;		On exit  : 0/0
  2711 ;;		Unchanged: 0/0
  2712 ;; Data sizes:     COMRAM   BANK0   BANK1   BANK2   BANK3   BANK4   BANK5   BANK6   BANK7   BANK8   BANK9  BANK10  BANK1
      +1  BANK12  BANK13  BANK14  BANK15
  2713 ;;      Params:         0       0       0       0       0       0       0       0       0       0       0       0       
      +0       0       0       0       0
  2714 ;;      Locals:         0       0       0       0       0       0       0       0       0       0       0       0       
      +0       0       0       0       0
  2715 ;;      Temps:          0       0       0       0       0       0       0       0       0       0       0       0       
      +0       0       0       0       0
  2716 ;;      Totals:         0       0       0       0       0       0       0       0       0       0       0       0       
      +0       0       0       0       0
  2717 ;;Total ram usage:        0 bytes
  2718 ;; Hardware stack levels used: 1
  2719 ;; Hardware stack levels required when called: 2
  2720 ;; This function calls:
  2721 ;;		_led_turn_on
  2722 ;; This function is called by:
  2723 ;;		_RB4_ISR
  2724 ;;		_RB5_ISR
  2725 ;;		_RB6_ISR
  2726 ;;		_RB7_ISR
  2727 ;; This function uses a non-reentrant model
  2728 ;;
  2729                           
  2730                           	psect	text17
  2731   001950                     __ptext17:
  2732                           	callstack 0
  2733   001950                     _RB4_Int_APP_ISR_HIGH:
  2734                           	callstack 23
  2735   001950                     
  2736                           ;application.c: 113:     ret = led_turn_on(&led_1);
  2737   001950  0E39               	movlw	low _led_1
  2738   001952  6E41               	movwf	led_turn_on@led^0,c
  2739   001954  EC9A  F00B         	call	_led_turn_on	;wreg free
  2740   001958  6E4C               	movwf	_ret^0,c
  2741   00195A  0012               	return		;funcret
  2742   00195C                     __end_of_RB4_Int_APP_ISR_HIGH:
  2743                           	callstack 0
  2744                           
  2745 ;; *************** function _RB7_Int_APP_ISR_HIGH *****************
  2746 ;; Defined at:
  2747 ;;		line 136 in file "application.c"
  2748 ;; Parameters:    Size  Location     Type
  2749 ;;		None
  2750 ;; Auto vars:     Size  Location     Type
  2751 ;;		None
  2752 ;; Return value:  Size  Location     Type
  2753 ;;                  1    wreg      void 
  2754 ;; Registers used:
  2755 ;;		wreg, fsr2l, fsr2h, status,2, status,0, prodl, prodh, cstack
  2756 ;; Tracked objects:
  2757 ;;		On entry : 0/0
  2758 ;;		On exit  : 0/0
  2759 ;;		Unchanged: 0/0
  2760 ;; Data sizes:     COMRAM   BANK0   BANK1   BANK2   BANK3   BANK4   BANK5   BANK6   BANK7   BANK8   BANK9  BANK10  BANK1
      +1  BANK12  BANK13  BANK14  BANK15
  2761 ;;      Params:         0       0       0       0       0       0       0       0       0       0       0       0       
      +0       0       0       0       0
  2762 ;;      Locals:         0       0       0       0       0       0       0       0       0       0       0       0       
      +0       0       0       0       0
  2763 ;;      Temps:          0       0       0       0       0       0       0       0       0       0       0       0       
      +0       0       0       0       0
  2764 ;;      Totals:         0       0       0       0       0       0       0       0       0       0       0       0       
      +0       0       0       0       0
  2765 ;;Total ram usage:        0 bytes
  2766 ;; Hardware stack levels used: 1
  2767 ;; Hardware stack levels required when called: 2
  2768 ;; This function calls:
  2769 ;;		_led_turn_off
  2770 ;; This function is called by:
  2771 ;;		_RB4_ISR
  2772 ;;		_RB5_ISR
  2773 ;;		_RB6_ISR
  2774 ;;		_RB7_ISR
  2775 ;; This function uses a non-reentrant model
  2776 ;;
  2777                           
  2778                           	psect	text18
  2779   00195C                     __ptext18:
  2780                           	callstack 0
  2781   00195C                     _RB7_Int_APP_ISR_HIGH:
  2782                           	callstack 23
  2783   00195C                     
  2784                           ;application.c: 137:     ret = led_turn_off(&led_3);
  2785   00195C  0E37               	movlw	low _led_3
  2786   00195E  6E41               	movwf	led_turn_off@led^0,c
  2787   001960  EC60  F00B         	call	_led_turn_off	;wreg free
  2788   001964  6E4C               	movwf	_ret^0,c
  2789   001966  0012               	return		;funcret
  2790   001968                     __end_of_RB7_Int_APP_ISR_HIGH:
  2791                           	callstack 0
  2792                           
  2793 ;; *************** function _led_turn_off *****************
  2794 ;; Defined at:
  2795 ;;		line 72 in file "ECU_Layer/LED/ecu_led.c"
  2796 ;; Parameters:    Size  Location     Type
  2797 ;;  led             1    7[COMRAM] PTR const struct .
  2798 ;;		 -> led_4(1), led_3(1), led_2(1), led_1(1), 
  2799 ;; Auto vars:     Size  Location     Type
  2800 ;;  pin_obj         1   10[COMRAM] struct .
  2801 ;;  ret             1    9[COMRAM] unsigned char 
  2802 ;; Return value:  Size  Location     Type
  2803 ;;                  1    wreg      unsigned char 
  2804 ;; Registers used:
  2805 ;;		wreg, fsr2l, fsr2h, status,2, status,0, prodl, prodh, cstack
  2806 ;; Tracked objects:
  2807 ;;		On entry : 0/0
  2808 ;;		On exit  : 0/0
  2809 ;;		Unchanged: 0/0
  2810 ;; Data sizes:     COMRAM   BANK0   BANK1   BANK2   BANK3   BANK4   BANK5   BANK6   BANK7   BANK8   BANK9  BANK10  BANK1
      +1  BANK12  BANK13  BANK14  BANK15
  2811 ;;      Params:         1       0       0       0       0       0       0       0       0       0       0       0       
      +0       0       0       0       0
  2812 ;;      Locals:         2       0       0       0       0       0       0       0       0       0       0       0       
      +0       0       0       0       0
  2813 ;;      Temps:          1       0       0       0       0       0       0       0       0       0       0       0       
      +0       0       0       0       0
  2814 ;;      Totals:         4       0       0       0       0       0       0       0       0       0       0       0       
      +0       0       0       0       0
  2815 ;;Total ram usage:        4 bytes
  2816 ;; Hardware stack levels used: 1
  2817 ;; Hardware stack levels required when called: 1
  2818 ;; This function calls:
  2819 ;;		i2_gpio_pin_write_logic
  2820 ;; This function is called by:
  2821 ;;		_RB5_Int_APP_ISR_HIGH
  2822 ;;		_RB5_Int_APP_ISR_LOW
  2823 ;;		_RB7_Int_APP_ISR_HIGH
  2824 ;;		_RB7_Int_APP_ISR_LOW
  2825 ;; This function uses a non-reentrant model
  2826 ;;
  2827                           
  2828                           	psect	text19
  2829   0016C0                     __ptext19:
  2830                           	callstack 0
  2831   0016C0                     _led_turn_off:
  2832                           	callstack 23
  2833   0016C0                     
  2834                           ;ECU_Layer/LED/ecu_led.c: 73:     Std_ReturnType ret = (Std_ReturnType)0x01;
  2835   0016C0  0E01               	movlw	1
  2836   0016C2  6E43               	movwf	led_turn_off@ret^0,c
  2837                           
  2838                           ;ECU_Layer/LED/ecu_led.c: 74:     if (led == ((void*)0))
  2839   0016C4  5041               	movf	led_turn_off@led^0,w,c
  2840   0016C6  A4D8               	btfss	status,2,c
  2841   0016C8  EF68  F00B         	goto	i2u359_41
  2842   0016CC  EF6A  F00B         	goto	i2u359_40
  2843   0016D0                     i2u359_41:
  2844   0016D0  EF6E  F00B         	goto	i2l300
  2845   0016D4                     i2u359_40:
  2846   0016D4                     
  2847                           ;ECU_Layer/LED/ecu_led.c: 75:     {;ECU_Layer/LED/ecu_led.c: 76:         ret = (Std_Retu
      +                          rnType)0x00;
  2848   0016D4  0E00               	movlw	0
  2849   0016D6  6E43               	movwf	led_turn_off@ret^0,c
  2850                           
  2851                           ;ECU_Layer/LED/ecu_led.c: 77:     }
  2852   0016D8  EF98  F00B         	goto	i2l3849
  2853   0016DC                     i2l300:
  2854                           
  2855                           ;ECU_Layer/LED/ecu_led.c: 79:     {;ECU_Layer/LED/ecu_led.c: 80:         pin_config_t pi
      +                          n_obj = {
  2856   0016DC  C01B  F044         	movff	led_turn_off@F3320,led_turn_off@pin_obj
  2857   0016E0  5041               	movf	led_turn_off@led^0,w,c
  2858   0016E2  6ED9               	movwf	fsr2l,c
  2859   0016E4  6ADA               	clrf	fsr2h,c
  2860   0016E6  50DF               	movf	223,w,c
  2861   0016E8  0B0F               	andlw	15
  2862   0016EA  6E42               	movwf	??_led_turn_off^0,c
  2863   0016EC  5044               	movf	led_turn_off@pin_obj^0,w,c
  2864   0016EE  1842               	xorwf	??_led_turn_off^0,w,c
  2865   0016F0  0BF8               	andlw	-8
  2866   0016F2  1842               	xorwf	??_led_turn_off^0,w,c
  2867   0016F4  6E44               	movwf	led_turn_off@pin_obj^0,c
  2868   0016F6  5041               	movf	led_turn_off@led^0,w,c
  2869   0016F8  6ED9               	movwf	fsr2l,c
  2870   0016FA  6ADA               	clrf	fsr2h,c
  2871   0016FC  38DF               	swapf	223,w,c
  2872   0016FE  0B07               	andlw	7
  2873   001700  6E42               	movwf	??_led_turn_off^0,c
  2874   001702  4642               	rlncf	??_led_turn_off^0,f,c
  2875   001704  4642               	rlncf	??_led_turn_off^0,f,c
  2876   001706  4642               	rlncf	??_led_turn_off^0,f,c
  2877   001708  5044               	movf	led_turn_off@pin_obj^0,w,c
  2878   00170A  1842               	xorwf	??_led_turn_off^0,w,c
  2879   00170C  0BC7               	andlw	-57
  2880   00170E  1842               	xorwf	??_led_turn_off^0,w,c
  2881   001710  6E44               	movwf	led_turn_off@pin_obj^0,c
  2882   001712  9C44               	bcf	led_turn_off@pin_obj^0,6,c
  2883   001714  5041               	movf	led_turn_off@led^0,w,c
  2884   001716  6ED9               	movwf	fsr2l,c
  2885   001718  6ADA               	clrf	fsr2h,c
  2886   00171A  AEDF               	btfss	indf2,7,c
  2887   00171C  D002               	bra	i2u360_45
  2888   00171E  8E44               	bsf	led_turn_off@pin_obj^0,7,c
  2889   001720  D001               	bra	i2u360_47
  2890   001722                     i2u360_45:
  2891   001722  9E44               	bcf	led_turn_off@pin_obj^0,7,c
  2892   001724                     i2u360_47:
  2893   001724                     
  2894                           ;ECU_Layer/LED/ecu_led.c: 86:         gpio_pin_write_logic(&pin_obj, GPIO_LOW);
  2895   001724  0E44               	movlw	low led_turn_off@pin_obj
  2896   001726  6E3A               	movwf	i2gpio_pin_write_logic@_pin_config^0,c
  2897   001728  0E00               	movlw	0
  2898   00172A  6E3B               	movwf	i2gpio_pin_write_logic@logic^0,c
  2899   00172C  ECA6  F009         	call	i2_gpio_pin_write_logic	;wreg free
  2900   001730                     i2l3849:
  2901                           
  2902                           ;ECU_Layer/LED/ecu_led.c: 89:     return ret;
  2903   001730  5043               	movf	led_turn_off@ret^0,w,c
  2904   001732  0012               	return		;funcret
  2905   001734                     __end_of_led_turn_off:
  2906                           	callstack 0
  2907                           
  2908 ;; *************** function _led_turn_on *****************
  2909 ;; Defined at:
  2910 ;;		line 44 in file "ECU_Layer/LED/ecu_led.c"
  2911 ;; Parameters:    Size  Location     Type
  2912 ;;  led             1    7[COMRAM] PTR const struct .
  2913 ;;		 -> led_4(1), led_3(1), led_2(1), led_1(1), 
  2914 ;; Auto vars:     Size  Location     Type
  2915 ;;  pin_obj         1   10[COMRAM] struct .
  2916 ;;  ret             1    9[COMRAM] unsigned char 
  2917 ;; Return value:  Size  Location     Type
  2918 ;;                  1    wreg      unsigned char 
  2919 ;; Registers used:
  2920 ;;		wreg, fsr2l, fsr2h, status,2, status,0, prodl, prodh, cstack
  2921 ;; Tracked objects:
  2922 ;;		On entry : 0/0
  2923 ;;		On exit  : 0/0
  2924 ;;		Unchanged: 0/0
  2925 ;; Data sizes:     COMRAM   BANK0   BANK1   BANK2   BANK3   BANK4   BANK5   BANK6   BANK7   BANK8   BANK9  BANK10  BANK1
      +1  BANK12  BANK13  BANK14  BANK15
  2926 ;;      Params:         1       0       0       0       0       0       0       0       0       0       0       0       
      +0       0       0       0       0
  2927 ;;      Locals:         2       0       0       0       0       0       0       0       0       0       0       0       
      +0       0       0       0       0
  2928 ;;      Temps:          1       0       0       0       0       0       0       0       0       0       0       0       
      +0       0       0       0       0
  2929 ;;      Totals:         4       0       0       0       0       0       0       0       0       0       0       0       
      +0       0       0       0       0
  2930 ;;Total ram usage:        4 bytes
  2931 ;; Hardware stack levels used: 1
  2932 ;; Hardware stack levels required when called: 1
  2933 ;; This function calls:
  2934 ;;		i2_gpio_pin_write_logic
  2935 ;; This function is called by:
  2936 ;;		_RB4_Int_APP_ISR_HIGH
  2937 ;;		_RB4_Int_APP_ISR_LOW
  2938 ;;		_RB6_Int_APP_ISR_HIGH
  2939 ;;		_RB6_Int_APP_ISR_LOW
  2940 ;; This function uses a non-reentrant model
  2941 ;;
  2942                           
  2943                           	psect	text20
  2944   001734                     __ptext20:
  2945                           	callstack 0
  2946   001734                     _led_turn_on:
  2947                           	callstack 23
  2948   001734                     
  2949                           ;ECU_Layer/LED/ecu_led.c: 45:     Std_ReturnType ret = (Std_ReturnType)0x01;
  2950   001734  0E01               	movlw	1
  2951   001736  6E43               	movwf	led_turn_on@ret^0,c
  2952                           
  2953                           ;ECU_Layer/LED/ecu_led.c: 46:     if (led == ((void*)0))
  2954   001738  5041               	movf	led_turn_on@led^0,w,c
  2955   00173A  A4D8               	btfss	status,2,c
  2956   00173C  EFA2  F00B         	goto	i2u357_41
  2957   001740  EFA4  F00B         	goto	i2u357_40
  2958   001744                     i2u357_41:
  2959   001744  EFA8  F00B         	goto	i2l293
  2960   001748                     i2u357_40:
  2961   001748                     
  2962                           ;ECU_Layer/LED/ecu_led.c: 47:     {;ECU_Layer/LED/ecu_led.c: 48:         ret = (Std_Retu
      +                          rnType)0x00;
  2963   001748  0E00               	movlw	0
  2964   00174A  6E43               	movwf	led_turn_on@ret^0,c
  2965                           
  2966                           ;ECU_Layer/LED/ecu_led.c: 49:     }
  2967   00174C  EFD2  F00B         	goto	i2l3833
  2968   001750                     i2l293:
  2969                           
  2970                           ;ECU_Layer/LED/ecu_led.c: 51:     {;ECU_Layer/LED/ecu_led.c: 52:         pin_config_t pi
      +                          n_obj = {
  2971   001750  C01C  F044         	movff	led_turn_on@F3315,led_turn_on@pin_obj
  2972   001754  5041               	movf	led_turn_on@led^0,w,c
  2973   001756  6ED9               	movwf	fsr2l,c
  2974   001758  6ADA               	clrf	fsr2h,c
  2975   00175A  50DF               	movf	223,w,c
  2976   00175C  0B0F               	andlw	15
  2977   00175E  6E42               	movwf	??_led_turn_on^0,c
  2978   001760  5044               	movf	led_turn_on@pin_obj^0,w,c
  2979   001762  1842               	xorwf	??_led_turn_on^0,w,c
  2980   001764  0BF8               	andlw	-8
  2981   001766  1842               	xorwf	??_led_turn_on^0,w,c
  2982   001768  6E44               	movwf	led_turn_on@pin_obj^0,c
  2983   00176A  5041               	movf	led_turn_on@led^0,w,c
  2984   00176C  6ED9               	movwf	fsr2l,c
  2985   00176E  6ADA               	clrf	fsr2h,c
  2986   001770  38DF               	swapf	223,w,c
  2987   001772  0B07               	andlw	7
  2988   001774  6E42               	movwf	??_led_turn_on^0,c
  2989   001776  4642               	rlncf	??_led_turn_on^0,f,c
  2990   001778  4642               	rlncf	??_led_turn_on^0,f,c
  2991   00177A  4642               	rlncf	??_led_turn_on^0,f,c
  2992   00177C  5044               	movf	led_turn_on@pin_obj^0,w,c
  2993   00177E  1842               	xorwf	??_led_turn_on^0,w,c
  2994   001780  0BC7               	andlw	-57
  2995   001782  1842               	xorwf	??_led_turn_on^0,w,c
  2996   001784  6E44               	movwf	led_turn_on@pin_obj^0,c
  2997   001786  9C44               	bcf	led_turn_on@pin_obj^0,6,c
  2998   001788  5041               	movf	led_turn_on@led^0,w,c
  2999   00178A  6ED9               	movwf	fsr2l,c
  3000   00178C  6ADA               	clrf	fsr2h,c
  3001   00178E  AEDF               	btfss	indf2,7,c
  3002   001790  D002               	bra	i2u358_45
  3003   001792  8E44               	bsf	led_turn_on@pin_obj^0,7,c
  3004   001794  D001               	bra	i2u358_47
  3005   001796                     i2u358_45:
  3006   001796  9E44               	bcf	led_turn_on@pin_obj^0,7,c
  3007   001798                     i2u358_47:
  3008   001798                     
  3009                           ;ECU_Layer/LED/ecu_led.c: 58:         gpio_pin_write_logic(&pin_obj, GPIO_HIGH);
  3010   001798  0E44               	movlw	low led_turn_on@pin_obj
  3011   00179A  6E3A               	movwf	i2gpio_pin_write_logic@_pin_config^0,c
  3012   00179C  0E01               	movlw	1
  3013   00179E  6E3B               	movwf	i2gpio_pin_write_logic@logic^0,c
  3014   0017A0  ECA6  F009         	call	i2_gpio_pin_write_logic	;wreg free
  3015   0017A4                     i2l3833:
  3016                           
  3017                           ;ECU_Layer/LED/ecu_led.c: 61:     return ret;
  3018   0017A4  5043               	movf	led_turn_on@ret^0,w,c
  3019   0017A6  0012               	return		;funcret
  3020   0017A8                     __end_of_led_turn_on:
  3021                           	callstack 0
  3022                           
  3023 ;; *************** function i2_gpio_pin_write_logic *****************
  3024 ;; Defined at:
  3025 ;;		line 84 in file "MCAL_Layer/GPIO/hal_gpio.c"
  3026 ;; Parameters:    Size  Location     Type
  3027 ;;  _pin_config     1    0[COMRAM] PTR const struct .
  3028 ;;		 -> relay_turn_off@pin_obj(1), relay_turn_on@pin_obj(1), relay_initialize@pin_obj(1), led_turn_off@pin_obj(1), 
  3029 ;;		 -> led_turn_on@pin_obj(1), led_initialize@pin_obj(1), 
  3030 ;;  logic           1    1[COMRAM] enum E3230
  3031 ;; Auto vars:     Size  Location     Type
  3032 ;;  ret             1    0        unsigned char 
  3033 ;; Return value:  Size  Location     Type
  3034 ;;                  1    wreg      unsigned char 
  3035 ;; Registers used:
  3036 ;;		wreg, fsr2l, fsr2h, status,2, status,0, prodl, prodh
  3037 ;; Tracked objects:
  3038 ;;		On entry : 0/0
  3039 ;;		On exit  : 0/0
  3040 ;;		Unchanged: 0/0
  3041 ;; Data sizes:     COMRAM   BANK0   BANK1   BANK2   BANK3   BANK4   BANK5   BANK6   BANK7   BANK8   BANK9  BANK10  BANK1
      +1  BANK12  BANK13  BANK14  BANK15
  3042 ;;      Params:         2       0       0       0       0       0       0       0       0       0       0       0       
      +0       0       0       0       0
  3043 ;;      Locals:         0       0       0       0       0       0       0       0       0       0       0       0       
      +0       0       0       0       0
  3044 ;;      Temps:          5       0       0       0       0       0       0       0       0       0       0       0       
      +0       0       0       0       0
  3045 ;;      Totals:         7       0       0       0       0       0       0       0       0       0       0       0       
      +0       0       0       0       0
  3046 ;;Total ram usage:        7 bytes
  3047 ;; Hardware stack levels used: 1
  3048 ;; This function calls:
  3049 ;;		Nothing
  3050 ;; This function is called by:
  3051 ;;		_led_turn_on
  3052 ;;		_led_turn_off
  3053 ;; This function uses a non-reentrant model
  3054 ;;
  3055                           
  3056                           	psect	text21
  3057   00134C                     __ptext21:
  3058                           	callstack 0
  3059   00134C                     i2_gpio_pin_write_logic:
  3060                           	callstack 23
  3061   00134C                     
  3062                           ;MCAL_Layer/GPIO/hal_gpio.c: 86:     if (((void*)0) == _pin_config || _pin_config->pin >
      +                           8 -1)
  3063   00134C  503A               	movf	i2gpio_pin_write_logic@_pin_config^0,w,c
  3064   00134E  B4D8               	btfsc	status,2,c
  3065   001350  EFAC  F009         	goto	i2u344_41
  3066   001354  EFAE  F009         	goto	i2u344_40
  3067   001358                     i2u344_41:
  3068   001358  EFBE  F009         	goto	i2l3767
  3069   00135C                     i2u344_40:
  3070   00135C  503A               	movf	i2gpio_pin_write_logic@_pin_config^0,w,c
  3071   00135E  6ED9               	movwf	fsr2l,c
  3072   001360  6ADA               	clrf	fsr2h,c
  3073   001362  30DF               	rrcf	223,w,c
  3074   001364  32E8               	rrcf	wreg,f,c
  3075   001366  32E8               	rrcf	wreg,f,c
  3076   001368  0B07               	andlw	7
  3077   00136A  6E3C               	movwf	??i2_gpio_pin_write_logic^0,c
  3078   00136C  0E07               	movlw	7
  3079   00136E  643C               	cpfsgt	??i2_gpio_pin_write_logic^0,c
  3080   001370  EFBC  F009         	goto	i2u345_41
  3081   001374  EFBE  F009         	goto	i2u345_40
  3082   001378                     i2u345_41:
  3083   001378  EF13  F00A         	goto	i2l3775
  3084   00137C                     i2u345_40:
  3085   00137C                     i2l3767:
  3086                           
  3087                           ;MCAL_Layer/GPIO/hal_gpio.c: 89:     }
  3088   00137C  EF28  F00A         	goto	i2l408
  3089   001380                     i2l3769:
  3090                           
  3091                           ;MCAL_Layer/GPIO/hal_gpio.c: 95:                 (*lat_registers[_pin_config->port] &= ~
      +                          ((uint8)1<<_pin_config->pin));
  3092   001380  503A               	movf	i2gpio_pin_write_logic@_pin_config^0,w,c
  3093   001382  6ED9               	movwf	fsr2l,c
  3094   001384  6ADA               	clrf	fsr2h,c
  3095   001386  30DF               	rrcf	223,w,c
  3096   001388  32E8               	rrcf	wreg,f,c
  3097   00138A  32E8               	rrcf	wreg,f,c
  3098   00138C  0B07               	andlw	7
  3099   00138E  6E3C               	movwf	??i2_gpio_pin_write_logic^0,c
  3100   001390  0E01               	movlw	1
  3101   001392  6E3D               	movwf	(??i2_gpio_pin_write_logic+1)^0,c
  3102   001394  2A3C               	incf	??i2_gpio_pin_write_logic^0,f,c
  3103   001396  EFCF  F009         	goto	i2u346_44
  3104   00139A                     i2u346_45:
  3105   00139A  90D8               	bcf	status,0,c
  3106   00139C  363D               	rlcf	(??i2_gpio_pin_write_logic+1)^0,f,c
  3107   00139E                     i2u346_44:
  3108   00139E  2E3C               	decfsz	??i2_gpio_pin_write_logic^0,f,c
  3109   0013A0  EFCD  F009         	goto	i2u346_45
  3110   0013A4  503D               	movf	(??i2_gpio_pin_write_logic+1)^0,w,c
  3111   0013A6  0AFF               	xorlw	255
  3112   0013A8  6E3E               	movwf	(??i2_gpio_pin_write_logic+2)^0,c
  3113   0013AA  503A               	movf	i2gpio_pin_write_logic@_pin_config^0,w,c
  3114   0013AC  6ED9               	movwf	fsr2l,c
  3115   0013AE  6ADA               	clrf	fsr2h,c
  3116   0013B0  50DF               	movf	223,w,c
  3117   0013B2  0B07               	andlw	7
  3118   0013B4  0D02               	mullw	2
  3119   0013B6  50F3               	movf	243,w,c
  3120   0013B8  0F1E               	addlw	low _lat_registers
  3121   0013BA  6ED9               	movwf	fsr2l,c
  3122   0013BC  6ADA               	clrf	fsr2h,c
  3123   0013BE  CFDE F03F          	movff	postinc2,??i2_gpio_pin_write_logic+3
  3124   0013C2  CFDD F040          	movff	postdec2,??i2_gpio_pin_write_logic+4
  3125   0013C6  C03F  FFD9         	movff	??i2_gpio_pin_write_logic+3,fsr2l
  3126   0013CA  C040  FFDA         	movff	??i2_gpio_pin_write_logic+4,fsr2h
  3127   0013CE  503E               	movf	(??i2_gpio_pin_write_logic+2)^0,w,c
  3128   0013D0  16DF               	andwf	indf2,f,c
  3129                           
  3130                           ;MCAL_Layer/GPIO/hal_gpio.c: 96:                 break;
  3131   0013D2  EF28  F00A         	goto	i2l408
  3132   0013D6                     i2l3771:
  3133                           
  3134                           ;MCAL_Layer/GPIO/hal_gpio.c: 98:                 (*lat_registers[_pin_config->port] |= (
      +                          (uint8)1<<_pin_config->pin));
  3135   0013D6  503A               	movf	i2gpio_pin_write_logic@_pin_config^0,w,c
  3136   0013D8  6ED9               	movwf	fsr2l,c
  3137   0013DA  6ADA               	clrf	fsr2h,c
  3138   0013DC  30DF               	rrcf	223,w,c
  3139   0013DE  32E8               	rrcf	wreg,f,c
  3140   0013E0  32E8               	rrcf	wreg,f,c
  3141   0013E2  0B07               	andlw	7
  3142   0013E4  6E3C               	movwf	??i2_gpio_pin_write_logic^0,c
  3143   0013E6  0E01               	movlw	1
  3144   0013E8  6E3D               	movwf	(??i2_gpio_pin_write_logic+1)^0,c
  3145   0013EA  2A3C               	incf	??i2_gpio_pin_write_logic^0,f,c
  3146   0013EC  EFFA  F009         	goto	i2u347_44
  3147   0013F0                     i2u347_45:
  3148   0013F0  90D8               	bcf	status,0,c
  3149   0013F2  363D               	rlcf	(??i2_gpio_pin_write_logic+1)^0,f,c
  3150   0013F4                     i2u347_44:
  3151   0013F4  2E3C               	decfsz	??i2_gpio_pin_write_logic^0,f,c
  3152   0013F6  EFF8  F009         	goto	i2u347_45
  3153   0013FA  503A               	movf	i2gpio_pin_write_logic@_pin_config^0,w,c
  3154   0013FC  6ED9               	movwf	fsr2l,c
  3155   0013FE  6ADA               	clrf	fsr2h,c
  3156   001400  50DF               	movf	223,w,c
  3157   001402  0B07               	andlw	7
  3158   001404  0D02               	mullw	2
  3159   001406  50F3               	movf	243,w,c
  3160   001408  0F1E               	addlw	low _lat_registers
  3161   00140A  6ED9               	movwf	fsr2l,c
  3162   00140C  6ADA               	clrf	fsr2h,c
  3163   00140E  CFDE F03E          	movff	postinc2,??i2_gpio_pin_write_logic+2
  3164   001412  CFDD F03F          	movff	postdec2,??i2_gpio_pin_write_logic+3
  3165   001416  C03E  FFD9         	movff	??i2_gpio_pin_write_logic+2,fsr2l
  3166   00141A  C03F  FFDA         	movff	??i2_gpio_pin_write_logic+3,fsr2h
  3167   00141E  503D               	movf	(??i2_gpio_pin_write_logic+1)^0,w,c
  3168   001420  12DF               	iorwf	indf2,f,c
  3169                           
  3170                           ;MCAL_Layer/GPIO/hal_gpio.c: 99:                 break;
  3171   001422  EF28  F00A         	goto	i2l408
  3172   001426                     i2l3775:
  3173   001426  503B               	movf	i2gpio_pin_write_logic@logic^0,w,c
  3174   001428  6E3C               	movwf	??i2_gpio_pin_write_logic^0,c
  3175   00142A  6A3D               	clrf	(??i2_gpio_pin_write_logic+1)^0,c
  3176                           
  3177                           ; Switch on 2 bytes has been partitioned into a top level switch of size 1, and 1 sub-sw
      +                          itches
  3178                           ; Switch size 1, requested type "simple"
  3179                           ; Number of cases is 1, Range of values is 0 to 0
  3180                           ; switch strategies available:
  3181                           ; Name         Instructions Cycles
  3182                           ; simple_byte            4     3 (average)
  3183                           ;	Chosen strategy is simple_byte
  3184   00142C  503D               	movf	(??i2_gpio_pin_write_logic+1)^0,w,c
  3185   00142E  0A00               	xorlw	0	; case 0
  3186   001430  B4D8               	btfsc	status,2,c
  3187   001432  EF1D  F00A         	goto	i2l4739
  3188   001436  EFBE  F009         	goto	i2l3767
  3189   00143A                     i2l4739:
  3190                           
  3191                           ; Switch size 1, requested type "simple"
  3192                           ; Number of cases is 2, Range of values is 0 to 1
  3193                           ; switch strategies available:
  3194                           ; Name         Instructions Cycles
  3195                           ; simple_byte            7     4 (average)
  3196                           ;	Chosen strategy is simple_byte
  3197   00143A  503C               	movf	??i2_gpio_pin_write_logic^0,w,c
  3198   00143C  0A00               	xorlw	0	; case 0
  3199   00143E  B4D8               	btfsc	status,2,c
  3200   001440  EFC0  F009         	goto	i2l3769
  3201   001444  0A01               	xorlw	1	; case 1
  3202   001446  B4D8               	btfsc	status,2,c
  3203   001448  EFEB  F009         	goto	i2l3771
  3204   00144C  EFBE  F009         	goto	i2l3767
  3205   001450                     i2l408:
  3206   001450  0012               	return		;funcret
  3207   001452                     __end_ofi2_gpio_pin_write_logic:
  3208                           	callstack 0
  3209                           
  3210 ;; *************** function _INT2_ISR *****************
  3211 ;; Defined at:
  3212 ;;		line 101 in file "MCAL_Layer/interrupt/mcal_external_interrupt.c"
  3213 ;; Parameters:    Size  Location     Type
  3214 ;;		None
  3215 ;; Auto vars:     Size  Location     Type
  3216 ;;		None
  3217 ;; Return value:  Size  Location     Type
  3218 ;;                  1    wreg      void 
  3219 ;; Registers used:
  3220 ;;		None
  3221 ;; Tracked objects:
  3222 ;;		On entry : 0/0
  3223 ;;		On exit  : 0/0
  3224 ;;		Unchanged: 0/0
  3225 ;; Data sizes:     COMRAM   BANK0   BANK1   BANK2   BANK3   BANK4   BANK5   BANK6   BANK7   BANK8   BANK9  BANK10  BANK1
      +1  BANK12  BANK13  BANK14  BANK15
  3226 ;;      Params:         0       0       0       0       0       0       0       0       0       0       0       0       
      +0       0       0       0       0
  3227 ;;      Locals:         0       0       0       0       0       0       0       0       0       0       0       0       
      +0       0       0       0       0
  3228 ;;      Temps:          0       0       0       0       0       0       0       0       0       0       0       0       
      +0       0       0       0       0
  3229 ;;      Totals:         0       0       0       0       0       0       0       0       0       0       0       0       
      +0       0       0       0       0
  3230 ;;Total ram usage:        0 bytes
  3231 ;; Hardware stack levels used: 1
  3232 ;; This function calls:
  3233 ;;		Nothing
  3234 ;; This function is called by:
  3235 ;;		_InterruptManager
  3236 ;; This function uses a non-reentrant model
  3237 ;;
  3238                           
  3239                           	psect	text22
  3240   001968                     __ptext22:
  3241                           	callstack 0
  3242   001968                     _INT2_ISR:
  3243                           	callstack 26
  3244   001968                     
  3245                           ;MCAL_Layer/interrupt/mcal_external_interrupt.c: 103:     (INTCON3bits.INT2IF = 0);
  3246   001968  92F0               	bcf	240,1,c	;volatile
  3247   00196A  0012               	return		;funcret
  3248   00196C                     __end_of_INT2_ISR:
  3249                           	callstack 0
  3250                           
  3251 ;; *************** function _INT1_ISR *****************
  3252 ;; Defined at:
  3253 ;;		line 88 in file "MCAL_Layer/interrupt/mcal_external_interrupt.c"
  3254 ;; Parameters:    Size  Location     Type
  3255 ;;		None
  3256 ;; Auto vars:     Size  Location     Type
  3257 ;;		None
  3258 ;; Return value:  Size  Location     Type
  3259 ;;                  1    wreg      void 
  3260 ;; Registers used:
  3261 ;;		None
  3262 ;; Tracked objects:
  3263 ;;		On entry : 0/0
  3264 ;;		On exit  : 0/0
  3265 ;;		Unchanged: 0/0
  3266 ;; Data sizes:     COMRAM   BANK0   BANK1   BANK2   BANK3   BANK4   BANK5   BANK6   BANK7   BANK8   BANK9  BANK10  BANK1
      +1  BANK12  BANK13  BANK14  BANK15
  3267 ;;      Params:         0       0       0       0       0       0       0       0       0       0       0       0       
      +0       0       0       0       0
  3268 ;;      Locals:         0       0       0       0       0       0       0       0       0       0       0       0       
      +0       0       0       0       0
  3269 ;;      Temps:          0       0       0       0       0       0       0       0       0       0       0       0       
      +0       0       0       0       0
  3270 ;;      Totals:         0       0       0       0       0       0       0       0       0       0       0       0       
      +0       0       0       0       0
  3271 ;;Total ram usage:        0 bytes
  3272 ;; Hardware stack levels used: 1
  3273 ;; This function calls:
  3274 ;;		Nothing
  3275 ;; This function is called by:
  3276 ;;		_InterruptManager
  3277 ;; This function uses a non-reentrant model
  3278 ;;
  3279                           
  3280                           	psect	text23
  3281   00196C                     __ptext23:
  3282                           	callstack 0
  3283   00196C                     _INT1_ISR:
  3284                           	callstack 26
  3285   00196C                     
  3286                           ;MCAL_Layer/interrupt/mcal_external_interrupt.c: 90:     (INTCON3bits.INT1IF = 0);
  3287   00196C  90F0               	bcf	240,0,c	;volatile
  3288   00196E  0012               	return		;funcret
  3289   001970                     __end_of_INT1_ISR:
  3290                           	callstack 0
  3291                           
  3292 ;; *************** function _INT0_ISR *****************
  3293 ;; Defined at:
  3294 ;;		line 73 in file "MCAL_Layer/interrupt/mcal_external_interrupt.c"
  3295 ;; Parameters:    Size  Location     Type
  3296 ;;		None
  3297 ;; Auto vars:     Size  Location     Type
  3298 ;;		None
  3299 ;; Return value:  Size  Location     Type
  3300 ;;                  1    wreg      void 
  3301 ;; Registers used:
  3302 ;;		None
  3303 ;; Tracked objects:
  3304 ;;		On entry : 0/0
  3305 ;;		On exit  : 0/0
  3306 ;;		Unchanged: 0/0
  3307 ;; Data sizes:     COMRAM   BANK0   BANK1   BANK2   BANK3   BANK4   BANK5   BANK6   BANK7   BANK8   BANK9  BANK10  BANK1
      +1  BANK12  BANK13  BANK14  BANK15
  3308 ;;      Params:         0       0       0       0       0       0       0       0       0       0       0       0       
      +0       0       0       0       0
  3309 ;;      Locals:         0       0       0       0       0       0       0       0       0       0       0       0       
      +0       0       0       0       0
  3310 ;;      Temps:          0       0       0       0       0       0       0       0       0       0       0       0       
      +0       0       0       0       0
  3311 ;;      Totals:         0       0       0       0       0       0       0       0       0       0       0       0       
      +0       0       0       0       0
  3312 ;;Total ram usage:        0 bytes
  3313 ;; Hardware stack levels used: 1
  3314 ;; This function calls:
  3315 ;;		Nothing
  3316 ;; This function is called by:
  3317 ;;		_InterruptManager
  3318 ;; This function uses a non-reentrant model
  3319 ;;
  3320                           
  3321                           	psect	text24
  3322   001970                     __ptext24:
  3323                           	callstack 0
  3324   001970                     _INT0_ISR:
  3325                           	callstack 26
  3326   001970                     
  3327                           ;MCAL_Layer/interrupt/mcal_external_interrupt.c: 75:     (INTCONbits.INT0IF = 0);
  3328   001970  92F2               	bcf	242,1,c	;volatile
  3329   001972  0012               	return		;funcret
  3330   001974                     __end_of_INT0_ISR:
  3331                           	callstack 0
  3332                           
  3333                           	psect	rparam
  3334   000000                     
  3335                           	psect	temp
  3336   00004D                     btemp:
  3337                           	callstack 0
  3338   00004D                     	ds	1
  3339   000000                     int$flags	set	btemp
  3340   000000                     wtemp8	set	btemp+1
  3341   000000                     ttemp5	set	btemp+1
  3342   000000                     ttemp6	set	btemp+4
  3343   000000                     ttemp7	set	btemp+8
  3344                           
  3345                           	psect	config
  3346                           
  3347                           ; Padding undefined space
  3348   300000                     	org	3145728
  3349   300000  FF                 	db	255
  3350                           
  3351                           ;Config register CONFIG1H @ 0x300001
  3352                           ;	Oscillator Selection bits
  3353                           ;	FOSC = RCIO6, External RC oscillator, port function on RA6
  3354                           ;	Fail-Safe Clock Monitor Enable bit
  3355                           ;	FCMEN = OFF, Fail-Safe Clock Monitor disabled
  3356                           ;	Internal/External Oscillator Switchover bit
  3357                           ;	IESO = OFF, Oscillator Switchover mode disabled
  3358   300001                     	org	3145729
  3359   300001  07                 	db	7
  3360                           
  3361                           ;Config register CONFIG2L @ 0x300002
  3362                           ;	Power-up Timer Enable bit
  3363                           ;	PWRTEN = OFF, PWRT disabled
  3364                           ;	Brown-out Reset Enable bits
  3365                           ;	BOREN = SBORDIS, Brown-out Reset enabled in hardware only (SBOREN is disabled)
  3366                           ;	Brown Out Reset Voltage bits
  3367                           ;	BORV = 18, VBOR set to 1.8 V nominal
  3368   300002                     	org	3145730
  3369   300002  1F                 	db	31
  3370                           
  3371                           ;Config register CONFIG2H @ 0x300003
  3372                           ;	Watchdog Timer Enable bit
  3373                           ;	WDTEN = ON, WDT is always enabled. SWDTEN bit has no effect
  3374                           ;	Watchdog Timer Postscale Select bits
  3375                           ;	WDTPS = 32768, 1:32768
  3376   300003                     	org	3145731
  3377   300003  1F                 	db	31
  3378                           
  3379                           ; Padding undefined space
  3380   300004                     	org	3145732
  3381   300004  FF                 	db	255
  3382                           
  3383                           ;Config register CONFIG3H @ 0x300005
  3384                           ;	CCP2 MUX bit
  3385                           ;	CCP2MX = PORTC, CCP2 input/output is multiplexed with RC1
  3386                           ;	PORTB A/D Enable bit
  3387                           ;	PBADEN = OFF, PORTB<4:0> pins are configured as digital I/O on Reset
  3388                           ;	Low-Power Timer1 Oscillator Enable bit
  3389                           ;	LPT1OSC = OFF, Timer1 configured for higher power operation
  3390                           ;	HFINTOSC Fast Start-up
  3391                           ;	HFOFST = ON, HFINTOSC starts clocking the CPU without waiting for the oscillator to st
      +                          ablize.
  3392                           ;	MCLR Pin Enable bit
  3393                           ;	MCLRE = ON, MCLR pin enabled; RE3 input pin disabled
  3394   300005                     	org	3145733
  3395   300005  89                 	db	137
  3396                           
  3397                           ;Config register CONFIG4L @ 0x300006
  3398                           ;	Stack Full/Underflow Reset Enable bit
  3399                           ;	STVREN = ON, Stack full/underflow will cause Reset
  3400                           ;	Single-Supply ICSP Enable bit
  3401                           ;	LVP = ON, Single-Supply ICSP enabled
  3402                           ;	Extended Instruction Set Enable bit
  3403                           ;	XINST = OFF, Instruction set extension and Indexed Addressing mode disabled (Legacy mo
      +                          de)
  3404                           ;	Background Debugger Enable bit
  3405                           ;	DEBUG = 0x1, unprogrammed default
  3406   300006                     	org	3145734
  3407   300006  85                 	db	133
  3408                           
  3409                           ; Padding undefined space
  3410   300007                     	org	3145735
  3411   300007  FF                 	db	255
  3412                           
  3413                           ;Config register CONFIG5L @ 0x300008
  3414                           ;	Code Protection Block 0
  3415                           ;	CP0 = OFF, Block 0 (000800-003FFFh) not code-protected
  3416                           ;	Code Protection Block 1
  3417                           ;	CP1 = OFF, Block 1 (004000-007FFFh) not code-protected
  3418                           ;	Code Protection Block 2
  3419                           ;	CP2 = OFF, Block 2 (008000-00BFFFh) not code-protected
  3420                           ;	Code Protection Block 3
  3421                           ;	CP3 = OFF, Block 3 (00C000-00FFFFh) not code-protected
  3422   300008                     	org	3145736
  3423   300008  0F                 	db	15
  3424                           
  3425                           ;Config register CONFIG5H @ 0x300009
  3426                           ;	Boot Block Code Protection bit
  3427                           ;	CPB = OFF, Boot block (000000-0007FFh) not code-protected
  3428                           ;	Data EEPROM Code Protection bit
  3429                           ;	CPD = OFF, Data EEPROM not code-protected
  3430   300009                     	org	3145737
  3431   300009  C0                 	db	192
  3432                           
  3433                           ;Config register CONFIG6L @ 0x30000A
  3434                           ;	Write Protection Block 0
  3435                           ;	WRT0 = OFF, Block 0 (000800-003FFFh) not write-protected
  3436                           ;	Write Protection Block 1
  3437                           ;	WRT1 = OFF, Block 1 (004000-007FFFh) not write-protected
  3438                           ;	Write Protection Block 2
  3439                           ;	WRT2 = OFF, Block 2 (008000-00BFFFh) not write-protected
  3440                           ;	Write Protection Block 3
  3441                           ;	WRT3 = OFF, Block 3 (00C000h-00FFFFh) not write-protected
  3442   30000A                     	org	3145738
  3443   30000A  0F                 	db	15
  3444                           
  3445                           ;Config register CONFIG6H @ 0x30000B
  3446                           ;	Configuration Register Write Protection bit
  3447                           ;	WRTC = OFF, Configuration registers (300000-3000FFh) not write-protected
  3448                           ;	Boot Block Write Protection bit
  3449                           ;	WRTB = OFF, Boot Block (000000-0007FFh) not write-protected
  3450                           ;	Data EEPROM Write Protection bit
  3451                           ;	WRTD = OFF, Data EEPROM not write-protected
  3452   30000B                     	org	3145739
  3453   30000B  E0                 	db	224
  3454                           
  3455                           ;Config register CONFIG7L @ 0x30000C
  3456                           ;	Table Read Protection Block 0
  3457                           ;	EBTR0 = OFF, Block 0 (000800-003FFFh) not protected from table reads executed in other
      +                           blocks
  3458                           ;	Table Read Protection Block 1
  3459                           ;	EBTR1 = OFF, Block 1 (004000-007FFFh) not protected from table reads executed in other
      +                           blocks
  3460                           ;	Table Read Protection Block 2
  3461                           ;	EBTR2 = OFF, Block 2 (008000-00BFFFh) not protected from table reads executed in other
      +                           blocks
  3462                           ;	Table Read Protection Block 3
  3463                           ;	EBTR3 = OFF, Block 3 (00C000-00FFFFh) not protected from table reads executed in other
      +                           blocks
  3464   30000C                     	org	3145740
  3465   30000C  0F                 	db	15
  3466                           
  3467                           ;Config register CONFIG7H @ 0x30000D
  3468                           ;	Boot Block Table Read Protection bit
  3469                           ;	EBTRB = OFF, Boot Block (000000-0007FFh) not protected from table reads executed in ot
      +                          her blocks
  3470   30000D                     	org	3145741
  3471   30000D  40                 	db	64
  3472                           tosu	equ	0xFFF
  3473                           tosh	equ	0xFFE
  3474                           tosl	equ	0xFFD
  3475                           stkptr	equ	0xFFC
  3476                           pclatu	equ	0xFFB
  3477                           pclath	equ	0xFFA
  3478                           pcl	equ	0xFF9
  3479                           tblptru	equ	0xFF8
  3480                           tblptrh	equ	0xFF7
  3481                           tblptrl	equ	0xFF6
  3482                           tablat	equ	0xFF5
  3483                           prodh	equ	0xFF4
  3484                           prodl	equ	0xFF3
  3485                           indf0	equ	0xFEF
  3486                           postinc0	equ	0xFEE
  3487                           postdec0	equ	0xFED
  3488                           preinc0	equ	0xFEC
  3489                           plusw0	equ	0xFEB
  3490                           fsr0h	equ	0xFEA
  3491                           fsr0l	equ	0xFE9
  3492                           wreg	equ	0xFE8
  3493                           indf1	equ	0xFE7
  3494                           postinc1	equ	0xFE6
  3495                           postdec1	equ	0xFE5
  3496                           preinc1	equ	0xFE4
  3497                           plusw1	equ	0xFE3
  3498                           fsr1h	equ	0xFE2
  3499                           fsr1l	equ	0xFE1
  3500                           bsr	equ	0xFE0
  3501                           indf2	equ	0xFDF
  3502                           postinc2	equ	0xFDE
  3503                           postdec2	equ	0xFDD
  3504                           preinc2	equ	0xFDC
  3505                           plusw2	equ	0xFDB
  3506                           fsr2h	equ	0xFDA
  3507                           fsr2l	equ	0xFD9
  3508                           status	equ	0xFD8

Data Sizes:
    Strings     3
    Constant    16
    Data        62
    BSS         29
    Persistent  1
    Stack       0

Auto Spaces:
    Space          Size  Autos    Used
    COMRAM           94     18      76
    BANK0           160     15      49
    BANK1           256      0       0
    BANK2           256      0       0
    BANK3           256      0       0
    BANK4           256      0       0
    BANK5           256      0       0
    BANK6           256      0       0
    BANK7           256      0       0
    BANK8           256      0       0
    BANK9           256      0       0
    BANK10          256      0       0
    BANK11          256      0       0
    BANK12          256      0       0
    BANK13          256      0       0
    BANK14          256      0       0
    BANK15           96      0       0

Pointer List with Targets:

    f$.$buffer	PTR unsigned char  size(2) Largest target is 0

    f$.$source	PTR const unsigned char  size(2) Largest target is 0

    gpio_pin_direction_intialize@_pin_config	PTR const struct . size(1) Largest target is 6
		 -> led_initialize@pin_obj(BANK0[1]), RB4_obj(BANK0[6]), RB5_obj(BANK0[6]), RB6_obj(BANK0[6]), 
		 -> RB7_obj(BANK0[6]), relay_initialize@pin_obj(COMRAM[1]), 

    gpio_pin_intialize@_pin_config	PTR const struct . size(1) Largest target is 1
		 -> led_initialize@pin_obj(BANK0[1]), relay_initialize@pin_obj(COMRAM[1]), 

    gpio_pin_write_logic@_pin_config	PTR const struct . size(1) Largest target is 1
		 -> led_initialize@pin_obj(BANK0[1]), led_turn_off@pin_obj(COMRAM[1]), led_turn_on@pin_obj(COMRAM[1]), relay_initialize@pin_obj(COMRAM[1]), 
		 -> relay_turn_off@pin_obj(COMRAM[1]), relay_turn_on@pin_obj(COMRAM[1]), 

    INT0_InterruptHandler	PTR FTN()void  size(2) Largest target is 1
		 -> NULL(), 

    INT1_InterruptHandler	PTR FTN()void  size(2) Largest target is 1
		 -> NULL(), 

    INT2_InterruptHandler	PTR FTN()void  size(2) Largest target is 1
		 -> NULL(), 

    Interrupt_INTx_Clear_Flag@int_obj$EXT_InterruptHandler	PTR FTN()void  size(2) Largest target is 0

    Interrupt_INTx_Disable@int_obj$EXT_InterruptHandler	PTR FTN()void  size(2) Largest target is 0

    Interrupt_INTx_Edge_Init@int_obj$EXT_InterruptHandler	PTR FTN()void  size(2) Largest target is 0

    Interrupt_INTx_Enable@int_obj$EXT_InterruptHandler	PTR FTN()void  size(2) Largest target is 0

    Interrupt_INTx_Pin_Init@int_obj$EXT_InterruptHandler	PTR FTN()void  size(2) Largest target is 0

    Interrupt_INTx_SetInterruptHandler@int_obj$EXT_InterruptHandler	PTR FTN()void  size(2) Largest target is 0

    Interrupt_RBx_Init@int_obj	PTR const struct . size(1) Largest target is 6
		 -> RB4_obj(BANK0[6]), RB5_obj(BANK0[6]), RB6_obj(BANK0[6]), RB7_obj(BANK0[6]), 

    Interrupt_RBx_Init@int_obj$EXT_InterruptHandler_HIGH	PTR FTN()void  size(2) Largest target is 1
		 -> RB4_Int_APP_ISR_HIGH(), RB5_Int_APP_ISR_HIGH(), RB6_Int_APP_ISR_HIGH(), RB7_Int_APP_ISR_HIGH(), 

    Interrupt_RBx_Init@int_obj$EXT_InterruptHandler_LOW	PTR FTN()void  size(2) Largest target is 1
		 -> RB4_Int_APP_ISR_LOW(), RB5_Int_APP_ISR_LOW(), RB6_Int_APP_ISR_LOW(), RB7_Int_APP_ISR_LOW(), 

    lat_registers	PTR volatile unsigned char [5] size(2) Largest target is 1
		 -> LATA(BITBIGSFRlll[1]), LATB(BITBIGSFRlh[1]), LATC(BITBIGSFRlh[1]), LATD(BITBIGSFRlh[1]), 
		 -> LATE(BITBIGSFRlh[1]), 

    led_initialize@led	PTR const struct . size(1) Largest target is 1
		 -> led_1(COMRAM[1]), led_2(COMRAM[1]), led_3(COMRAM[1]), led_4(COMRAM[1]), 

    led_turn_off@led	PTR const struct . size(1) Largest target is 1
		 -> led_1(COMRAM[1]), led_2(COMRAM[1]), led_3(COMRAM[1]), led_4(COMRAM[1]), 

    led_turn_on@led	PTR const struct . size(1) Largest target is 1
		 -> led_1(COMRAM[1]), led_2(COMRAM[1]), led_3(COMRAM[1]), led_4(COMRAM[1]), 

    port_registers	PTR volatile unsigned char [5] size(2) Largest target is 1
		 -> PORTA(BITBIGSFRlll[1]), PORTB(BITBIGSFRllh[1]), PORTC(BITBIGSFRllh[1]), PORTD(BITBIGSFRllh[1]), 
		 -> PORTE(BITBIGSFRllh[1]), 

    RB4_InterruptHandler_HIGH	PTR FTN()void  size(2) Largest target is 1
		 -> RB4_Int_APP_ISR_HIGH(), RB5_Int_APP_ISR_HIGH(), RB6_Int_APP_ISR_HIGH(), RB7_Int_APP_ISR_HIGH(), 
		 -> NULL(), 

    RB4_InterruptHandler_LOW	PTR FTN()void  size(2) Largest target is 1
		 -> RB4_Int_APP_ISR_LOW(), RB5_Int_APP_ISR_LOW(), RB6_Int_APP_ISR_LOW(), RB7_Int_APP_ISR_LOW(), 
		 -> NULL(), 

    RB4_obj$EXT_InterruptHandler_HIGH	PTR FTN()void  size(2) Largest target is 1
		 -> RB4_Int_APP_ISR_HIGH(), RB5_Int_APP_ISR_HIGH(), RB6_Int_APP_ISR_HIGH(), RB7_Int_APP_ISR_HIGH(), 

    RB4_obj$EXT_InterruptHandler_LOW	PTR FTN()void  size(2) Largest target is 1
		 -> RB4_Int_APP_ISR_LOW(), RB5_Int_APP_ISR_LOW(), RB6_Int_APP_ISR_LOW(), RB7_Int_APP_ISR_LOW(), 

    RB5_InterruptHandler_HIGH	PTR FTN()void  size(2) Largest target is 1
		 -> RB4_Int_APP_ISR_HIGH(), RB5_Int_APP_ISR_HIGH(), RB6_Int_APP_ISR_HIGH(), RB7_Int_APP_ISR_HIGH(), 
		 -> NULL(), 

    RB5_InterruptHandler_LOW	PTR FTN()void  size(2) Largest target is 1
		 -> RB4_Int_APP_ISR_LOW(), RB5_Int_APP_ISR_LOW(), RB6_Int_APP_ISR_LOW(), RB7_Int_APP_ISR_LOW(), 
		 -> NULL(), 

    RB5_obj$EXT_InterruptHandler_HIGH	PTR FTN()void  size(2) Largest target is 1
		 -> RB4_Int_APP_ISR_HIGH(), RB5_Int_APP_ISR_HIGH(), RB6_Int_APP_ISR_HIGH(), RB7_Int_APP_ISR_HIGH(), 

    RB5_obj$EXT_InterruptHandler_LOW	PTR FTN()void  size(2) Largest target is 1
		 -> RB4_Int_APP_ISR_LOW(), RB5_Int_APP_ISR_LOW(), RB6_Int_APP_ISR_LOW(), RB7_Int_APP_ISR_LOW(), 

    RB6_InterruptHandler_HIGH	PTR FTN()void  size(2) Largest target is 1
		 -> RB4_Int_APP_ISR_HIGH(), RB5_Int_APP_ISR_HIGH(), RB6_Int_APP_ISR_HIGH(), RB7_Int_APP_ISR_HIGH(), 
		 -> NULL(), 

    RB6_InterruptHandler_LOW	PTR FTN()void  size(2) Largest target is 1
		 -> RB4_Int_APP_ISR_LOW(), RB5_Int_APP_ISR_LOW(), RB6_Int_APP_ISR_LOW(), RB7_Int_APP_ISR_LOW(), 
		 -> NULL(), 

    RB6_obj$EXT_InterruptHandler_HIGH	PTR FTN()void  size(2) Largest target is 1
		 -> RB4_Int_APP_ISR_HIGH(), RB5_Int_APP_ISR_HIGH(), RB6_Int_APP_ISR_HIGH(), RB7_Int_APP_ISR_HIGH(), 

    RB6_obj$EXT_InterruptHandler_LOW	PTR FTN()void  size(2) Largest target is 1
		 -> RB4_Int_APP_ISR_LOW(), RB5_Int_APP_ISR_LOW(), RB6_Int_APP_ISR_LOW(), RB7_Int_APP_ISR_LOW(), 

    RB7_InterruptHandler_HIGH	PTR FTN()void  size(2) Largest target is 1
		 -> RB4_Int_APP_ISR_HIGH(), RB5_Int_APP_ISR_HIGH(), RB6_Int_APP_ISR_HIGH(), RB7_Int_APP_ISR_HIGH(), 
		 -> NULL(), 

    RB7_InterruptHandler_LOW	PTR FTN()void  size(2) Largest target is 1
		 -> RB4_Int_APP_ISR_LOW(), RB5_Int_APP_ISR_LOW(), RB6_Int_APP_ISR_LOW(), RB7_Int_APP_ISR_LOW(), 
		 -> NULL(), 

    RB7_obj$EXT_InterruptHandler_HIGH	PTR FTN()void  size(2) Largest target is 1
		 -> RB4_Int_APP_ISR_HIGH(), RB5_Int_APP_ISR_HIGH(), RB6_Int_APP_ISR_HIGH(), RB7_Int_APP_ISR_HIGH(), 

    RB7_obj$EXT_InterruptHandler_LOW	PTR FTN()void  size(2) Largest target is 1
		 -> RB4_Int_APP_ISR_LOW(), RB5_Int_APP_ISR_LOW(), RB6_Int_APP_ISR_LOW(), RB7_Int_APP_ISR_LOW(), 

    S1001$EXT_InterruptHandler	PTR FTN()void  size(2) Largest target is 0

    S1099$EXT_InterruptHandler_HIGH	PTR FTN()void  size(2) Largest target is 1
		 -> RB4_Int_APP_ISR_HIGH(), RB5_Int_APP_ISR_HIGH(), RB6_Int_APP_ISR_HIGH(), RB7_Int_APP_ISR_HIGH(), 

    S1099$EXT_InterruptHandler_LOW	PTR FTN()void  size(2) Largest target is 1
		 -> RB4_Int_APP_ISR_LOW(), RB5_Int_APP_ISR_LOW(), RB6_Int_APP_ISR_LOW(), RB7_Int_APP_ISR_LOW(), 

    S1909$buffer	PTR unsigned char  size(2) Largest target is 0

    S1909$source	PTR const unsigned char  size(2) Largest target is 0

    sp__memset	PTR void  size(2) Largest target is 0

    tris_registers	PTR volatile unsigned char [5] size(2) Largest target is 1
		 -> TRISA(BITBIGSFRlll[1]), TRISB(BITBIGSFRhll[1]), TRISC(BITBIGSFRhll[1]), TRISD(BITBIGSFRhll[1]), 
		 -> TRISE(BITBIGSFRhll[1]), 

    vfprintf$0	PTR struct _IO_FILE size(1) Largest target is 12
		 -> sprintf@f(COMRAM[12]), 

    vfprintf$1	PTR const unsigned char  size(1) Largest target is 3
		 -> STR_1(CODE[3]), STR_2(CODE[3]), STR_3(CODE[3]), 

    vfprintf$2	PTR PTR void  size(1) Largest target is 1
		 -> sprintf@ap(COMRAM[1]), 


Critical Paths under _main in COMRAM

    None.

Critical Paths under _InterruptManager in COMRAM

    _InterruptManager->_RB4_ISR
    _InterruptManager->_RB5_ISR
    _InterruptManager->_RB6_ISR
    _InterruptManager->_RB7_ISR
    _RB7_Int_APP_ISR_LOW->_led_turn_off
    _RB7_Int_APP_ISR_HIGH->_led_turn_off
    _RB6_Int_APP_ISR_LOW->_led_turn_on
    _RB6_Int_APP_ISR_HIGH->_led_turn_on
    _RB5_Int_APP_ISR_LOW->_led_turn_off
    _RB5_Int_APP_ISR_HIGH->_led_turn_off
    _led_turn_off->i2_gpio_pin_write_logic
    _RB4_Int_APP_ISR_LOW->_led_turn_on
    _RB4_Int_APP_ISR_HIGH->_led_turn_on
    _led_turn_on->i2_gpio_pin_write_logic

Critical Paths under _main in BANK0

    _main->_led_initialize
    _led_initialize->_gpio_pin_intialize
    _gpio_pin_intialize->_gpio_pin_write_logic
    _Interrupt_RBx_Init->_gpio_pin_direction_intialize

Critical Paths under _InterruptManager in BANK0

    None.

Critical Paths under _main in BANK1

    None.

Critical Paths under _InterruptManager in BANK1

    None.

Critical Paths under _main in BANK2

    None.

Critical Paths under _InterruptManager in BANK2

    None.

Critical Paths under _main in BANK3

    None.

Critical Paths under _InterruptManager in BANK3

    None.

Critical Paths under _main in BANK4

    None.

Critical Paths under _InterruptManager in BANK4

    None.

Critical Paths under _main in BANK5

    None.

Critical Paths under _InterruptManager in BANK5

    None.

Critical Paths under _main in BANK6

    None.

Critical Paths under _InterruptManager in BANK6

    None.

Critical Paths under _main in BANK7

    None.

Critical Paths under _InterruptManager in BANK7

    None.

Critical Paths under _main in BANK8

    None.

Critical Paths under _InterruptManager in BANK8

    None.

Critical Paths under _main in BANK9

    None.

Critical Paths under _InterruptManager in BANK9

    None.

Critical Paths under _main in BANK10

    None.

Critical Paths under _InterruptManager in BANK10

    None.

Critical Paths under _main in BANK11

    None.

Critical Paths under _InterruptManager in BANK11

    None.

Critical Paths under _main in BANK12

    None.

Critical Paths under _InterruptManager in BANK12

    None.

Critical Paths under _main in BANK13

    None.

Critical Paths under _InterruptManager in BANK13

    None.

Critical Paths under _main in BANK14

    None.

Critical Paths under _InterruptManager in BANK14

    None.

Critical Paths under _main in BANK15

    None.

Critical Paths under _InterruptManager in BANK15

    None.

Call Graph Tables:

 ---------------------------------------------------------------------------------
 (Depth) Function   	        Calls       Base Space   Used Autos Params    Refs
 ---------------------------------------------------------------------------------
 (0) _main                                                 0     0      0   10024
                 _Interrupt_RBx_Init
                     _led_initialize
 ---------------------------------------------------------------------------------
 (1) _led_initialize                                       4     3      1    8573
                                             11 BANK0      4     3      1
                 _gpio_pin_intialize
 ---------------------------------------------------------------------------------
 (2) _gpio_pin_intialize                                   3     2      1    7952
                                              8 BANK0      3     2      1
       _gpio_pin_direction_intialize
               _gpio_pin_write_logic
 ---------------------------------------------------------------------------------
 (3) _gpio_pin_write_logic                                 8     6      2    5697
                                              0 BANK0      8     6      2
 ---------------------------------------------------------------------------------
 (1) _Interrupt_RBx_Init                                   2     1      1    1451
                                              7 BANK0      2     1      1
       _gpio_pin_direction_intialize
 ---------------------------------------------------------------------------------
 (3) _gpio_pin_direction_intialize                         7     6      1     707
                                              0 BANK0      7     6      1
 ---------------------------------------------------------------------------------
 Estimated maximum stack depth 3
 ---------------------------------------------------------------------------------
 (Depth) Function   	        Calls       Base Space   Used Autos Params    Refs
 ---------------------------------------------------------------------------------
 (4) _InterruptManager                                     6     6      0   31288
                                             12 COMRAM     6     6      0
                           _INT0_ISR
                           _INT1_ISR
                           _INT2_ISR
                            _RB4_ISR
                            _RB5_ISR
                            _RB6_ISR
                            _RB7_ISR
 ---------------------------------------------------------------------------------
 (5) _RB7_ISR                                              1     1      0    7822
                                             11 COMRAM     1     1      0
                                NULL *
               _RB4_Int_APP_ISR_HIGH *
                _RB4_Int_APP_ISR_LOW *
               _RB5_Int_APP_ISR_HIGH *
                _RB5_Int_APP_ISR_LOW *
               _RB6_Int_APP_ISR_HIGH *
                _RB6_Int_APP_ISR_LOW *
               _RB7_Int_APP_ISR_HIGH *
                _RB7_Int_APP_ISR_LOW *
 ---------------------------------------------------------------------------------
 (5) _RB6_ISR                                              1     1      0    7822
                                             11 COMRAM     1     1      0
                                NULL *
               _RB4_Int_APP_ISR_HIGH *
                _RB4_Int_APP_ISR_LOW *
               _RB5_Int_APP_ISR_HIGH *
                _RB5_Int_APP_ISR_LOW *
               _RB6_Int_APP_ISR_HIGH *
                _RB6_Int_APP_ISR_LOW *
               _RB7_Int_APP_ISR_HIGH *
                _RB7_Int_APP_ISR_LOW *
 ---------------------------------------------------------------------------------
 (5) _RB5_ISR                                              1     1      0    7822
                                             11 COMRAM     1     1      0
                                NULL *
               _RB4_Int_APP_ISR_HIGH *
                _RB4_Int_APP_ISR_LOW *
               _RB5_Int_APP_ISR_HIGH *
                _RB5_Int_APP_ISR_LOW *
               _RB6_Int_APP_ISR_HIGH *
                _RB6_Int_APP_ISR_LOW *
               _RB7_Int_APP_ISR_HIGH *
                _RB7_Int_APP_ISR_LOW *
 ---------------------------------------------------------------------------------
 (5) _RB4_ISR                                              1     1      0    7822
                                             11 COMRAM     1     1      0
                                NULL *
               _RB4_Int_APP_ISR_HIGH *
                _RB4_Int_APP_ISR_LOW *
               _RB5_Int_APP_ISR_HIGH *
                _RB5_Int_APP_ISR_LOW *
               _RB6_Int_APP_ISR_HIGH *
                _RB6_Int_APP_ISR_LOW *
               _RB7_Int_APP_ISR_HIGH *
                _RB7_Int_APP_ISR_LOW *
 ---------------------------------------------------------------------------------
 (6) _RB7_Int_APP_ISR_LOW                                  0     0      0     970
                       _led_turn_off
 ---------------------------------------------------------------------------------
 (6) _RB7_Int_APP_ISR_HIGH                                 0     0      0     970
                       _led_turn_off
 ---------------------------------------------------------------------------------
 (6) _RB6_Int_APP_ISR_LOW                                  0     0      0     970
                        _led_turn_on
 ---------------------------------------------------------------------------------
 (6) _RB6_Int_APP_ISR_HIGH                                 0     0      0     970
                        _led_turn_on
 ---------------------------------------------------------------------------------
 (6) _RB5_Int_APP_ISR_LOW                                  0     0      0     970
                       _led_turn_off
 ---------------------------------------------------------------------------------
 (6) _RB5_Int_APP_ISR_HIGH                                 0     0      0     970
                       _led_turn_off
 ---------------------------------------------------------------------------------
 (7) _led_turn_off                                         4     3      1     970
                                              7 COMRAM     4     3      1
             i2_gpio_pin_write_logic
 ---------------------------------------------------------------------------------
 (6) _RB4_Int_APP_ISR_LOW                                  0     0      0     970
                        _led_turn_on
 ---------------------------------------------------------------------------------
 (6) _RB4_Int_APP_ISR_HIGH                                 0     0      0     970
                        _led_turn_on
 ---------------------------------------------------------------------------------
 (7) _led_turn_on                                          4     3      1     970
                                              7 COMRAM     4     3      1
             i2_gpio_pin_write_logic
 ---------------------------------------------------------------------------------
 (8) i2_gpio_pin_write_logic                               8     6      2     373
                                              0 COMRAM     7     5      2
 ---------------------------------------------------------------------------------
 (6) NULL(Fake)                                            0     0      0       0
 ---------------------------------------------------------------------------------
 (5) _INT2_ISR                                             0     0      0       0
 ---------------------------------------------------------------------------------
 (5) _INT1_ISR                                             0     0      0       0
 ---------------------------------------------------------------------------------
 (5) _INT0_ISR                                             0     0      0       0
 ---------------------------------------------------------------------------------
 Estimated maximum stack depth 8
 ---------------------------------------------------------------------------------

 Call Graph Graphs:

 _main (ROOT)
   _Interrupt_RBx_Init
     _gpio_pin_direction_intialize
   _led_initialize
     _gpio_pin_intialize
       _gpio_pin_direction_intialize
       _gpio_pin_write_logic

 _InterruptManager (ROOT)
   _INT0_ISR
   _INT1_ISR
   _INT2_ISR
   _RB4_ISR
     NULL(Fake) *
     _RB4_Int_APP_ISR_HIGH *
       _led_turn_on
         i2_gpio_pin_write_logic
     _RB4_Int_APP_ISR_LOW *
       _led_turn_on
     _RB5_Int_APP_ISR_HIGH *
       _led_turn_off
         i2_gpio_pin_write_logic
     _RB5_Int_APP_ISR_LOW *
       _led_turn_off
     _RB6_Int_APP_ISR_HIGH *
       _led_turn_on
     _RB6_Int_APP_ISR_LOW *
       _led_turn_on
     _RB7_Int_APP_ISR_HIGH *
       _led_turn_off
     _RB7_Int_APP_ISR_LOW *
       _led_turn_off
   _RB5_ISR
     NULL(Fake) *
     _RB4_Int_APP_ISR_HIGH *
     _RB4_Int_APP_ISR_LOW *
     _RB5_Int_APP_ISR_HIGH *
     _RB5_Int_APP_ISR_LOW *
     _RB6_Int_APP_ISR_HIGH *
     _RB6_Int_APP_ISR_LOW *
     _RB7_Int_APP_ISR_HIGH *
     _RB7_Int_APP_ISR_LOW *
   _RB6_ISR
     NULL(Fake) *
     _RB4_Int_APP_ISR_HIGH *
     _RB4_Int_APP_ISR_LOW *
     _RB5_Int_APP_ISR_HIGH *
     _RB5_Int_APP_ISR_LOW *
     _RB6_Int_APP_ISR_HIGH *
     _RB6_Int_APP_ISR_LOW *
     _RB7_Int_APP_ISR_HIGH *
     _RB7_Int_APP_ISR_LOW *
   _RB7_ISR
     NULL(Fake) *
     _RB4_Int_APP_ISR_HIGH *
     _RB4_Int_APP_ISR_LOW *
     _RB5_Int_APP_ISR_HIGH *
     _RB5_Int_APP_ISR_LOW *
     _RB6_Int_APP_ISR_HIGH *
     _RB6_Int_APP_ISR_LOW *
     _RB7_Int_APP_ISR_HIGH *
     _RB7_Int_APP_ISR_LOW *

 Address spaces:
Name               Size   Autos  Total    Cost      Usage
BIGRAM             F5F      0       0      42        0.0%
EEDATA             400      0       0       0        0.0%
BITBANK14          100      0       0      32        0.0%
BANK14             100      0       0      33        0.0%
BITBANK13          100      0       0      30        0.0%
BANK13             100      0       0      31        0.0%
BITBANK12          100      0       0      28        0.0%
BANK12             100      0       0      29        0.0%
BITBANK11          100      0       0      26        0.0%
BANK11             100      0       0      27        0.0%
BITBANK10          100      0       0      24        0.0%
BANK10             100      0       0      25        0.0%
BITBANK9           100      0       0      22        0.0%
BANK9              100      0       0      23        0.0%
BITBANK8           100      0       0      20        0.0%
BANK8              100      0       0      21        0.0%
BITBANK7           100      0       0      18        0.0%
BANK7              100      0       0      19        0.0%
BITBANK6           100      0       0      16        0.0%
BANK6              100      0       0      17        0.0%
BITBANK5           100      0       0      14        0.0%
BANK5              100      0       0      15        0.0%
BITBANK4           100      0       0      12        0.0%
BANK4              100      0       0      13        0.0%
BITBANK3           100      0       0      10        0.0%
BANK3              100      0       0      11        0.0%
BITBANK2           100      0       0       8        0.0%
BANK2              100      0       0       9        0.0%
BITBANK1           100      0       0       6        0.0%
BANK1              100      0       0       7        0.0%
BITBANK0            A0      0       0       4        0.0%
BANK0               A0      F      31       5       30.6%
BITBANK15           60      0       0      34        0.0%
BANK15              60      0       0      35        0.0%
BITCOMRAM           5E      0       0       0        0.0%
COMRAM              5E     12      4C       1       80.9%
BITBIGSFRhll        59      0       0      37        0.0%
BITBIGSFRlll        20      0       0      40        0.0%
BITBIGSFRhh          D      0       0      36        0.0%
BITBIGSFRllh         4      0       0      39        0.0%
BITBIGSFRlh          4      0       0      38        0.0%
BIGSFR               0      0       0     200        0.0%
BITSFR               0      0       0     200        0.0%
SFR                  0      0       0     200        0.0%
STACK                0      0       0       2        0.0%
NULL                 0      0       0       0        0.0%
ABS                  0      0      7D      41        0.0%
DATA                 0      0      7D       3        0.0%
CODE                 0      0       0       0        0.0%


Microchip Technology PIC18 Macro Assembler V2.46 build 20240104201356 
Symbol Table                                                                                   Mon Aug 26 23:46:50 2024

                     ??_InterruptManager 0046                     ?_RB7_Int_APP_ISR_LOW 003A  
                  ?_RB7_Int_APP_ISR_HIGH 003A                     ??_Interrupt_RBx_Init 004C  
                                    l408 1242                                      l290 16BE  
                                    l429 1872                                      l622 1346  
                                    l286 1668                                      l618 125E  
                                    l627 134A                                      l389 112C  
                                    l768 1808                                      l769 1808  
              _RB5_InterruptHandler_HIGH 000B                                      _ret 004C  
                    led_initialize@F3310 001D                                      tosl 0FFD  
                                    wreg 0FE8                    relay_initialize@F3304 0019  
                           ?_led_turn_on 0041                          __end_of_RB4_ISR 164A  
                        __end_of_RB5_ISR 15CC                          __end_of_RB6_ISR 154E  
                        __end_of_RB7_ISR 14D0                                     l4101 1278  
                                   l4111 12D2                                     l4103 128A  
                                   l4031 16A0                                     l4023 164A  
                                   l4113 12E4                                     l4105 129C  
                                   l4121 1310                                     l4033 16B2  
                                   l4025 1660                                     l4115 12F6  
                                   l4107 12AE                                     l4123 1348  
                                   l4027 166C                                     l4035 16BA  
                                   l4117 1308                                     l4109 12C0  
                                   l4029 169E                                     l4095 1244  
                                   l4097 1256                                     l3811 10AC  
                                   l3803 1016                                     l4099 1266  
                                   l3805 102C                                     l3815 10FE  
                                   l3807 104C                                     l3809 1054  
                                   l3817 112A                                     l3781 112E  
                                   l3861 1870                                     l3853 1810  
                                   l3783 1144                                     l3855 1822  
                                   l4737 122A                                     l3793 1216  
                                   l3785 1164                                     l3857 1842  
                                   l3787 116C                                     l3795 1240  
                                   l3859 184A                                     l3789 11C4  
                                   l4695 17A8                                     STR_1 1011  
                                   _LATA 0F89                                     _LATB 0F8A  
                                   _LATC 0F8B                                     _LATD 0F8C  
                                   _LATE 0F8D                                     u4020 1256  
                                   u4021 1252                                     u3520 102C  
                                   u3504 118A                                     u3521 1028  
                                   u3505 1186                                     u3530 104C  
                                   u3514 11E2                                     u3610 1822  
                                   u3531 1048                                     u3515 11DE  
                                   u3611 181E                                     u3620 1842  
                                   u3621 183E                                     u3560 1114  
                                   u3544 1072                                     u3480 1144  
                                   u3561 110E                                     u3545 106E  
                                   u3481 1140                                     u3554 10CA  
                                   u3490 1164                                     u3555 10C6  
                                   u3491 1160                                     u3566 1116  
                                   u3760 1660                                     u3761 165C  
                                   u3775 16AE                                     u3777 16B2  
               _RB4_InterruptHandler_LOW 000D                                     _main 17A8  
               _RB7_InterruptHandler_LOW 0001                                     fsr2h 0FDA  
                                   indf2 0FDF                                     fsr1l 0FE1  
                                   fsr2l 0FD9                                     btemp 004D  
                 __end_of_led_initialize 16C0                                     prodh 0FF4  
                                   prodl 0FF3                                     start 02BE  
                          ?_led_turn_off 0041                    ??_RB7_Int_APP_ISR_LOW 0045  
                           ___param_bank 0000                     _gpio_pin_write_logic 112E  
                       __end_of_INT0_ISR 1974                         __end_of_INT1_ISR 1970  
                       __end_of_INT2_ISR 196C                                    ?_main 003A  
                                  i2l300 16DC                                    i2l304 1732  
                                  i2l500 010A                                    i2l502 014E  
                                  i2l511 02A2                                    i2l408 1450  
                                  i2l600 154C                                    i2l505 01D6  
                                  i2l610 14CE                                    i2l508 025E  
                                  i2l293 1750                                    i2l297 17A6  
                                  i2l562 1972                                    i2l570 196A  
                                  i2l580 1648                                    i2l492 0042  
                                  i2l566 196E                                    i2l590 15CA  
                                  i2l494 0062                                    i2l496 0082  
                                  i2l498 00C6                                    i2l780 192A  
                                  i2l783 194E                                    i2l792 1912  
                                  i2l777 195A                                    i2l786 191E  
                                  i2l795 1966                                    i2l789 1942  
                                  i2l798 1936                      relay_turn_off@F3314 0017  
                                  _PORTA 0F80                                    _PORTB 0F81  
                                  _PORTC 0F82                                    _PORTD 0F83  
                                  _PORTE 0F84                                    _TRISA 0F92  
                                  _TRISB 0F93                                    _TRISC 0F94  
                                  _TRISD 0F95                                    _TRISE 0F96  
                                  _led_1 0039                                    _led_2 0038  
                                  _led_3 0037                                    _led_4 0036  
                                  pclath 0FFA                                    pclatu 0FFB  
                                  tablat 0FF5                                    ttemp5 004E  
                                  ttemp6 0051                                    ttemp7 0055  
                                  status 0FD8                                    wtemp8 004E  
                        ?_led_initialize 008D                           ??_led_turn_off 0042  
                 ??_RB7_Int_APP_ISR_HIGH 0045                          __initialization 1874  
            __end_of_RB4_Int_APP_ISR_LOW 192C                             __end_of_main 1810  
                  ?_gpio_pin_write_logic 0082              i2gpio_pin_write_logic@logic 003B  
                          _lat_registers 001E                                   ??_main 004C  
                          __activetblptr 0003                         led_turn_on@F3315 001C  
                              ??_RB4_ISR 0045                                ??_RB5_ISR 0045  
                              ??_RB6_ISR 0045                                ??_RB7_ISR 0045  
                                 i2l4041 15D0                                   i2l4051 1630  
                                 i2l4043 15E0                                   i2l4045 15F2  
                                 i2l4061 1590                                   i2l4053 1550  
                                 i2l4047 160E                                   i2l4039 15CE  
                                 i2l4063 15A0                                   i2l4055 1552  
                                 i2l4071 14E4                                   i2l4049 161E  
                                 i2l4065 15B2                                   i2l4057 1562  
                                 i2l4073 14F6                                   i2l4081 1454  
                                 i2l1771 196C                                   i2l4059 1574  
                                 i2l4075 1512                                   i2l4067 14D2  
                                 i2l4091 14A4                                   i2l4083 1456  
                                 i2l4077 1522                                   i2l4069 14D4  
                                 i2l4093 14B6                                   i2l4085 1466  
                                 i2l1767 1970                                   i2l1775 1968  
                                 i2l4079 1534                                   i2l4087 1478  
                                 i2l4089 1494                                   i2l4601 0104  
                                 i2l4611 0148                                   i2l4603 0118  
                                 i2l3821 1734                                   i2l4621 018C  
                                 i2l4613 015C                                   i2l4605 0126  
                                 i2l3831 1798                                   i2l3823 1748  
                                 i2l4631 01CC                                   i2l4615 016A  
                                 i2l4623 0192                                   i2l4607 0134  
                                 i2l3825 1754                                   i2l3833 17A4  
                                 i2l3841 16E0                                   i2l4641 0210  
                                 i2l4633 01D0                                   i2l4625 01A0  
                                 i2l4617 0178                                   i2l4609 0144  
                                 i2l3771 13D6                                   i2l3763 134C  
                                 i2l3827 1786                                   i2l3843 1712  
                                 i2l4651 0244                                   i2l4643 0214  
                                 i2l4635 01E4                                   i2l4627 01AE  
                                 i2l4619 0188                                   i2l4571 0030  
                                 i2l3765 135C                                   i2l3829 1788  
                                 i2l3845 1714                                   i2l3837 16C0  
                                 i2l4661 0288                                   i2l4653 0254  
                                 i2l4637 01F2                                   i2l4645 021A  
                                 i2l4629 01BC                                   i2l4581 007E  
                                 i2l4573 003E                                   i2l3775 1426  
                                 i2l3767 137C                                   i2l3847 1724  
                                 i2l3839 16D4                                   i2l3951 1914  
                                 i2l4663 0298                                   i2l4655 0258  
                                 i2l4647 0228                                   i2l4639 0200  
                                 i2l4591 00C0                                   i2l4583 0090  
                                 i2l4575 0050                                   i2l3769 1380  
                                 i2l3849 1730                                   i2l3945 1950  
                                 i2l3953 1938                                   i2l4665 029C  
                                 i2l4657 026C                                   i2l4649 0236  
                                 i2l4593 00D4                                   i2l4585 009E  
                                 i2l4577 005E                                   i2l4569 0022  
                                 i2l4739 143A                                   i2l3947 1920  
                                 i2l3955 1908                                   i2l4659 027A  
                                 i2l4595 00E2                                   i2l4587 00AC  
                                 i2l4579 0070                                   i2l3957 195C  
                                 i2l3949 1944                                   i2l4597 00F0  
                                 i2l4589 00BC                                   i2l3959 192C  
                                 i2l4599 0100                                   clear_0 18BA  
                  led_initialize@pin_obj 0090                                   isa$std 0001  
            __end_of_RB5_Int_APP_ISR_LOW 1920  gpio_pin_direction_intialize@_pin_config 0082  
                           __pdataCOMRAM 001E                             __mediumconst 0000  
                                 tblptrh 0FF7                                   tblptrl 0FF6  
                                 tblptru 0FF8                               __accesstop 0060  
                __end_of__initialization 18C0                                ?_INT0_ISR 003A  
                              ?_INT1_ISR 003A                                ?_INT2_ISR 003A  
                          ___rparam_used 0001                        led_initialize@led 008D  
                      led_initialize@ret 008F                   ??_gpio_pin_write_logic 0084  
                         __pcstackCOMRAM 003A             __end_of_RB4_Int_APP_ISR_HIGH 195C  
                           __pidataBANK0 18CA                        RB5_ISR@RB5_source 0045  
                   __end_of_led_turn_off 1734              __end_of_RB6_Int_APP_ISR_LOW 1914  
                  _INT0_InterruptHandler 0015                               ??_INT0_ISR 003A  
                             ??_INT1_ISR 003A                               ??_INT2_ISR 003A  
                             __pnvCOMRAM 004C                        led_turn_off@F3320 001B  
                                _RB4_ISR 15CC                                  _RB5_ISR 154E  
                                _RB6_ISR 14D0                                  _RB7_ISR 1452  
              _RB6_InterruptHandler_HIGH 0007                                  _RB4_obj 007C  
                                _RB5_obj 0076                                  _RB6_obj 0070  
                                _RB7_obj 006A                     led_turn_toggle@F3325 001A  
                      RB7_ISR@RB7_source 0045                         ??_led_initialize 008E  
                             _btn_values 1001                           _tris_registers 0028  
            __end_of_RB7_Int_APP_ISR_LOW 1938                 _RB6_InterruptHandler_LOW 0005  
                                __Hparam 0000                                  __Lparam 0000  
                           __psmallconst 1000               __end_of_gpio_pin_intialize 1874  
                                __pcinit 1874                                  __ramtop 1000  
                                __ptext0 17A8                                  __ptext1 164A  
                                __ptext2 1810                                  __ptext3 112E  
                                __ptext4 1244                                  __ptext5 1016  
                                __ptext7 1452                                  __ptext8 14D0  
                                __ptext9 154E             __end_of_RB5_Int_APP_ISR_HIGH 1950  
               ??i2_gpio_pin_write_logic 003C                     _RB4_Int_APP_ISR_HIGH 1950  
                   end_of_initialization 18C0                    gpio_pin_intialize@ret 008C  
                    led_turn_off@pin_obj 0044                                  postdec1 0FE5  
                                postdec2 0FDD                                  postinc0 0FEE  
                                postinc2 0FDE                    _INT1_InterruptHandler 0013  
                              _PORTBbits 0F81                         _InterruptManager 0008  
          gpio_pin_intialize@_pin_config 008A     __end_of_gpio_pin_direction_intialize 112E  
           _gpio_pin_direction_intialize 1016                    ?_RB4_Int_APP_ISR_HIGH 003A  
                           _led_turn_off 16C0                       relay_turn_on@F3309 0018  
              Interrupt_RBx_Init@int_obj 0089                            __pidataCOMRAM 18EC  
                  Interrupt_RBx_Init@ret 008A                      start_initialization 1874  
                          ??_led_turn_on 0042            ?_gpio_pin_direction_intialize 0082  
                        led_turn_off@led 0041                          led_turn_off@ret 0043  
           __end_of_RB6_Int_APP_ISR_HIGH 1944                     _RB5_Int_APP_ISR_HIGH 1944  
                            __pdataBANK0 0060                                 ?_RB4_ISR 003A  
                               ?_RB5_ISR 003A                                 ?_RB6_ISR 003A  
                               ?_RB7_ISR 003A                              __pbssCOMRAM 0001  
                          __pcstackBANK0 0082                   ??_RB4_Int_APP_ISR_HIGH 0045  
                    __end_of_led_turn_on 17A8                    _INT2_InterruptHandler 0011  
        gpio_pin_direction_intialize@ret 0088                                __pintcode 0008  
             __end_of_Interrupt_RBx_Init 134C                    ?_RB5_Int_APP_ISR_HIGH 003A  
                 i2_gpio_pin_write_logic 134C        i2gpio_pin_write_logic@_pin_config 003A  
        gpio_pin_write_logic@_pin_config 0082                gpio_pin_write_logic@logic 0083  
                            __smallconst 1000                _RB4_InterruptHandler_HIGH 000F  
              _RB7_InterruptHandler_HIGH 0003                       _gpio_pin_intialize 1810  
         ??_gpio_pin_direction_intialize 0083                 _RB5_InterruptHandler_LOW 0009  
                               _INT0_ISR 1970                                 _INT1_ISR 196C  
                               _INT2_ISR 1968                                 _RB4_Flag 0035  
                               _RB5_Flag 0034                      _RB4_Int_APP_ISR_LOW 1920  
                               _RB6_Flag 0033                                 _RB7_Flag 0032  
                    ?_gpio_pin_intialize 008A                 __end_of_InterruptManager 02BE  
                               i2u400_40 14B6                                 i2u400_41 14B2  
                               i2u401_48 14BC                                 i2u401_49 14CE  
                               i2u344_40 135C                                 i2u344_41 1358  
                               i2u360_45 1722                                 i2u360_47 1724  
                               i2u345_40 137C                                 i2u345_41 1378  
                               i2u450_40 0050                                 i2u450_41 004C  
                               i2u346_44 139E                                 i2u346_45 139A  
                               i2u451_40 005E                                 i2u451_41 005A  
                               i2u347_44 13F4                                 i2u347_45 13F0  
                               i2u460_40 00F0                                 i2u452_40 0070  
                               i2u460_41 00EC                                 i2u452_41 006C  
                               i2u357_40 1748                                 i2u381_40 161E  
                               i2u380_48 15F8                                 i2u461_40 0100  
                               i2u453_40 007E                                 i2u357_41 1744  
                               i2u381_41 161A                                 i2u380_49 160A  
                               i2u461_41 00FC                                 i2u453_41 007A  
                               i2u382_40 1630                                 i2u390_40 14E4  
                               i2u470_40 01A0                                 i2u462_40 0118  
                               i2u454_40 0090                                 i2u382_41 162C  
                               i2u390_41 14E0                                 i2u470_41 019C  
                               i2u462_41 0114                                 i2u454_41 008C  
                     led_turn_on@pin_obj 0044                                 i2u358_45 1796  
                               i2u358_47 1798                                 i2u359_40 16D4  
                               i2u391_40 14F6                                 i2u471_40 01AE  
                               i2u463_40 0126                                 i2u455_40 009E  
                               i2u359_41 16D0                                 i2u391_41 14F2  
                               i2u471_41 01AA                                 i2u463_41 0122  
                               i2u455_41 009A                                 i2u383_48 1636  
                               i2u384_40 1562                                 i2u480_40 0244  
                               i2u472_40 01BC                                 i2u464_40 0134  
                               i2u456_40 00AC                                 i2u448_40 0030  
                               i2u383_49 1648                                 i2u384_41 155E  
                               i2u480_41 0240                                 i2u472_41 01B8  
                               i2u464_41 0130                                 i2u456_41 00A8  
                               i2u448_41 002C                                 i2u385_40 1574  
                               i2u393_40 1522                                 i2u392_48 14FC  
                               i2u481_40 0254                                 i2u473_40 01CC  
                               i2u465_40 0144                                 i2u457_40 00BC  
                               i2u449_40 003E                                 i2u385_41 1570  
                               i2u393_41 151E                                 i2u392_49 150E  
                               i2u481_41 0250                                 i2u473_41 01C8  
                               i2u465_41 0140                                 i2u457_41 00B8  
                               i2u449_41 003A                                 i2u378_40 15E0  
                               i2u394_40 1534                                 i2u482_40 026C  
                               i2u474_40 01E4                                 i2u466_40 015C  
                               i2u458_40 00D4                                 i2u378_41 15DC  
                               i2u394_41 1530                                 i2u482_41 0268  
                               i2u474_41 01E0                                 i2u466_41 0158  
                               i2u458_41 00D0                                 i2u379_40 15F2  
                               i2u387_40 15A0                                 i2u386_48 157A  
                               i2u483_40 027A                                 i2u475_40 01F2  
                               i2u467_40 016A                                 i2u459_40 00E2  
                               i2u379_41 15EE                                 i2u387_41 159C  
                               i2u386_49 158C                                 i2u483_41 0276  
                               i2u475_41 01EE                                 i2u467_41 0166  
                               i2u459_41 00DE                                 i2u388_40 15B2  
                               i2u395_48 153A                                 i2u396_40 1466  
                               i2u484_40 0288                                 i2u476_40 0200  
                               i2u468_40 0178                                 i2u388_41 15AE  
                               i2u395_49 154C                                 i2u396_41 1462  
                               i2u484_41 0284                                 i2u476_41 01FC  
                               i2u468_41 0174                                 i2u397_40 1478  
                               i2u485_40 0298                                 i2u477_40 0210  
                               i2u469_40 0188                                 i2u397_41 1474  
                               i2u485_41 0294                                 i2u477_41 020C  
                               i2u469_41 0184                                 i2u389_48 15B8  
                               i2u478_40 0228                                 i2u389_49 15CA  
                               i2u478_41 0224                                 i2u399_40 14A4  
                               i2u398_48 147E                                 i2u479_40 0236  
                               i2u399_41 14A0                                 i2u398_49 1490  
                               i2u479_41 0232                        RB4_ISR@RB4_source 0045  
                   ?_RB4_Int_APP_ISR_LOW 003A                     ??_gpio_pin_intialize 008B  
                            _led_turn_on 1734             __end_of_RB7_Int_APP_ISR_HIGH 1968  
                gpio_pin_write_logic@ret 0089                     _RB6_Int_APP_ISR_HIGH 1938  
                            _INTCON2bits 0FF1                              _INTCON3bits 0FF0  
                              copy_data0 1888                                copy_data1 18A8  
                         led_turn_on@led 0041                           led_turn_on@ret 0043  
                               __Hrparam 0000                   ??_RB5_Int_APP_ISR_HIGH 0045  
                               __Lrparam 0000                      _RB5_Int_APP_ISR_LOW 1914  
                  ??_RB4_Int_APP_ISR_LOW 0045                       __end_of_btn_values 1011  
                      RB6_ISR@RB6_source 0045                     ?_RB5_Int_APP_ISR_LOW 003A  
                               __ptext10 15CC                                 __ptext11 1908  
                               __ptext20 1734                                 __ptext12 1914  
                               __ptext21 134C                                 __ptext13 1920  
                               __ptext22 1968                                 __ptext14 192C  
                               __ptext23 196C                                 __ptext15 1938  
                               __ptext24 1970                                 __ptext16 1944  
                               __ptext17 1950                                 __ptext18 195C  
                               __ptext19 16C0                    ?_RB6_Int_APP_ISR_HIGH 003A  
                               isa$xinst 0000                                 int$flags 004D  
                    _RB6_Int_APP_ISR_LOW 1908                               _INTCONbits 0FF2  
                  ??_RB5_Int_APP_ISR_LOW 0045             __end_of_gpio_pin_write_logic 1244  
                               intlevel2 0000                     ?_RB6_Int_APP_ISR_LOW 003A  
                ?i2_gpio_pin_write_logic 003A                     _RB7_Int_APP_ISR_HIGH 195C  
                         _port_registers 0060                       _Interrupt_RBx_Init 1244  
                 ??_RB6_Int_APP_ISR_HIGH 0045                      _RB7_Int_APP_ISR_LOW 192C  
                    ?_Interrupt_RBx_Init 0089                    ??_RB6_Int_APP_ISR_LOW 0045  
         __end_ofi2_gpio_pin_write_logic 1452                        ?_InterruptManager 003A  
                         _led_initialize 164A  
