

Microchip MPLAB XC8 Assembler V2.46 build 20240104201356 
                                                                                               Tue Sep 17 20:11:40 2024

Microchip MPLAB XC8 C Compiler v2.46 (Free license) build 20240104201356 Og1 
     1                           	processor	18F46K20
     2                           	fnconf	rparam,??,?,0
     3                           	pagewidth 120
     4                           	opt	flic
     5                           	psect	idataCOMRAM,global,class=CODE,delta=1,noexec
     6                           	psect	idataBANK0,global,class=CODE,delta=1,noexec
     7                           	psect	smallconst,global,reloc=2,class=SMALLCONST,delta=1,noexec
     8                           	psect	cinit,global,reloc=2,class=CODE,delta=1
     9                           	psect	bssCOMRAM,global,class=COMRAM,space=1,delta=1,lowdata,noexec
    10                           	psect	dataCOMRAM,global,class=COMRAM,space=1,delta=1,lowdata,noexec
    11                           	psect	bssBANK0,global,class=BANK0,space=1,delta=1,lowdata,noexec
    12                           	psect	dataBANK0,global,class=BANK0,space=1,delta=1,lowdata,noexec
    13                           	psect	cstackCOMRAM,global,class=COMRAM,space=1,delta=1,lowdata,noexec
    14                           	psect	text0,global,reloc=2,class=CODE,delta=1
    15                           	psect	text1,global,reloc=2,class=CODE,delta=1
    16                           	psect	text2,global,reloc=2,class=CODE,delta=1
    17                           	psect	text3,global,reloc=2,class=CODE,delta=1,inline
    18                           	psect	intcode,global,reloc=2,class=CODE,delta=1
    19                           	psect	text5,global,reloc=2,class=CODE,delta=1
    20                           	psect	text6,global,reloc=2,class=CODE,delta=1
    21                           	psect	text7,global,reloc=2,class=CODE,delta=1
    22                           	psect	text8,global,reloc=2,class=CODE,delta=1
    23                           	psect	text9,global,reloc=2,class=CODE,delta=1
    24                           	psect	text10,global,reloc=2,class=CODE,delta=1
    25                           	psect	text11,global,reloc=2,class=CODE,delta=1
    26                           	psect	text12,global,reloc=2,class=CODE,delta=1
    27                           	psect	text13,global,reloc=2,class=CODE,delta=1
    28                           	psect	text14,global,reloc=2,class=CODE,delta=1
    29                           	psect	text15,global,reloc=2,class=CODE,delta=1
    30                           	psect	text16,global,reloc=2,class=CODE,delta=1
    31                           	psect	intsave_regs,global,class=BIGRAM,space=1,delta=1,noexec
    32                           	psect	rparam,global,class=COMRAM,space=1,delta=1,noexec
    33                           	psect	temp,global,ovrld,common,class=COMRAM,space=1,delta=1,lowdata
    34                           	psect	config,global,abs,ovrld,class=CONFIG,space=4,delta=1,noexec
    35   000000                     
    36                           ; Generated 12/10/2023 GMT
    37                           ; 
    38                           ; Copyright © 2023, Microchip Technology Inc. and its subsidiaries ("Microchip")
    39                           ; All rights reserved.
    40                           ; 
    41                           ; This software is developed by Microchip Technology Inc. and its subsidiaries ("Microch
      +                          ip").
    42                           ; 
    43                           ; Redistribution and use in source and binary forms, with or without modification, are
    44                           ; permitted provided that the following conditions are met:
    45                           ; 
    46                           ;     1. Redistributions of source code must retain the above copyright notice, this lis
      +                          t of
    47                           ;        conditions and the following disclaimer.
    48                           ; 
    49                           ;     2. Redistributions in binary form must reproduce the above copyright notice, this 
      +                          list
    50                           ;        of conditions and the following disclaimer in the documentation and/or other
    51                           ;        materials provided with the distribution. Publication is not required when
    52                           ;        this file is used in an embedded application.
    53                           ; 
    54                           ;     3. Microchip's name may not be used to endorse or promote products derived from th
      +                          is
    55                           ;        software without specific prior written permission.
    56                           ; 
    57                           ; THIS SOFTWARE IS PROVIDED BY MICROCHIP "AS IS" AND ANY EXPRESS OR IMPLIED WARRANTIES,
    58                           ; INCLUDING, BUT NOT LIMITED TO, THE IMPLIED WARRANTIES OF MERCHANTABILITY AND FITNESS F
      +                          OR
    59                           ; PURPOSE ARE DISCLAIMED.  IN NO EVENT SHALL MICROCHIP BE LIABLE FOR ANY DIRECT, INDIREC
      +                          T,
    60                           ; INCIDENTAL, SPECIAL, EXEMPLARY, OR CONSEQUENTIAL DAMAGES (INCLUDING BUT NOT LIMITED TO
    61                           ; PROCUREMENT OF SUBSTITUTE GOODS OR SERVICES; LOSS OF USE, DATA OR PROFITS; OR BUSINESS
    62                           ; INTERRUPTION) HOWSOEVER CAUSED AND ON ANY THEORY OF LIABILITY, WHETHER IN CONTRACT, ST
      +                          RICT
    63                           ; LIABILITY, OR TORT (INCLUDING NEGLIGENCE OR OTHERWISE) ARISING IN ANY WAY OUT OF THE U
      +                          SE OF
    64                           ; THIS SOFTWARE, EVEN IF ADVISED OF THE POSSIBILITY OF SUCH DAMAGE.
    65                           ; 
    66                           ; 
    67                           ; Code-generator required, PIC18F46K20 Definitions
    68                           ; 
    69                           ; SFR Addresses
    70   000000                     
    71                           	psect	idataCOMRAM
    72   00127C                     __pidataCOMRAM:
    73                           	callstack 0
    74                           
    75                           ;initializer for _lat_registers
    76   00127C  89                 	db	137
    77   00127D  0F                 	db	15
    78   00127E  8A                 	db	138
    79   00127F  0F                 	db	15
    80   001280  8B                 	db	139
    81   001281  0F                 	db	15
    82   001282  8C                 	db	140
    83   001283  0F                 	db	15
    84   001284  8D                 	db	141
    85   001285  0F                 	db	15
    86                           
    87                           ;initializer for _tris_registers
    88   001286  92                 	db	146
    89   001287  0F                 	db	15
    90   001288  93                 	db	147
    91   001289  0F                 	db	15
    92   00128A  94                 	db	148
    93   00128B  0F                 	db	15
    94   00128C  95                 	db	149
    95   00128D  0F                 	db	15
    96   00128E  96                 	db	150
    97   00128F  0F                 	db	15
    98                           
    99                           ;initializer for _RB7_Flag
   100   001290  01                 	db	1
   101                           
   102                           ;initializer for _RB6_Flag
   103   001291  01                 	db	1
   104                           
   105                           ;initializer for _RB5_Flag
   106   001292  01                 	db	1
   107                           
   108                           ;initializer for _RB4_Flag
   109   001293  01                 	db	1
   110                           
   111                           	psect	idataBANK0
   112   0012B8                     __pidataBANK0:
   113                           	callstack 0
   114                           
   115                           ;initializer for _port_registers
   116   0012B8  80                 	db	128
   117   0012B9  0F                 	db	15
   118   0012BA  81                 	db	129
   119   0012BB  0F                 	db	15
   120   0012BC  82                 	db	130
   121   0012BD  0F                 	db	15
   122   0012BE  83                 	db	131
   123   0012BF  0F                 	db	15
   124   0012C0  84                 	db	132
   125   0012C1  0F                 	db	15
   126                           
   127                           	psect	smallconst
   128   001000                     __psmallconst:
   129                           	callstack 0
   130   001000  00                 	db	0
   131   001001                     _btn_values:
   132                           	callstack 0
   133   001001  37                 	db	55
   134   001002  38                 	db	56
   135   001003  39                 	db	57
   136   001004  2F                 	db	47
   137   001005  34                 	db	52
   138   001006  35                 	db	53
   139   001007  36                 	db	54
   140   001008  37                 	db	55
   141   001009  31                 	db	49
   142   00100A  32                 	db	50
   143   00100B  33                 	db	51
   144   00100C  34                 	db	52
   145   00100D  23                 	db	35
   146   00100E  30                 	db	48
   147   00100F  3D                 	db	61
   148   001010  2B                 	db	43
   149   001011                     __end_of_btn_values:
   150                           	callstack 0
   151   000000                     _TMR3L	set	4018
   152   000000                     _TMR3H	set	4019
   153   000000                     _TMR1L	set	4046
   154   000000                     _TMR1H	set	4047
   155   000000                     _TMR0L	set	4054
   156   000000                     _TMR0H	set	4055
   157   000000                     _INTCON2bits	set	4081
   158   000000                     _EECON2	set	4007
   159   000000                     _ADCON1bits	set	4033
   160   000000                     _ADRESL	set	4035
   161   000000                     _ADRESH	set	4036
   162   000000                     _INTCONbits	set	4082
   163   000000                     _TRISD	set	3989
   164   000000                     _TRISC	set	3988
   165   000000                     _TRISB	set	3987
   166   000000                     _TRISE	set	3990
   167   000000                     _PORTBbits	set	3969
   168   000000                     _PIE1bits	set	3997
   169   000000                     _ADCON2bits	set	4032
   170   000000                     _ADCON0bits	set	4034
   171   000000                     _PORTA	set	3968
   172   000000                     _LATA	set	3977
   173   000000                     _TRISA	set	3986
   174   000000                     _PIE2bits	set	4000
   175   000000                     _EECON1bits	set	4006
   176   000000                     _EEDATA	set	4008
   177   000000                     _EEADR	set	4009
   178   000000                     _EEADRH	set	4010
   179   000000                     _PIR1bits	set	3998
   180   000000                     _T2CONbits	set	4042
   181   000000                     _T1CONbits	set	4045
   182   000000                     _T0CONbits	set	4053
   183   000000                     _INTCON3bits	set	4080
   184   000000                     _T3CONbits	set	4017
   185   000000                     _LATE	set	3981
   186   000000                     _LATD	set	3980
   187   000000                     _LATC	set	3979
   188   000000                     _LATB	set	3978
   189   000000                     _PORTE	set	3972
   190   000000                     _PORTD	set	3971
   191   000000                     _PORTC	set	3970
   192   000000                     _PORTB	set	3969
   193   000000                     _PIR2bits	set	4001
   194   000000                     _TMR2	set	4044
   195   001011                     STR_1:
   196   001011  25                 	db	37
   197   001012  69                 	db	105	;'i'
   198   001013  00                 	db	0
   199   001014  00                 	db	0	; dummy byte at the end
   200   000000                     
   201                           ; #config settings
   202                           
   203                           	psect	cinit
   204   00111C                     __pcinit:
   205                           	callstack 0
   206   00111C                     start_initialization:
   207                           	callstack 0
   208   00111C                     __initialization:
   209                           	callstack 0
   210                           
   211                           ; Initialize objects allocated to BANK0 (10 bytes)
   212                           ; load TBLPTR registers with __pidataBANK0
   213   00111C  0EB8               	movlw	low __pidataBANK0
   214   00111E  6EF6               	movwf	tblptrl,c
   215   001120  0E12               	movlw	high __pidataBANK0
   216   001122  6EF7               	movwf	tblptrh,c
   217   001124  0E00               	movlw	low (__pidataBANK0 shr (0+16))
   218   001126  6EF8               	movwf	tblptru,c
   219   001128  EE00  F071         	lfsr	0,__pdataBANK0
   220   00112C  EE10 F00A          	lfsr	1,10
   221   001130                     copy_data0:
   222   001130  0009               	tblrd		*+
   223   001132  CFF5 FFEE          	movff	tablat,postinc0
   224   001136  50E5               	movf	postdec1,w,c
   225   001138  50E1               	movf	fsr1l,w,c
   226   00113A  E1FA               	bnz	copy_data0
   227                           
   228                           ; Initialize objects allocated to COMRAM (24 bytes)
   229                           ; load TBLPTR registers with __pidataCOMRAM
   230   00113C  0E7C               	movlw	low __pidataCOMRAM
   231   00113E  6EF6               	movwf	tblptrl,c
   232   001140  0E12               	movlw	high __pidataCOMRAM
   233   001142  6EF7               	movwf	tblptrh,c
   234   001144  0E00               	movlw	low (__pidataCOMRAM shr (0+16))
   235   001146  6EF8               	movwf	tblptru,c
   236   001148  EE00  F03C         	lfsr	0,__pdataCOMRAM
   237   00114C  EE10 F018          	lfsr	1,24
   238   001150                     copy_data1:
   239   001150  0009               	tblrd		*+
   240   001152  CFF5 FFEE          	movff	tablat,postinc0
   241   001156  50E5               	movf	postdec1,w,c
   242   001158  50E1               	movf	fsr1l,w,c
   243   00115A  E1FA               	bnz	copy_data1
   244                           
   245                           ; Clear objects allocated to BANK0 (17 bytes)
   246   00115C  EE00  F060         	lfsr	0,__pbssBANK0
   247   001160  0E11               	movlw	17
   248   001162                     clear_0:
   249   001162  6AEE               	clrf	postinc0,c
   250   001164  06E8               	decf	wreg,f,c
   251   001166  E1FD               	bnz	clear_0
   252                           
   253                           ; Clear objects allocated to COMRAM (59 bytes)
   254   001168  EE00  F001         	lfsr	0,__pbssCOMRAM
   255   00116C  0E3B               	movlw	59
   256   00116E                     clear_1:
   257   00116E  6AEE               	clrf	postinc0,c
   258   001170  06E8               	decf	wreg,f,c
   259   001172  E1FD               	bnz	clear_1
   260   001174                     end_of_initialization:
   261                           	callstack 0
   262   001174                     __end_of__initialization:
   263                           	callstack 0
   264   001174  905C               	bcf	int$flags,0,c	;clear compiler interrupt flag (level 1)
   265   001176  925C               	bcf	int$flags,1,c	;clear compiler interrupt flag (level 2)
   266   001178  0100               	movlb	0
   267   00117A  EFEE  F008         	goto	_main	;jump to C main() function
   268                           
   269                           	psect	bssCOMRAM
   270   000001                     __pbssCOMRAM:
   271                           	callstack 0
   272   000001                     	ds	4
   273   000005                     _timer3_preload:
   274                           	callstack 0
   275   000005                     	ds	2
   276   000007                     _TMR3_InterruptHandler:
   277                           	callstack 0
   278   000007                     	ds	2
   279   000009                     _TMR2_InterruptHandler:
   280                           	callstack 0
   281   000009                     	ds	2
   282   00000B                     _timer1_preload:
   283                           	callstack 0
   284   00000B                     	ds	2
   285   00000D                     _TMR1_InterruptHandler:
   286                           	callstack 0
   287   00000D                     	ds	2
   288   00000F                     _timer0_preload:
   289                           	callstack 0
   290   00000F                     	ds	2
   291   000011                     _TMR0_InterruptHandler:
   292                           	callstack 0
   293   000011                     	ds	2
   294   000013                     _RB7_InterruptHandler_LOW:
   295                           	callstack 0
   296   000013                     	ds	2
   297   000015                     _RB7_InterruptHandler_HIGH:
   298                           	callstack 0
   299   000015                     	ds	2
   300   000017                     _RB6_InterruptHandler_LOW:
   301                           	callstack 0
   302   000017                     	ds	2
   303   000019                     _RB6_InterruptHandler_HIGH:
   304                           	callstack 0
   305   000019                     	ds	2
   306   00001B                     _RB5_InterruptHandler_LOW:
   307                           	callstack 0
   308   00001B                     	ds	2
   309   00001D                     _RB5_InterruptHandler_HIGH:
   310                           	callstack 0
   311   00001D                     	ds	2
   312   00001F                     _RB4_InterruptHandler_LOW:
   313                           	callstack 0
   314   00001F                     	ds	2
   315   000021                     _RB4_InterruptHandler_HIGH:
   316                           	callstack 0
   317   000021                     	ds	2
   318   000023                     _INT2_InterruptHandler:
   319                           	callstack 0
   320   000023                     	ds	2
   321   000025                     _INT1_InterruptHandler:
   322                           	callstack 0
   323   000025                     	ds	2
   324   000027                     _INT0_InterruptHandler:
   325                           	callstack 0
   326   000027                     	ds	2
   327   000029                     _ADC_InterruptHandler:
   328                           	callstack 0
   329   000029                     	ds	2
   330   00002B                     _timer2_preload:
   331                           	callstack 0
   332   00002B                     	ds	1
   333   00002C                     _ret:
   334                           	callstack 0
   335   00002C                     	ds	1
   336   00002D                     relay_turn_off@F3314:
   337                           	callstack 0
   338   00002D                     	ds	1
   339   00002E                     relay_turn_on@F3309:
   340                           	callstack 0
   341   00002E                     	ds	1
   342   00002F                     relay_initialize@F3304:
   343                           	callstack 0
   344   00002F                     	ds	1
   345   000030                     led_turn_toggle@F3325:
   346                           	callstack 0
   347   000030                     	ds	1
   348   000031                     led_turn_off@F3320:
   349                           	callstack 0
   350   000031                     	ds	1
   351   000032                     led_turn_on@F3315:
   352                           	callstack 0
   353   000032                     	ds	1
   354   000033                     led_initialize@F3310:
   355                           	callstack 0
   356   000033                     	ds	1
   357   000034                     _timer3_obj:
   358                           	callstack 0
   359   000034                     	ds	6
   360   00003A                     _counter_val:
   361                           	callstack 0
   362   00003A                     	ds	2
   363                           
   364                           	psect	dataCOMRAM
   365   00003C                     __pdataCOMRAM:
   366                           	callstack 0
   367   00003C                     _lat_registers:
   368                           	callstack 0
   369   00003C                     	ds	10
   370   000046                     _tris_registers:
   371                           	callstack 0
   372   000046                     	ds	10
   373   000050                     _RB7_Flag:
   374                           	callstack 0
   375   000050                     	ds	1
   376   000051                     _RB6_Flag:
   377                           	callstack 0
   378   000051                     	ds	1
   379   000052                     _RB5_Flag:
   380                           	callstack 0
   381   000052                     	ds	1
   382   000053                     _RB4_Flag:
   383                           	callstack 0
   384   000053                     	ds	1
   385                           
   386                           	psect	bssBANK0
   387   000060                     __pbssBANK0:
   388                           	callstack 0
   389   000060                     	ds	11
   390   00006B                     	ds	6
   391                           
   392                           	psect	dataBANK0
   393   000071                     __pdataBANK0:
   394                           	callstack 0
   395   000071                     _port_registers:
   396                           	callstack 0
   397   000071                     	ds	10
   398                           
   399                           	psect	cstackCOMRAM
   400   000054                     __pcstackCOMRAM:
   401                           	callstack 0
   402   000054                     RB4_ISR@RB4_source:
   403                           	callstack 0
   404   000054                     RB5_ISR@RB5_source:
   405                           	callstack 0
   406   000054                     RB6_ISR@RB6_source:
   407                           	callstack 0
   408   000054                     RB7_ISR@RB7_source:
   409                           	callstack 0
   410                           
   411                           ; 1 bytes @ 0x0
   412   000054                     	ds	1
   413   000055                     Timer3_Read_Value@_timer:
   414                           	callstack 0
   415   000055                     Timer3_Mode_Select@_timer:
   416                           	callstack 0
   417                           
   418                           ; 1 bytes @ 0x1
   419   000055                     	ds	1
   420   000056                     Timer3_Init@_timer:
   421                           	callstack 0
   422   000056                     Timer3_Read_Value@value:
   423                           	callstack 0
   424                           
   425                           ; 1 bytes @ 0x2
   426   000056                     	ds	1
   427   000057                     ??_Timer3_Init:
   428   000057                     ??_Timer3_Read_Value:
   429                           
   430                           ; 1 bytes @ 0x3
   431   000057                     	ds	2
   432   000059                     Timer3_Read_Value@ret:
   433                           	callstack 0
   434                           
   435                           ; 1 bytes @ 0x5
   436   000059                     	ds	1
   437   00005A                     Timer3_Read_Value@l_tmr3l:
   438                           	callstack 0
   439                           
   440                           ; 1 bytes @ 0x6
   441   00005A                     	ds	1
   442   00005B                     Timer3_Read_Value@l_tmr3h:
   443                           	callstack 0
   444                           
   445                           ; 1 bytes @ 0x7
   446   00005B                     	ds	1
   447   00005C                     
   448                           ; 1 bytes @ 0x8
   449 ;;
   450 ;;Main: autosize = 0, tempsize = 0, incstack = 0, save=0
   451 ;;
   452 ;; *************** function _main *****************
   453 ;; Defined at:
   454 ;;		line 17 in file "application.c"
   455 ;; Parameters:    Size  Location     Type
   456 ;;		None
   457 ;; Auto vars:     Size  Location     Type
   458 ;;		None
   459 ;; Return value:  Size  Location     Type
   460 ;;                  2  1091[None  ] int 
   461 ;; Registers used:
   462 ;;		wreg, fsr2l, fsr2h, status,2, status,0, cstack
   463 ;; Tracked objects:
   464 ;;		On entry : 0/0
   465 ;;		On exit  : 0/0
   466 ;;		Unchanged: 0/0
   467 ;; Data sizes:     COMRAM   BANK0   BANK1   BANK2   BANK3   BANK4   BANK5   BANK6   BANK7   BANK8   BANK9  BANK10  BANK1
      +1  BANK12  BANK13  BANK14  BANK15
   468 ;;      Params:         0       0       0       0       0       0       0       0       0       0       0       0       
      +0       0       0       0       0
   469 ;;      Locals:         0       0       0       0       0       0       0       0       0       0       0       0       
      +0       0       0       0       0
   470 ;;      Temps:          0       0       0       0       0       0       0       0       0       0       0       0       
      +0       0       0       0       0
   471 ;;      Totals:         0       0       0       0       0       0       0       0       0       0       0       0       
      +0       0       0       0       0
   472 ;;Total ram usage:        0 bytes
   473 ;; Hardware stack levels required when called: 4
   474 ;; This function calls:
   475 ;;		_Timer3_Init
   476 ;;		_Timer3_Read_Value
   477 ;; This function is called by:
   478 ;;		Startup code after reset
   479 ;; This function uses a non-reentrant model
   480 ;;
   481                           
   482                           	psect	text0
   483   0011DC                     __ptext0:
   484                           	callstack 0
   485   0011DC                     _main:
   486                           	callstack 27
   487   0011DC                     
   488                           ;application.c: 19:     timer3_obj.TMR3_InterruptHandler = ((void*)0);
   489   0011DC  0E00               	movlw	0
   490   0011DE  6E34               	movwf	_timer3_obj^0,c
   491   0011E0  0E00               	movlw	0
   492   0011E2  6E35               	movwf	(_timer3_obj+1)^0,c
   493   0011E4                     
   494                           ;application.c: 20:     timer3_obj.timer3_mode = 1U;
   495   0011E4  8439               	bsf	(_timer3_obj+5)^0,2,c
   496   0011E6                     
   497                           ;application.c: 21:     timer3_obj.timer3_preloaded_value = 0;
   498   0011E6  0E00               	movlw	0
   499   0011E8  6E38               	movwf	(_timer3_obj+4)^0,c
   500   0011EA  0E00               	movlw	0
   501   0011EC  6E37               	movwf	(_timer3_obj+3)^0,c
   502   0011EE                     
   503                           ;application.c: 22:     timer3_obj.timer3_prescaler_value = 0U;
   504   0011EE  0EFC               	movlw	-4
   505   0011F0  1639               	andwf	(_timer3_obj+5)^0,f,c
   506   0011F2                     
   507                           ;application.c: 23:     timer3_obj.timer3_reg_wr_mode = 0U;
   508   0011F2  9839               	bcf	(_timer3_obj+5)^0,4,c
   509   0011F4                     
   510                           ;application.c: 24:     timer3_obj.timer3_counter_mode = 0U;
   511   0011F4  9639               	bcf	(_timer3_obj+5)^0,3,c
   512   0011F6                     
   513                           ;application.c: 25:     Timer3_Init(&timer3_obj);
   514   0011F6  0E34               	movlw	low _timer3_obj
   515   0011F8  6E56               	movwf	Timer3_Init@_timer^0,c
   516   0011FA  EC0B  F008         	call	_Timer3_Init	;wreg free
   517   0011FE                     l3948:
   518                           
   519                           ;application.c: 28:     {;application.c: 29:        ret = Timer3_Read_Value(&timer3_obj,
      +                           &counter_val);
   520   0011FE  0E34               	movlw	low _timer3_obj
   521   001200  6E55               	movwf	Timer3_Read_Value@_timer^0,c
   522   001202  0E3A               	movlw	low _counter_val
   523   001204  6E56               	movwf	Timer3_Read_Value@value^0,c
   524   001206  ECBF  F008         	call	_Timer3_Read_Value	;wreg free
   525   00120A  6E2C               	movwf	_ret^0,c
   526   00120C  EFFF  F008         	goto	l3948
   527   001210  EF97  F001         	goto	start
   528   001214                     __end_of_main:
   529                           	callstack 0
   530                           
   531 ;; *************** function _Timer3_Read_Value *****************
   532 ;; Defined at:
   533 ;;		line 78 in file "MCAL_Layer/Timer3/hal_timer3.c"
   534 ;; Parameters:    Size  Location     Type
   535 ;;  _timer          1    1[COMRAM] PTR const struct .
   536 ;;		 -> timer3_obj(6), 
   537 ;;  value           1    2[COMRAM] PTR unsigned short 
   538 ;;		 -> counter_val(2), 
   539 ;; Auto vars:     Size  Location     Type
   540 ;;  l_tmr3h         1    7[COMRAM] unsigned char 
   541 ;;  l_tmr3l         1    6[COMRAM] unsigned char 
   542 ;;  ret             1    5[COMRAM] unsigned char 
   543 ;; Return value:  Size  Location     Type
   544 ;;                  1    wreg      unsigned char 
   545 ;; Registers used:
   546 ;;		wreg, fsr2l, fsr2h, status,2, status,0
   547 ;; Tracked objects:
   548 ;;		On entry : 0/0
   549 ;;		On exit  : 0/0
   550 ;;		Unchanged: 0/0
   551 ;; Data sizes:     COMRAM   BANK0   BANK1   BANK2   BANK3   BANK4   BANK5   BANK6   BANK7   BANK8   BANK9  BANK10  BANK1
      +1  BANK12  BANK13  BANK14  BANK15
   552 ;;      Params:         2       0       0       0       0       0       0       0       0       0       0       0       
      +0       0       0       0       0
   553 ;;      Locals:         3       0       0       0       0       0       0       0       0       0       0       0       
      +0       0       0       0       0
   554 ;;      Temps:          2       0       0       0       0       0       0       0       0       0       0       0       
      +0       0       0       0       0
   555 ;;      Totals:         7       0       0       0       0       0       0       0       0       0       0       0       
      +0       0       0       0       0
   556 ;;Total ram usage:        7 bytes
   557 ;; Hardware stack levels used: 1
   558 ;; Hardware stack levels required when called: 2
   559 ;; This function calls:
   560 ;;		Nothing
   561 ;; This function is called by:
   562 ;;		_main
   563 ;; This function uses a non-reentrant model
   564 ;;
   565                           
   566                           	psect	text1
   567   00117E                     __ptext1:
   568                           	callstack 0
   569   00117E                     _Timer3_Read_Value:
   570                           	callstack 28
   571   00117E                     
   572                           ;MCAL_Layer/Timer3/hal_timer3.c: 79:     Std_ReturnType ret = (Std_ReturnType)0x01;
   573   00117E  0E01               	movlw	1
   574   001180  6E59               	movwf	Timer3_Read_Value@ret^0,c
   575   001182  0E00               	movlw	0
   576   001184  6E5B               	movwf	Timer3_Read_Value@l_tmr3h^0,c
   577                           
   578                           ;MCAL_Layer/Timer3/hal_timer3.c: 81:     if ((((void*)0) == _timer) && (((void*)0) == va
      +                          lue)){
   579   001186  5055               	movf	Timer3_Read_Value@_timer^0,w,c
   580   001188  A4D8               	btfss	status,2,c
   581   00118A  EFC9  F008         	goto	u2481
   582   00118E  EFCB  F008         	goto	u2480
   583   001192                     u2481:
   584   001192  EFD7  F008         	goto	l1134
   585   001196                     u2480:
   586   001196  5056               	movf	Timer3_Read_Value@value^0,w,c
   587   001198  A4D8               	btfss	status,2,c
   588   00119A  EFD1  F008         	goto	u2491
   589   00119E  EFD3  F008         	goto	u2490
   590   0011A2                     u2491:
   591   0011A2  EFD7  F008         	goto	l1134
   592   0011A6                     u2490:
   593   0011A6                     
   594                           ;MCAL_Layer/Timer3/hal_timer3.c: 82:         ret = (Std_ReturnType)0x00;
   595   0011A6  0E00               	movlw	0
   596   0011A8  6E59               	movwf	Timer3_Read_Value@ret^0,c
   597                           
   598                           ;MCAL_Layer/Timer3/hal_timer3.c: 83:     }
   599   0011AA  EFEC  F008         	goto	l3758
   600   0011AE                     l1134:
   601                           
   602                           ;MCAL_Layer/Timer3/hal_timer3.c: 85:         l_tmr3l = TMR3L;
   603   0011AE  CFB2 F05A          	movff	4018,Timer3_Read_Value@l_tmr3l	;volatile
   604                           
   605                           ;MCAL_Layer/Timer3/hal_timer3.c: 86:         l_tmr3h = TMR3H;
   606   0011B2  CFB3 F05B          	movff	4019,Timer3_Read_Value@l_tmr3h	;volatile
   607   0011B6                     
   608                           ;MCAL_Layer/Timer3/hal_timer3.c: 87:         *value = (uint16)((l_tmr3h << 8 ) + l_tmr3l
      +                          );
   609   0011B6  505A               	movf	Timer3_Read_Value@l_tmr3l^0,w,c
   610   0011B8  C05B  F057         	movff	Timer3_Read_Value@l_tmr3h,??_Timer3_Read_Value
   611   0011BC  6A58               	clrf	(??_Timer3_Read_Value+1)^0,c
   612   0011BE  C057  F058         	movff	??_Timer3_Read_Value,??_Timer3_Read_Value+1
   613   0011C2  6A57               	clrf	??_Timer3_Read_Value^0,c
   614   0011C4  2657               	addwf	??_Timer3_Read_Value^0,f,c
   615   0011C6  0E00               	movlw	0
   616   0011C8  2258               	addwfc	(??_Timer3_Read_Value+1)^0,f,c
   617   0011CA  5056               	movf	Timer3_Read_Value@value^0,w,c
   618   0011CC  6ED9               	movwf	fsr2l,c
   619   0011CE  6ADA               	clrf	fsr2h,c
   620   0011D0  C057  FFDE         	movff	??_Timer3_Read_Value,postinc2
   621   0011D4  C058  FFDD         	movff	??_Timer3_Read_Value+1,postdec2
   622   0011D8                     l3758:
   623                           
   624                           ;MCAL_Layer/Timer3/hal_timer3.c: 89:     return ret;
   625   0011D8  5059               	movf	Timer3_Read_Value@ret^0,w,c
   626   0011DA  0012               	return		;funcret
   627   0011DC                     __end_of_Timer3_Read_Value:
   628                           	callstack 0
   629                           
   630 ;; *************** function _Timer3_Init *****************
   631 ;; Defined at:
   632 ;;		line 17 in file "MCAL_Layer/Timer3/hal_timer3.c"
   633 ;; Parameters:    Size  Location     Type
   634 ;;  _timer          1    2[COMRAM] PTR const struct .
   635 ;;		 -> timer3_obj(6), 
   636 ;; Auto vars:     Size  Location     Type
   637 ;;  ret             1    0        unsigned char 
   638 ;; Return value:  Size  Location     Type
   639 ;;                  1    wreg      unsigned char 
   640 ;; Registers used:
   641 ;;		wreg, fsr2l, fsr2h, status,2, status,0, cstack
   642 ;; Tracked objects:
   643 ;;		On entry : 0/0
   644 ;;		On exit  : 0/0
   645 ;;		Unchanged: 0/0
   646 ;; Data sizes:     COMRAM   BANK0   BANK1   BANK2   BANK3   BANK4   BANK5   BANK6   BANK7   BANK8   BANK9  BANK10  BANK1
      +1  BANK12  BANK13  BANK14  BANK15
   647 ;;      Params:         1       0       0       0       0       0       0       0       0       0       0       0       
      +0       0       0       0       0
   648 ;;      Locals:         0       0       0       0       0       0       0       0       0       0       0       0       
      +0       0       0       0       0
   649 ;;      Temps:          2       0       0       0       0       0       0       0       0       0       0       0       
      +0       0       0       0       0
   650 ;;      Totals:         3       0       0       0       0       0       0       0       0       0       0       0       
      +0       0       0       0       0
   651 ;;Total ram usage:        3 bytes
   652 ;; Hardware stack levels used: 1
   653 ;; Hardware stack levels required when called: 3
   654 ;; This function calls:
   655 ;;		_Timer3_Mode_Select
   656 ;; This function is called by:
   657 ;;		_main
   658 ;; This function uses a non-reentrant model
   659 ;;
   660                           
   661                           	psect	text2
   662   001016                     __ptext2:
   663                           	callstack 0
   664   001016                     _Timer3_Init:
   665                           	callstack 27
   666   001016                     
   667                           ;MCAL_Layer/Timer3/hal_timer3.c: 19:     if (((void*)0) == _timer){
   668   001016  5056               	movf	Timer3_Init@_timer^0,w,c
   669   001018  A4D8               	btfss	status,2,c
   670   00101A  EF11  F008         	goto	u2471
   671   00101E  EF13  F008         	goto	u2470
   672   001022                     u2471:
   673   001022  EF15  F008         	goto	l1119
   674   001026                     u2470:
   675   001026                     
   676                           ;MCAL_Layer/Timer3/hal_timer3.c: 21:     }
   677   001026  EF52  F008         	goto	l1121
   678   00102A                     l1119:
   679                           
   680                           ;MCAL_Layer/Timer3/hal_timer3.c: 23:         (T3CONbits.TMR3ON = 0);
   681   00102A  90B1               	bcf	177,0,c	;volatile
   682   00102C                     
   683                           ;MCAL_Layer/Timer3/hal_timer3.c: 24:         (T3CONbits.T3CKPS = _timer->timer3_prescale
      +                          r_value);
   684   00102C  5056               	movf	Timer3_Init@_timer^0,w,c
   685   00102E  6ED9               	movwf	fsr2l,c
   686   001030  6ADA               	clrf	fsr2h,c
   687   001032  0E05               	movlw	5
   688   001034  26D9               	addwf	fsr2l,f,c
   689   001036  50DF               	movf	223,w,c
   690   001038  0B03               	andlw	3
   691   00103A  6E57               	movwf	??_Timer3_Init^0,c
   692   00103C  3A57               	swapf	??_Timer3_Init^0,f,c
   693   00103E  50B1               	movf	177,w,c	;volatile
   694   001040  1857               	xorwf	??_Timer3_Init^0,w,c
   695   001042  0BCF               	andlw	-49
   696   001044  1857               	xorwf	??_Timer3_Init^0,w,c
   697   001046  6EB1               	movwf	177,c	;volatile
   698   001048                     
   699                           ;MCAL_Layer/Timer3/hal_timer3.c: 25:         Timer3_Mode_Select(_timer);
   700   001048  C056  F055         	movff	Timer3_Init@_timer,Timer3_Mode_Select@_timer
   701   00104C  EC53  F008         	call	_Timer3_Mode_Select	;wreg free
   702   001050                     
   703                           ;MCAL_Layer/Timer3/hal_timer3.c: 26:         TMR3H = ((_timer->timer3_preloaded_value) >
      +                          > 8);
   704   001050  5056               	movf	Timer3_Init@_timer^0,w,c
   705   001052  6ED9               	movwf	fsr2l,c
   706   001054  6ADA               	clrf	fsr2h,c
   707   001056  0E03               	movlw	3
   708   001058  26D9               	addwf	fsr2l,f,c
   709   00105A  CFDE F057          	movff	postinc2,??_Timer3_Init
   710   00105E  CFDD F058          	movff	postdec2,??_Timer3_Init+1
   711   001062  C058  F057         	movff	??_Timer3_Init+1,??_Timer3_Init
   712   001066  6A58               	clrf	(??_Timer3_Init+1)^0,c
   713   001068  5057               	movf	??_Timer3_Init^0,w,c
   714   00106A  6EB3               	movwf	179,c	;volatile
   715   00106C                     
   716                           ;MCAL_Layer/Timer3/hal_timer3.c: 27:         TMR3L = (uint8)(_timer->timer3_preloaded_va
      +                          lue);
   717   00106C  5056               	movf	Timer3_Init@_timer^0,w,c
   718   00106E  6ED9               	movwf	fsr2l,c
   719   001070  6ADA               	clrf	fsr2h,c
   720   001072  0E03               	movlw	3
   721   001074  26D9               	addwf	fsr2l,f,c
   722   001076  50DF               	movf	indf2,w,c
   723   001078  6EB2               	movwf	178,c	;volatile
   724   00107A                     
   725                           ;MCAL_Layer/Timer3/hal_timer3.c: 28:         timer3_preload = _timer->timer3_preloaded_v
      +                          alue;
   726   00107A  5056               	movf	Timer3_Init@_timer^0,w,c
   727   00107C  6ED9               	movwf	fsr2l,c
   728   00107E  6ADA               	clrf	fsr2h,c
   729   001080  0E03               	movlw	3
   730   001082  26D9               	addwf	fsr2l,f,c
   731   001084  CFDE F005          	movff	postinc2,_timer3_preload
   732   001088  CFDD F006          	movff	postdec2,_timer3_preload+1
   733   00108C                     
   734                           ;MCAL_Layer/Timer3/hal_timer3.c: 30:         (PIE2bits.TMR3IE = 1);
   735   00108C  82A0               	bsf	160,1,c	;volatile
   736   00108E                     
   737                           ;MCAL_Layer/Timer3/hal_timer3.c: 31:         (PIR2bits.TMR3IF = 0);
   738   00108E  92A1               	bcf	161,1,c	;volatile
   739   001090                     
   740                           ;MCAL_Layer/Timer3/hal_timer3.c: 32:         TMR3_InterruptHandler = _timer->TMR3_Interr
      +                          uptHandler;
   741   001090  5056               	movf	Timer3_Init@_timer^0,w,c
   742   001092  6ED9               	movwf	fsr2l,c
   743   001094  6ADA               	clrf	fsr2h,c
   744   001096  CFDE F007          	movff	postinc2,_TMR3_InterruptHandler
   745   00109A  CFDD F008          	movff	postdec2,_TMR3_InterruptHandler+1
   746   00109E                     
   747                           ;MCAL_Layer/Timer3/hal_timer3.c: 45:         (INTCONbits.GIE = 1);
   748   00109E  8EF2               	bsf	242,7,c	;volatile
   749   0010A0                     
   750                           ;MCAL_Layer/Timer3/hal_timer3.c: 46:         (INTCONbits.PEIE = 1);
   751   0010A0  8CF2               	bsf	242,6,c	;volatile
   752   0010A2                     
   753                           ;MCAL_Layer/Timer3/hal_timer3.c: 50:         (T3CONbits.TMR3ON = 1);
   754   0010A2  80B1               	bsf	177,0,c	;volatile
   755   0010A4                     l1121:
   756   0010A4  0012               	return		;funcret
   757   0010A6                     __end_of_Timer3_Init:
   758                           	callstack 0
   759                           
   760 ;; *************** function _Timer3_Mode_Select *****************
   761 ;; Defined at:
   762 ;;		line 101 in file "MCAL_Layer/Timer3/hal_timer3.c"
   763 ;; Parameters:    Size  Location     Type
   764 ;;  _timer          1    1[COMRAM] PTR const struct .
   765 ;;		 -> timer3_obj(6), 
   766 ;; Auto vars:     Size  Location     Type
   767 ;;		None
   768 ;; Return value:  Size  Location     Type
   769 ;;                  1    wreg      void 
   770 ;; Registers used:
   771 ;;		wreg, fsr2l, fsr2h, status,2, status,0
   772 ;; Tracked objects:
   773 ;;		On entry : 0/0
   774 ;;		On exit  : 0/0
   775 ;;		Unchanged: 0/0
   776 ;; Data sizes:     COMRAM   BANK0   BANK1   BANK2   BANK3   BANK4   BANK5   BANK6   BANK7   BANK8   BANK9  BANK10  BANK1
      +1  BANK12  BANK13  BANK14  BANK15
   777 ;;      Params:         1       0       0       0       0       0       0       0       0       0       0       0       
      +0       0       0       0       0
   778 ;;      Locals:         0       0       0       0       0       0       0       0       0       0       0       0       
      +0       0       0       0       0
   779 ;;      Temps:          0       0       0       0       0       0       0       0       0       0       0       0       
      +0       0       0       0       0
   780 ;;      Totals:         1       0       0       0       0       0       0       0       0       0       0       0       
      +0       0       0       0       0
   781 ;;Total ram usage:        1 bytes
   782 ;; Hardware stack levels used: 1
   783 ;; Hardware stack levels required when called: 2
   784 ;; This function calls:
   785 ;;		Nothing
   786 ;; This function is called by:
   787 ;;		_Timer3_Init
   788 ;; This function uses a non-reentrant model
   789 ;;
   790                           
   791                           	psect	text3
   792   0010A6                     __ptext3:
   793                           	callstack 0
   794   0010A6                     _Timer3_Mode_Select:
   795                           	callstack 27
   796   0010A6                     
   797                           ;MCAL_Layer/Timer3/hal_timer3.c: 102:     if (0U == _timer->timer3_mode){
   798   0010A6  5055               	movf	Timer3_Mode_Select@_timer^0,w,c
   799   0010A8  6ED9               	movwf	fsr2l,c
   800   0010AA  6ADA               	clrf	fsr2h,c
   801   0010AC  0E05               	movlw	5
   802   0010AE  26D9               	addwf	fsr2l,f,c
   803   0010B0  B4DF               	btfsc	indf2,2,c
   804   0010B2  EF5D  F008         	goto	u2431
   805   0010B6  EF5F  F008         	goto	u2430
   806   0010BA                     u2431:
   807   0010BA  EF62  F008         	goto	l3710
   808   0010BE                     u2430:
   809   0010BE                     
   810                           ;MCAL_Layer/Timer3/hal_timer3.c: 103:         (T3CONbits.TMR3CS = 0);
   811   0010BE  92B1               	bcf	177,1,c	;volatile
   812                           
   813                           ;MCAL_Layer/Timer3/hal_timer3.c: 104:     }
   814   0010C0  EF8D  F008         	goto	l1151
   815   0010C4                     l3710:
   816   0010C4  5055               	movf	Timer3_Mode_Select@_timer^0,w,c
   817   0010C6  6ED9               	movwf	fsr2l,c
   818   0010C8  6ADA               	clrf	fsr2h,c
   819   0010CA  0E05               	movlw	5
   820   0010CC  26D9               	addwf	fsr2l,f,c
   821   0010CE  A4DF               	btfss	indf2,2,c
   822   0010D0  EF6C  F008         	goto	u2441
   823   0010D4  EF6E  F008         	goto	u2440
   824   0010D8                     u2441:
   825   0010D8  EF8D  F008         	goto	l1151
   826   0010DC                     u2440:
   827   0010DC                     
   828                           ;MCAL_Layer/Timer3/hal_timer3.c: 106:         (T3CONbits.TMR3CS = 1);
   829   0010DC  82B1               	bsf	177,1,c	;volatile
   830   0010DE                     
   831                           ;MCAL_Layer/Timer3/hal_timer3.c: 107:         if (1U == _timer->timer3_counter_mode){
   832   0010DE  5055               	movf	Timer3_Mode_Select@_timer^0,w,c
   833   0010E0  6ED9               	movwf	fsr2l,c
   834   0010E2  6ADA               	clrf	fsr2h,c
   835   0010E4  0E05               	movlw	5
   836   0010E6  26D9               	addwf	fsr2l,f,c
   837   0010E8  A6DF               	btfss	indf2,3,c
   838   0010EA  EF79  F008         	goto	u2451
   839   0010EE  EF7B  F008         	goto	u2450
   840   0010F2                     u2451:
   841   0010F2  EF7E  F008         	goto	l3718
   842   0010F6                     u2450:
   843   0010F6                     
   844                           ;MCAL_Layer/Timer3/hal_timer3.c: 108:             (T3CONbits.T3SYNC = 1);
   845   0010F6  84B1               	bsf	177,2,c	;volatile
   846                           
   847                           ;MCAL_Layer/Timer3/hal_timer3.c: 109:         }
   848   0010F8  EF8D  F008         	goto	l1151
   849   0010FC                     l3718:
   850   0010FC  5055               	movf	Timer3_Mode_Select@_timer^0,w,c
   851   0010FE  6ED9               	movwf	fsr2l,c
   852   001100  6ADA               	clrf	fsr2h,c
   853   001102  0E05               	movlw	5
   854   001104  26D9               	addwf	fsr2l,f,c
   855   001106  B6DF               	btfsc	indf2,3,c
   856   001108  EF88  F008         	goto	u2461
   857   00110C  EF8A  F008         	goto	u2460
   858   001110                     u2461:
   859   001110  EF8D  F008         	goto	l1150
   860   001114                     u2460:
   861   001114                     
   862                           ;MCAL_Layer/Timer3/hal_timer3.c: 111:             (T3CONbits.T3SYNC = 0);
   863   001114  94B1               	bcf	177,2,c	;volatile
   864                           
   865                           ;MCAL_Layer/Timer3/hal_timer3.c: 112:         }
   866   001116  EF8D  F008         	goto	l1151
   867   00111A                     l1150:
   868   00111A                     l1151:
   869   00111A  0012               	return		;funcret
   870   00111C                     __end_of_Timer3_Mode_Select:
   871                           	callstack 0
   872                           
   873 ;; *************** function _InterruptManager *****************
   874 ;; Defined at:
   875 ;;		line 35 in file "MCAL_Layer/interrupt/mcal_interrupt_manager.c"
   876 ;; Parameters:    Size  Location     Type
   877 ;;		None
   878 ;; Auto vars:     Size  Location     Type
   879 ;;		None
   880 ;; Return value:  Size  Location     Type
   881 ;;                  1    wreg      void 
   882 ;; Registers used:
   883 ;;		wreg, status,2, status,0, cstack
   884 ;; Tracked objects:
   885 ;;		On entry : 0/0
   886 ;;		On exit  : 0/0
   887 ;;		Unchanged: 0/0
   888 ;; Data sizes:     COMRAM   BANK0   BANK1   BANK2   BANK3   BANK4   BANK5   BANK6   BANK7   BANK8   BANK9  BANK10  BANK1
      +1  BANK12  BANK13  BANK14  BANK15
   889 ;;      Params:         0       0       0       0       0       0       0       0       0       0       0       0       
      +0       0       0       0       0
   890 ;;      Locals:         0       0       0       0       0       0       0       0       0       0       0       0       
      +0       0       0       0       0
   891 ;;      Temps:          0       0       0       0       0       0       0       0       0       0       0       0       
      +0       0       0       0       0
   892 ;;      Totals:         0       0       0       0       0       0       0       0       0       0       0       0       
      +0       0       0       0       0
   893 ;;Total ram usage:        0 bytes
   894 ;; Hardware stack levels used: 1
   895 ;; Hardware stack levels required when called: 1
   896 ;; This function calls:
   897 ;;		_ADC_ISR
   898 ;;		_INT0_ISR
   899 ;;		_INT1_ISR
   900 ;;		_INT2_ISR
   901 ;;		_RB4_ISR
   902 ;;		_RB5_ISR
   903 ;;		_RB6_ISR
   904 ;;		_RB7_ISR
   905 ;;		_TMR0_ISR
   906 ;;		_TMR1_ISR
   907 ;;		_TMR2_ISR
   908 ;;		_TMR3_ISR
   909 ;; This function is called by:
   910 ;;		Interrupt level 2
   911 ;; This function uses a non-reentrant model
   912 ;;
   913                           
   914                           	psect	intcode
   915   000008                     __pintcode:
   916                           	callstack 0
   917   000008                     _InterruptManager:
   918                           	callstack 27
   919                           
   920                           ;incstack = 0
   921   000008  825C               	bsf	int$flags,1,c	;set compiler interrupt flag (level 2)
   922   00000A                     
   923                           ;MCAL_Layer/interrupt/mcal_interrupt_manager.c: 38:     if ((INTCONbits.INT0IE == 1) && 
      +                          (INTCONbits.INT0IF == 1))
   924   00000A  A8F2               	btfss	242,4,c	;volatile
   925   00000C  EF0A  F000         	goto	i2u150_41
   926   000010  EF0C  F000         	goto	i2u150_40
   927   000014                     i2u150_41:
   928   000014  EF15  F000         	goto	i2l680
   929   000018                     i2u150_40:
   930   000018  A2F2               	btfss	242,1,c	;volatile
   931   00001A  EF11  F000         	goto	i2u151_41
   932   00001E  EF13  F000         	goto	i2u151_40
   933   000022                     i2u151_41:
   934   000022  EF15  F000         	goto	i2l680
   935   000026                     i2u151_40:
   936   000026                     
   937                           ;MCAL_Layer/interrupt/mcal_interrupt_manager.c: 39:     {;MCAL_Layer/interrupt/mcal_inte
      +                          rrupt_manager.c: 40:         INT0_ISR();
   938   000026  EC69  F009         	call	_INT0_ISR	;wreg free
   939   00002A                     i2l680:
   940                           
   941                           ;MCAL_Layer/interrupt/mcal_interrupt_manager.c: 43:     if ((INTCON3bits.INT1IE == 1) &&
      +                           (INTCON3bits.INT1IF == 1))
   942   00002A  A6F0               	btfss	240,3,c	;volatile
   943   00002C  EF1A  F000         	goto	i2u152_41
   944   000030  EF1C  F000         	goto	i2u152_40
   945   000034                     i2u152_41:
   946   000034  EF25  F000         	goto	i2l682
   947   000038                     i2u152_40:
   948   000038  A0F0               	btfss	240,0,c	;volatile
   949   00003A  EF21  F000         	goto	i2u153_41
   950   00003E  EF23  F000         	goto	i2u153_40
   951   000042                     i2u153_41:
   952   000042  EF25  F000         	goto	i2l682
   953   000046                     i2u153_40:
   954   000046                     
   955                           ;MCAL_Layer/interrupt/mcal_interrupt_manager.c: 44:     {;MCAL_Layer/interrupt/mcal_inte
      +                          rrupt_manager.c: 45:         INT1_ISR();
   956   000046  EC67  F009         	call	_INT1_ISR	;wreg free
   957   00004A                     i2l682:
   958                           
   959                           ;MCAL_Layer/interrupt/mcal_interrupt_manager.c: 48:     if ((INTCON3bits.INT2IE == 1) &&
      +                           (INTCON3bits.INT2IF == 1))
   960   00004A  A8F0               	btfss	240,4,c	;volatile
   961   00004C  EF2A  F000         	goto	i2u154_41
   962   000050  EF2C  F000         	goto	i2u154_40
   963   000054                     i2u154_41:
   964   000054  EF35  F000         	goto	i2l684
   965   000058                     i2u154_40:
   966   000058  A2F0               	btfss	240,1,c	;volatile
   967   00005A  EF31  F000         	goto	i2u155_41
   968   00005E  EF33  F000         	goto	i2u155_40
   969   000062                     i2u155_41:
   970   000062  EF35  F000         	goto	i2l684
   971   000066                     i2u155_40:
   972   000066                     
   973                           ;MCAL_Layer/interrupt/mcal_interrupt_manager.c: 49:     {;MCAL_Layer/interrupt/mcal_inte
      +                          rrupt_manager.c: 50:         INT2_ISR();
   974   000066  EC65  F009         	call	_INT2_ISR	;wreg free
   975   00006A                     i2l684:
   976                           
   977                           ;MCAL_Layer/interrupt/mcal_interrupt_manager.c: 56:     if ((INTCONbits.RBIE == 1) && (I
      +                          NTCONbits.RBIF == 1) &&
   978   00006A  A6F2               	btfss	242,3,c	;volatile
   979   00006C  EF3A  F000         	goto	i2u156_41
   980   000070  EF3C  F000         	goto	i2u156_40
   981   000074                     i2u156_41:
   982   000074  EF57  F000         	goto	i2l686
   983   000078                     i2u156_40:
   984   000078  A0F2               	btfss	242,0,c	;volatile
   985   00007A  EF41  F000         	goto	i2u157_41
   986   00007E  EF43  F000         	goto	i2u157_40
   987   000082                     i2u157_41:
   988   000082  EF57  F000         	goto	i2l686
   989   000086                     i2u157_40:
   990   000086  A881               	btfss	129,4,c	;volatile
   991   000088  EF48  F000         	goto	i2u158_41
   992   00008C  EF4A  F000         	goto	i2u158_40
   993   000090                     i2u158_41:
   994   000090  EF57  F000         	goto	i2l686
   995   000094                     i2u158_40:
   996   000094  0453               	decf	_RB4_Flag^0,w,c	;volatile
   997   000096  A4D8               	btfss	status,2,c
   998   000098  EF50  F000         	goto	i2u159_41
   999   00009C  EF52  F000         	goto	i2u159_40
  1000   0000A0                     i2u159_41:
  1001   0000A0  EF57  F000         	goto	i2l686
  1002   0000A4                     i2u159_40:
  1003   0000A4                     
  1004                           ;MCAL_Layer/interrupt/mcal_interrupt_manager.c: 58:     {;MCAL_Layer/interrupt/mcal_inte
      +                          rrupt_manager.c: 59:         RB4_Flag = 0;
  1005   0000A4  0E00               	movlw	0
  1006   0000A6  6E53               	movwf	_RB4_Flag^0,c	;volatile
  1007   0000A8                     
  1008                           ;MCAL_Layer/interrupt/mcal_interrupt_manager.c: 60:         RB4_ISR(1);
  1009   0000A8  0E01               	movlw	1
  1010   0000AA  EC31  F009         	call	_RB4_ISR
  1011   0000AE                     i2l686:
  1012                           
  1013                           ;MCAL_Layer/interrupt/mcal_interrupt_manager.c: 63:     if ((INTCONbits.RBIE == 1) && (I
      +                          NTCONbits.RBIF == 1) &&
  1014   0000AE  A6F2               	btfss	242,3,c	;volatile
  1015   0000B0  EF5C  F000         	goto	i2u160_41
  1016   0000B4  EF5E  F000         	goto	i2u160_40
  1017   0000B8                     i2u160_41:
  1018   0000B8  EF79  F000         	goto	i2l688
  1019   0000BC                     i2u160_40:
  1020   0000BC  A0F2               	btfss	242,0,c	;volatile
  1021   0000BE  EF63  F000         	goto	i2u161_41
  1022   0000C2  EF65  F000         	goto	i2u161_40
  1023   0000C6                     i2u161_41:
  1024   0000C6  EF79  F000         	goto	i2l688
  1025   0000CA                     i2u161_40:
  1026   0000CA  B881               	btfsc	129,4,c	;volatile
  1027   0000CC  EF6A  F000         	goto	i2u162_41
  1028   0000D0  EF6C  F000         	goto	i2u162_40
  1029   0000D4                     i2u162_41:
  1030   0000D4  EF79  F000         	goto	i2l688
  1031   0000D8                     i2u162_40:
  1032   0000D8  5053               	movf	_RB4_Flag^0,w,c	;volatile
  1033   0000DA  A4D8               	btfss	status,2,c
  1034   0000DC  EF72  F000         	goto	i2u163_41
  1035   0000E0  EF74  F000         	goto	i2u163_40
  1036   0000E4                     i2u163_41:
  1037   0000E4  EF79  F000         	goto	i2l688
  1038   0000E8                     i2u163_40:
  1039   0000E8                     
  1040                           ;MCAL_Layer/interrupt/mcal_interrupt_manager.c: 65:     {;MCAL_Layer/interrupt/mcal_inte
      +                          rrupt_manager.c: 66:         RB4_Flag = 1;
  1041   0000E8  0E01               	movlw	1
  1042   0000EA  6E53               	movwf	_RB4_Flag^0,c	;volatile
  1043   0000EC                     
  1044                           ;MCAL_Layer/interrupt/mcal_interrupt_manager.c: 67:         RB4_ISR(0);
  1045   0000EC  0E00               	movlw	0
  1046   0000EE  EC31  F009         	call	_RB4_ISR
  1047   0000F2                     i2l688:
  1048                           
  1049                           ;MCAL_Layer/interrupt/mcal_interrupt_manager.c: 70:     if ((INTCONbits.RBIE == 1) && (I
      +                          NTCONbits.RBIF == 1) &&
  1050   0000F2  A6F2               	btfss	242,3,c	;volatile
  1051   0000F4  EF7E  F000         	goto	i2u164_41
  1052   0000F8  EF80  F000         	goto	i2u164_40
  1053   0000FC                     i2u164_41:
  1054   0000FC  EF9B  F000         	goto	i2l690
  1055   000100                     i2u164_40:
  1056   000100  A0F2               	btfss	242,0,c	;volatile
  1057   000102  EF85  F000         	goto	i2u165_41
  1058   000106  EF87  F000         	goto	i2u165_40
  1059   00010A                     i2u165_41:
  1060   00010A  EF9B  F000         	goto	i2l690
  1061   00010E                     i2u165_40:
  1062   00010E  AA81               	btfss	129,5,c	;volatile
  1063   000110  EF8C  F000         	goto	i2u166_41
  1064   000114  EF8E  F000         	goto	i2u166_40
  1065   000118                     i2u166_41:
  1066   000118  EF9B  F000         	goto	i2l690
  1067   00011C                     i2u166_40:
  1068   00011C  0452               	decf	_RB5_Flag^0,w,c	;volatile
  1069   00011E  A4D8               	btfss	status,2,c
  1070   000120  EF94  F000         	goto	i2u167_41
  1071   000124  EF96  F000         	goto	i2u167_40
  1072   000128                     i2u167_41:
  1073   000128  EF9B  F000         	goto	i2l690
  1074   00012C                     i2u167_40:
  1075   00012C                     
  1076                           ;MCAL_Layer/interrupt/mcal_interrupt_manager.c: 72:     {;MCAL_Layer/interrupt/mcal_inte
      +                          rrupt_manager.c: 73:         RB5_Flag = 0;
  1077   00012C  0E00               	movlw	0
  1078   00012E  6E52               	movwf	_RB5_Flag^0,c	;volatile
  1079   000130                     
  1080                           ;MCAL_Layer/interrupt/mcal_interrupt_manager.c: 74:         RB5_ISR(1);
  1081   000130  0E01               	movlw	1
  1082   000132  EC24  F009         	call	_RB5_ISR
  1083   000136                     i2l690:
  1084                           
  1085                           ;MCAL_Layer/interrupt/mcal_interrupt_manager.c: 77:     if ((INTCONbits.RBIE == 1) && (I
      +                          NTCONbits.RBIF == 1) &&
  1086   000136  A6F2               	btfss	242,3,c	;volatile
  1087   000138  EFA0  F000         	goto	i2u168_41
  1088   00013C  EFA2  F000         	goto	i2u168_40
  1089   000140                     i2u168_41:
  1090   000140  EFBD  F000         	goto	i2l3204
  1091   000144                     i2u168_40:
  1092   000144  A0F2               	btfss	242,0,c	;volatile
  1093   000146  EFA7  F000         	goto	i2u169_41
  1094   00014A  EFA9  F000         	goto	i2u169_40
  1095   00014E                     i2u169_41:
  1096   00014E  EFBD  F000         	goto	i2l3204
  1097   000152                     i2u169_40:
  1098   000152  BA81               	btfsc	129,5,c	;volatile
  1099   000154  EFAE  F000         	goto	i2u170_41
  1100   000158  EFB0  F000         	goto	i2u170_40
  1101   00015C                     i2u170_41:
  1102   00015C  EFBD  F000         	goto	i2l3204
  1103   000160                     i2u170_40:
  1104   000160  5052               	movf	_RB5_Flag^0,w,c	;volatile
  1105   000162  A4D8               	btfss	status,2,c
  1106   000164  EFB6  F000         	goto	i2u171_41
  1107   000168  EFB8  F000         	goto	i2u171_40
  1108   00016C                     i2u171_41:
  1109   00016C  EFBD  F000         	goto	i2l3204
  1110   000170                     i2u171_40:
  1111   000170                     
  1112                           ;MCAL_Layer/interrupt/mcal_interrupt_manager.c: 79:     {;MCAL_Layer/interrupt/mcal_inte
      +                          rrupt_manager.c: 80:         RB5_Flag = 1;
  1113   000170  0E01               	movlw	1
  1114   000172  6E52               	movwf	_RB5_Flag^0,c	;volatile
  1115   000174                     
  1116                           ;MCAL_Layer/interrupt/mcal_interrupt_manager.c: 81:         RB5_ISR(0);
  1117   000174  0E00               	movlw	0
  1118   000176  EC24  F009         	call	_RB5_ISR
  1119   00017A                     i2l3204:
  1120                           
  1121                           ;MCAL_Layer/interrupt/mcal_interrupt_manager.c: 84:     if ((INTCONbits.RBIE == 1) && (I
      +                          NTCONbits.RBIF == 1) &&
  1122   00017A  A6F2               	btfss	242,3,c	;volatile
  1123   00017C  EFC2  F000         	goto	i2u172_41
  1124   000180  EFC4  F000         	goto	i2u172_40
  1125   000184                     i2u172_41:
  1126   000184  EFDF  F000         	goto	i2l693
  1127   000188                     i2u172_40:
  1128   000188  A0F2               	btfss	242,0,c	;volatile
  1129   00018A  EFC9  F000         	goto	i2u173_41
  1130   00018E  EFCB  F000         	goto	i2u173_40
  1131   000192                     i2u173_41:
  1132   000192  EFDF  F000         	goto	i2l693
  1133   000196                     i2u173_40:
  1134   000196  AC81               	btfss	129,6,c	;volatile
  1135   000198  EFD0  F000         	goto	i2u174_41
  1136   00019C  EFD2  F000         	goto	i2u174_40
  1137   0001A0                     i2u174_41:
  1138   0001A0  EFDF  F000         	goto	i2l693
  1139   0001A4                     i2u174_40:
  1140   0001A4  0451               	decf	_RB6_Flag^0,w,c	;volatile
  1141   0001A6  A4D8               	btfss	status,2,c
  1142   0001A8  EFD8  F000         	goto	i2u175_41
  1143   0001AC  EFDA  F000         	goto	i2u175_40
  1144   0001B0                     i2u175_41:
  1145   0001B0  EFDF  F000         	goto	i2l693
  1146   0001B4                     i2u175_40:
  1147   0001B4                     
  1148                           ;MCAL_Layer/interrupt/mcal_interrupt_manager.c: 86:     {;MCAL_Layer/interrupt/mcal_inte
      +                          rrupt_manager.c: 87:         RB6_Flag = 0;
  1149   0001B4  0E00               	movlw	0
  1150   0001B6  6E51               	movwf	_RB6_Flag^0,c	;volatile
  1151   0001B8                     
  1152                           ;MCAL_Layer/interrupt/mcal_interrupt_manager.c: 88:         RB6_ISR(1);
  1153   0001B8  0E01               	movlw	1
  1154   0001BA  EC17  F009         	call	_RB6_ISR
  1155   0001BE                     i2l693:
  1156                           
  1157                           ;MCAL_Layer/interrupt/mcal_interrupt_manager.c: 91:     if ((INTCONbits.RBIE == 1) && (I
      +                          NTCONbits.RBIF == 1) &&
  1158   0001BE  A6F2               	btfss	242,3,c	;volatile
  1159   0001C0  EFE4  F000         	goto	i2u176_41
  1160   0001C4  EFE6  F000         	goto	i2u176_40
  1161   0001C8                     i2u176_41:
  1162   0001C8  EF01  F001         	goto	i2l3226
  1163   0001CC                     i2u176_40:
  1164   0001CC  A0F2               	btfss	242,0,c	;volatile
  1165   0001CE  EFEB  F000         	goto	i2u177_41
  1166   0001D2  EFED  F000         	goto	i2u177_40
  1167   0001D6                     i2u177_41:
  1168   0001D6  EF01  F001         	goto	i2l3226
  1169   0001DA                     i2u177_40:
  1170   0001DA  BC81               	btfsc	129,6,c	;volatile
  1171   0001DC  EFF2  F000         	goto	i2u178_41
  1172   0001E0  EFF4  F000         	goto	i2u178_40
  1173   0001E4                     i2u178_41:
  1174   0001E4  EF01  F001         	goto	i2l3226
  1175   0001E8                     i2u178_40:
  1176   0001E8  5051               	movf	_RB6_Flag^0,w,c	;volatile
  1177   0001EA  A4D8               	btfss	status,2,c
  1178   0001EC  EFFA  F000         	goto	i2u179_41
  1179   0001F0  EFFC  F000         	goto	i2u179_40
  1180   0001F4                     i2u179_41:
  1181   0001F4  EF01  F001         	goto	i2l3226
  1182   0001F8                     i2u179_40:
  1183   0001F8                     
  1184                           ;MCAL_Layer/interrupt/mcal_interrupt_manager.c: 93:     {;MCAL_Layer/interrupt/mcal_inte
      +                          rrupt_manager.c: 94:         RB6_Flag = 1;
  1185   0001F8  0E01               	movlw	1
  1186   0001FA  6E51               	movwf	_RB6_Flag^0,c	;volatile
  1187   0001FC                     
  1188                           ;MCAL_Layer/interrupt/mcal_interrupt_manager.c: 95:         RB6_ISR(0);
  1189   0001FC  0E00               	movlw	0
  1190   0001FE  EC17  F009         	call	_RB6_ISR
  1191   000202                     i2l3226:
  1192                           
  1193                           ;MCAL_Layer/interrupt/mcal_interrupt_manager.c: 98:     if ((INTCONbits.RBIE == 1) && (I
      +                          NTCONbits.RBIF == 1) &&
  1194   000202  A6F2               	btfss	242,3,c	;volatile
  1195   000204  EF06  F001         	goto	i2u180_41
  1196   000208  EF08  F001         	goto	i2u180_40
  1197   00020C                     i2u180_41:
  1198   00020C  EF23  F001         	goto	i2l696
  1199   000210                     i2u180_40:
  1200   000210  A0F2               	btfss	242,0,c	;volatile
  1201   000212  EF0D  F001         	goto	i2u181_41
  1202   000216  EF0F  F001         	goto	i2u181_40
  1203   00021A                     i2u181_41:
  1204   00021A  EF23  F001         	goto	i2l696
  1205   00021E                     i2u181_40:
  1206   00021E  AE81               	btfss	129,7,c	;volatile
  1207   000220  EF14  F001         	goto	i2u182_41
  1208   000224  EF16  F001         	goto	i2u182_40
  1209   000228                     i2u182_41:
  1210   000228  EF23  F001         	goto	i2l696
  1211   00022C                     i2u182_40:
  1212   00022C  0450               	decf	_RB7_Flag^0,w,c	;volatile
  1213   00022E  A4D8               	btfss	status,2,c
  1214   000230  EF1C  F001         	goto	i2u183_41
  1215   000234  EF1E  F001         	goto	i2u183_40
  1216   000238                     i2u183_41:
  1217   000238  EF23  F001         	goto	i2l696
  1218   00023C                     i2u183_40:
  1219   00023C                     
  1220                           ;MCAL_Layer/interrupt/mcal_interrupt_manager.c: 100:     {;MCAL_Layer/interrupt/mcal_int
      +                          errupt_manager.c: 101:         RB7_Flag = 0;
  1221   00023C  0E00               	movlw	0
  1222   00023E  6E50               	movwf	_RB7_Flag^0,c	;volatile
  1223   000240                     
  1224                           ;MCAL_Layer/interrupt/mcal_interrupt_manager.c: 102:         RB7_ISR(1);
  1225   000240  0E01               	movlw	1
  1226   000242  EC0A  F009         	call	_RB7_ISR
  1227   000246                     i2l696:
  1228                           
  1229                           ;MCAL_Layer/interrupt/mcal_interrupt_manager.c: 105:     if ((INTCONbits.RBIE == 1) && (
      +                          INTCONbits.RBIF == 1) &&
  1230   000246  A6F2               	btfss	242,3,c	;volatile
  1231   000248  EF28  F001         	goto	i2u184_41
  1232   00024C  EF2A  F001         	goto	i2u184_40
  1233   000250                     i2u184_41:
  1234   000250  EF45  F001         	goto	i2l698
  1235   000254                     i2u184_40:
  1236   000254  A0F2               	btfss	242,0,c	;volatile
  1237   000256  EF2F  F001         	goto	i2u185_41
  1238   00025A  EF31  F001         	goto	i2u185_40
  1239   00025E                     i2u185_41:
  1240   00025E  EF45  F001         	goto	i2l698
  1241   000262                     i2u185_40:
  1242   000262  BE81               	btfsc	129,7,c	;volatile
  1243   000264  EF36  F001         	goto	i2u186_41
  1244   000268  EF38  F001         	goto	i2u186_40
  1245   00026C                     i2u186_41:
  1246   00026C  EF45  F001         	goto	i2l698
  1247   000270                     i2u186_40:
  1248   000270  5050               	movf	_RB7_Flag^0,w,c	;volatile
  1249   000272  A4D8               	btfss	status,2,c
  1250   000274  EF3E  F001         	goto	i2u187_41
  1251   000278  EF40  F001         	goto	i2u187_40
  1252   00027C                     i2u187_41:
  1253   00027C  EF45  F001         	goto	i2l698
  1254   000280                     i2u187_40:
  1255   000280                     
  1256                           ;MCAL_Layer/interrupt/mcal_interrupt_manager.c: 107:     {;MCAL_Layer/interrupt/mcal_int
      +                          errupt_manager.c: 108:         RB7_Flag = 1;
  1257   000280  0E01               	movlw	1
  1258   000282  6E50               	movwf	_RB7_Flag^0,c	;volatile
  1259   000284                     
  1260                           ;MCAL_Layer/interrupt/mcal_interrupt_manager.c: 109:         RB7_ISR(0);
  1261   000284  0E00               	movlw	0
  1262   000286  EC0A  F009         	call	_RB7_ISR
  1263   00028A                     i2l698:
  1264                           
  1265                           ;MCAL_Layer/interrupt/mcal_interrupt_manager.c: 115:     if ((PIE1bits.ADIE == 1) && (PI
      +                          R1bits.ADIF == 1)){
  1266   00028A  AC9D               	btfss	157,6,c	;volatile
  1267   00028C  EF4A  F001         	goto	i2u188_41
  1268   000290  EF4C  F001         	goto	i2u188_40
  1269   000294                     i2u188_41:
  1270   000294  EF55  F001         	goto	i2l700
  1271   000298                     i2u188_40:
  1272   000298  AC9E               	btfss	158,6,c	;volatile
  1273   00029A  EF51  F001         	goto	i2u189_41
  1274   00029E  EF53  F001         	goto	i2u189_40
  1275   0002A2                     i2u189_41:
  1276   0002A2  EF55  F001         	goto	i2l700
  1277   0002A6                     i2u189_40:
  1278   0002A6                     
  1279                           ;MCAL_Layer/interrupt/mcal_interrupt_manager.c: 116:         ADC_ISR();
  1280   0002A6  EC6B  F009         	call	_ADC_ISR	;wreg free
  1281   0002AA                     i2l700:
  1282                           
  1283                           ;MCAL_Layer/interrupt/mcal_interrupt_manager.c: 121:     if ((INTCONbits.TMR0IE == 1) &&
      +                           (INTCONbits.TMR0IF == 1)){
  1284   0002AA  AAF2               	btfss	242,5,c	;volatile
  1285   0002AC  EF5A  F001         	goto	i2u190_41
  1286   0002B0  EF5C  F001         	goto	i2u190_40
  1287   0002B4                     i2u190_41:
  1288   0002B4  EF65  F001         	goto	i2l702
  1289   0002B8                     i2u190_40:
  1290   0002B8  A4F2               	btfss	242,2,c	;volatile
  1291   0002BA  EF61  F001         	goto	i2u191_41
  1292   0002BE  EF63  F001         	goto	i2u191_40
  1293   0002C2                     i2u191_41:
  1294   0002C2  EF65  F001         	goto	i2l702
  1295   0002C6                     i2u191_40:
  1296   0002C6                     
  1297                           ;MCAL_Layer/interrupt/mcal_interrupt_manager.c: 122:         TMR0_ISR();
  1298   0002C6  EC56  F009         	call	_TMR0_ISR	;wreg free
  1299   0002CA                     i2l702:
  1300                           
  1301                           ;MCAL_Layer/interrupt/mcal_interrupt_manager.c: 127:     if ((PIE1bits.TMR1IE == 1) && (
      +                          PIR1bits.TMR1IF == 1)){
  1302   0002CA  A09D               	btfss	157,0,c	;volatile
  1303   0002CC  EF6A  F001         	goto	i2u192_41
  1304   0002D0  EF6C  F001         	goto	i2u192_40
  1305   0002D4                     i2u192_41:
  1306   0002D4  EF75  F001         	goto	i2l704
  1307   0002D8                     i2u192_40:
  1308   0002D8  A09E               	btfss	158,0,c	;volatile
  1309   0002DA  EF71  F001         	goto	i2u193_41
  1310   0002DE  EF73  F001         	goto	i2u193_40
  1311   0002E2                     i2u193_41:
  1312   0002E2  EF75  F001         	goto	i2l704
  1313   0002E6                     i2u193_40:
  1314   0002E6                     
  1315                           ;MCAL_Layer/interrupt/mcal_interrupt_manager.c: 128:         TMR1_ISR();
  1316   0002E6  EC50  F009         	call	_TMR1_ISR	;wreg free
  1317   0002EA                     i2l704:
  1318                           
  1319                           ;MCAL_Layer/interrupt/mcal_interrupt_manager.c: 133:     if ((PIE1bits.TMR2IE == 1) && (
      +                          PIR1bits.TMR2IF == 1)){
  1320   0002EA  A29D               	btfss	157,1,c	;volatile
  1321   0002EC  EF7A  F001         	goto	i2u194_41
  1322   0002F0  EF7C  F001         	goto	i2u194_40
  1323   0002F4                     i2u194_41:
  1324   0002F4  EF85  F001         	goto	i2l706
  1325   0002F8                     i2u194_40:
  1326   0002F8  A29E               	btfss	158,1,c	;volatile
  1327   0002FA  EF81  F001         	goto	i2u195_41
  1328   0002FE  EF83  F001         	goto	i2u195_40
  1329   000302                     i2u195_41:
  1330   000302  EF85  F001         	goto	i2l706
  1331   000306                     i2u195_40:
  1332   000306                     
  1333                           ;MCAL_Layer/interrupt/mcal_interrupt_manager.c: 134:         TMR2_ISR();
  1334   000306  EC61  F009         	call	_TMR2_ISR	;wreg free
  1335   00030A                     i2l706:
  1336                           
  1337                           ;MCAL_Layer/interrupt/mcal_interrupt_manager.c: 139:     if ((PIE2bits.TMR3IE == 1) && (
      +                          PIR2bits.TMR3IF == 1)){
  1338   00030A  A2A0               	btfss	160,1,c	;volatile
  1339   00030C  EF8A  F001         	goto	i2u196_41
  1340   000310  EF8C  F001         	goto	i2u196_40
  1341   000314                     i2u196_41:
  1342   000314  EF95  F001         	goto	i2l709
  1343   000318                     i2u196_40:
  1344   000318  A2A1               	btfss	161,1,c	;volatile
  1345   00031A  EF91  F001         	goto	i2u197_41
  1346   00031E  EF93  F001         	goto	i2u197_40
  1347   000322                     i2u197_41:
  1348   000322  EF95  F001         	goto	i2l709
  1349   000326                     i2u197_40:
  1350   000326                     
  1351                           ;MCAL_Layer/interrupt/mcal_interrupt_manager.c: 140:         TMR3_ISR();
  1352   000326  EC4A  F009         	call	_TMR3_ISR	;wreg free
  1353   00032A                     i2l709:
  1354   00032A  925C               	bcf	int$flags,1,c	;clear compiler interrupt flag (level 2)
  1355   00032C  0011               	retfie		f
  1356   00032E                     __end_of_InterruptManager:
  1357                           	callstack 0
  1358                           
  1359 ;; *************** function _TMR3_ISR *****************
  1360 ;; Defined at:
  1361 ;;		line 92 in file "MCAL_Layer/Timer3/hal_timer3.c"
  1362 ;; Parameters:    Size  Location     Type
  1363 ;;		None
  1364 ;; Auto vars:     Size  Location     Type
  1365 ;;		None
  1366 ;; Return value:  Size  Location     Type
  1367 ;;                  1    wreg      void 
  1368 ;; Registers used:
  1369 ;;		wreg, status,2
  1370 ;; Tracked objects:
  1371 ;;		On entry : 0/0
  1372 ;;		On exit  : 0/0
  1373 ;;		Unchanged: 0/0
  1374 ;; Data sizes:     COMRAM   BANK0   BANK1   BANK2   BANK3   BANK4   BANK5   BANK6   BANK7   BANK8   BANK9  BANK10  BANK1
      +1  BANK12  BANK13  BANK14  BANK15
  1375 ;;      Params:         0       0       0       0       0       0       0       0       0       0       0       0       
      +0       0       0       0       0
  1376 ;;      Locals:         0       0       0       0       0       0       0       0       0       0       0       0       
      +0       0       0       0       0
  1377 ;;      Temps:          0       0       0       0       0       0       0       0       0       0       0       0       
      +0       0       0       0       0
  1378 ;;      Totals:         0       0       0       0       0       0       0       0       0       0       0       0       
      +0       0       0       0       0
  1379 ;;Total ram usage:        0 bytes
  1380 ;; Hardware stack levels used: 1
  1381 ;; This function calls:
  1382 ;;		Nothing
  1383 ;; This function is called by:
  1384 ;;		_InterruptManager
  1385 ;; This function uses a non-reentrant model
  1386 ;;
  1387                           
  1388                           	psect	text5
  1389   001294                     __ptext5:
  1390                           	callstack 0
  1391   001294                     _TMR3_ISR:
  1392                           	callstack 27
  1393   001294                     
  1394                           ;MCAL_Layer/Timer3/hal_timer3.c: 93:     (PIR2bits.TMR3IF = 0);
  1395   001294  92A1               	bcf	161,1,c	;volatile
  1396   001296                     
  1397                           ;MCAL_Layer/Timer3/hal_timer3.c: 94:     TMR3H = ((timer3_preload) >> 8);
  1398   001296  5006               	movf	(_timer3_preload+1)^0,w,c
  1399   001298  6EB3               	movwf	179,c	;volatile
  1400   00129A                     
  1401                           ;MCAL_Layer/Timer3/hal_timer3.c: 95:     TMR3L = (uint8)(timer3_preload) ;
  1402   00129A  C005  FFB2         	movff	_timer3_preload,4018	;volatile
  1403   00129E  0012               	return		;funcret
  1404   0012A0                     __end_of_TMR3_ISR:
  1405                           	callstack 0
  1406                           
  1407 ;; *************** function _TMR2_ISR *****************
  1408 ;; Defined at:
  1409 ;;		line 87 in file "MCAL_Layer/Timer2/hal_timer2.c"
  1410 ;; Parameters:    Size  Location     Type
  1411 ;;		None
  1412 ;; Auto vars:     Size  Location     Type
  1413 ;;		None
  1414 ;; Return value:  Size  Location     Type
  1415 ;;                  1    wreg      void 
  1416 ;; Registers used:
  1417 ;;		None
  1418 ;; Tracked objects:
  1419 ;;		On entry : 0/0
  1420 ;;		On exit  : 0/0
  1421 ;;		Unchanged: 0/0
  1422 ;; Data sizes:     COMRAM   BANK0   BANK1   BANK2   BANK3   BANK4   BANK5   BANK6   BANK7   BANK8   BANK9  BANK10  BANK1
      +1  BANK12  BANK13  BANK14  BANK15
  1423 ;;      Params:         0       0       0       0       0       0       0       0       0       0       0       0       
      +0       0       0       0       0
  1424 ;;      Locals:         0       0       0       0       0       0       0       0       0       0       0       0       
      +0       0       0       0       0
  1425 ;;      Temps:          0       0       0       0       0       0       0       0       0       0       0       0       
      +0       0       0       0       0
  1426 ;;      Totals:         0       0       0       0       0       0       0       0       0       0       0       0       
      +0       0       0       0       0
  1427 ;;Total ram usage:        0 bytes
  1428 ;; Hardware stack levels used: 1
  1429 ;; This function calls:
  1430 ;;		Nothing
  1431 ;; This function is called by:
  1432 ;;		_InterruptManager
  1433 ;; This function uses a non-reentrant model
  1434 ;;
  1435                           
  1436                           	psect	text6
  1437   0012C2                     __ptext6:
  1438                           	callstack 0
  1439   0012C2                     _TMR2_ISR:
  1440                           	callstack 27
  1441   0012C2                     
  1442                           ;MCAL_Layer/Timer2/hal_timer2.c: 88:     (PIR1bits.TMR2IF = 0);
  1443   0012C2  929E               	bcf	158,1,c	;volatile
  1444                           
  1445                           ;MCAL_Layer/Timer2/hal_timer2.c: 89:     TMR2 = timer2_preload;
  1446   0012C4  C02B  FFCC         	movff	_timer2_preload,4044	;volatile
  1447   0012C8  0012               	return		;funcret
  1448   0012CA                     __end_of_TMR2_ISR:
  1449                           	callstack 0
  1450                           
  1451 ;; *************** function _TMR1_ISR *****************
  1452 ;; Defined at:
  1453 ;;		line 95 in file "MCAL_Layer/Timer1/hal_timer1.c"
  1454 ;; Parameters:    Size  Location     Type
  1455 ;;		None
  1456 ;; Auto vars:     Size  Location     Type
  1457 ;;		None
  1458 ;; Return value:  Size  Location     Type
  1459 ;;                  1    wreg      void 
  1460 ;; Registers used:
  1461 ;;		wreg, status,2
  1462 ;; Tracked objects:
  1463 ;;		On entry : 0/0
  1464 ;;		On exit  : 0/0
  1465 ;;		Unchanged: 0/0
  1466 ;; Data sizes:     COMRAM   BANK0   BANK1   BANK2   BANK3   BANK4   BANK5   BANK6   BANK7   BANK8   BANK9  BANK10  BANK1
      +1  BANK12  BANK13  BANK14  BANK15
  1467 ;;      Params:         0       0       0       0       0       0       0       0       0       0       0       0       
      +0       0       0       0       0
  1468 ;;      Locals:         0       0       0       0       0       0       0       0       0       0       0       0       
      +0       0       0       0       0
  1469 ;;      Temps:          0       0       0       0       0       0       0       0       0       0       0       0       
      +0       0       0       0       0
  1470 ;;      Totals:         0       0       0       0       0       0       0       0       0       0       0       0       
      +0       0       0       0       0
  1471 ;;Total ram usage:        0 bytes
  1472 ;; Hardware stack levels used: 1
  1473 ;; This function calls:
  1474 ;;		Nothing
  1475 ;; This function is called by:
  1476 ;;		_InterruptManager
  1477 ;; This function uses a non-reentrant model
  1478 ;;
  1479                           
  1480                           	psect	text7
  1481   0012A0                     __ptext7:
  1482                           	callstack 0
  1483   0012A0                     _TMR1_ISR:
  1484                           	callstack 27
  1485   0012A0                     
  1486                           ;MCAL_Layer/Timer1/hal_timer1.c: 96:     (PIR1bits.TMR1IF = 0);
  1487   0012A0  909E               	bcf	158,0,c	;volatile
  1488   0012A2                     
  1489                           ;MCAL_Layer/Timer1/hal_timer1.c: 97:     TMR1H = ((timer1_preload) >> 8);
  1490   0012A2  500C               	movf	(_timer1_preload+1)^0,w,c
  1491   0012A4  6ECF               	movwf	207,c	;volatile
  1492   0012A6                     
  1493                           ;MCAL_Layer/Timer1/hal_timer1.c: 98:     TMR1L = (uint8)(timer1_preload) ;
  1494   0012A6  C00B  FFCE         	movff	_timer1_preload,4046	;volatile
  1495   0012AA  0012               	return		;funcret
  1496   0012AC                     __end_of_TMR1_ISR:
  1497                           	callstack 0
  1498                           
  1499 ;; *************** function _TMR0_ISR *****************
  1500 ;; Defined at:
  1501 ;;		line 100 in file "MCAL_Layer/Timer0/hal_timer0.c"
  1502 ;; Parameters:    Size  Location     Type
  1503 ;;		None
  1504 ;; Auto vars:     Size  Location     Type
  1505 ;;		None
  1506 ;; Return value:  Size  Location     Type
  1507 ;;                  1    wreg      void 
  1508 ;; Registers used:
  1509 ;;		wreg, status,2
  1510 ;; Tracked objects:
  1511 ;;		On entry : 0/0
  1512 ;;		On exit  : 0/0
  1513 ;;		Unchanged: 0/0
  1514 ;; Data sizes:     COMRAM   BANK0   BANK1   BANK2   BANK3   BANK4   BANK5   BANK6   BANK7   BANK8   BANK9  BANK10  BANK1
      +1  BANK12  BANK13  BANK14  BANK15
  1515 ;;      Params:         0       0       0       0       0       0       0       0       0       0       0       0       
      +0       0       0       0       0
  1516 ;;      Locals:         0       0       0       0       0       0       0       0       0       0       0       0       
      +0       0       0       0       0
  1517 ;;      Temps:          0       0       0       0       0       0       0       0       0       0       0       0       
      +0       0       0       0       0
  1518 ;;      Totals:         0       0       0       0       0       0       0       0       0       0       0       0       
      +0       0       0       0       0
  1519 ;;Total ram usage:        0 bytes
  1520 ;; Hardware stack levels used: 1
  1521 ;; This function calls:
  1522 ;;		Nothing
  1523 ;; This function is called by:
  1524 ;;		_InterruptManager
  1525 ;; This function uses a non-reentrant model
  1526 ;;
  1527                           
  1528                           	psect	text8
  1529   0012AC                     __ptext8:
  1530                           	callstack 0
  1531   0012AC                     _TMR0_ISR:
  1532                           	callstack 27
  1533   0012AC                     
  1534                           ;MCAL_Layer/Timer0/hal_timer0.c: 101:     (INTCONbits.TMR0IF = 0);
  1535   0012AC  94F2               	bcf	242,2,c	;volatile
  1536   0012AE                     
  1537                           ;MCAL_Layer/Timer0/hal_timer0.c: 102:     TMR0H = ((timer0_preload) >> 8);
  1538   0012AE  5010               	movf	(_timer0_preload+1)^0,w,c
  1539   0012B0  6ED7               	movwf	215,c	;volatile
  1540   0012B2                     
  1541                           ;MCAL_Layer/Timer0/hal_timer0.c: 103:     TMR0L = (uint8)(timer0_preload) ;
  1542   0012B2  C00F  FFD6         	movff	_timer0_preload,4054	;volatile
  1543   0012B6  0012               	return		;funcret
  1544   0012B8                     __end_of_TMR0_ISR:
  1545                           	callstack 0
  1546                           
  1547 ;; *************** function _RB7_ISR *****************
  1548 ;; Defined at:
  1549 ;;		line 168 in file "MCAL_Layer/interrupt/mcal_external_interrupt.c"
  1550 ;; Parameters:    Size  Location     Type
  1551 ;;  RB7_source      1    wreg     unsigned char 
  1552 ;; Auto vars:     Size  Location     Type
  1553 ;;  RB7_source      1    0[COMRAM] unsigned char 
  1554 ;; Return value:  Size  Location     Type
  1555 ;;                  1    wreg      void 
  1556 ;; Registers used:
  1557 ;;		wreg, status,2, status,0
  1558 ;; Tracked objects:
  1559 ;;		On entry : 0/0
  1560 ;;		On exit  : 0/0
  1561 ;;		Unchanged: 0/0
  1562 ;; Data sizes:     COMRAM   BANK0   BANK1   BANK2   BANK3   BANK4   BANK5   BANK6   BANK7   BANK8   BANK9  BANK10  BANK1
      +1  BANK12  BANK13  BANK14  BANK15
  1563 ;;      Params:         0       0       0       0       0       0       0       0       0       0       0       0       
      +0       0       0       0       0
  1564 ;;      Locals:         1       0       0       0       0       0       0       0       0       0       0       0       
      +0       0       0       0       0
  1565 ;;      Temps:          0       0       0       0       0       0       0       0       0       0       0       0       
      +0       0       0       0       0
  1566 ;;      Totals:         1       0       0       0       0       0       0       0       0       0       0       0       
      +0       0       0       0       0
  1567 ;;Total ram usage:        1 bytes
  1568 ;; Hardware stack levels used: 1
  1569 ;; This function calls:
  1570 ;;		Nothing
  1571 ;; This function is called by:
  1572 ;;		_InterruptManager
  1573 ;; This function uses a non-reentrant model
  1574 ;;
  1575                           
  1576                           	psect	text9
  1577   001214                     __ptext9:
  1578                           	callstack 0
  1579   001214                     _RB7_ISR:
  1580                           	callstack 27
  1581                           
  1582                           ;incstack = 0
  1583                           ;RB7_ISR@RB7_source stored from wreg
  1584   001214  6E54               	movwf	RB7_ISR@RB7_source^0,c
  1585   001216                     
  1586                           ;MCAL_Layer/interrupt/mcal_external_interrupt.c: 170:     (INTCONbits.RBIF = 0);
  1587   001216  90F2               	bcf	242,0,c	;volatile
  1588   001218                     
  1589                           ;MCAL_Layer/interrupt/mcal_external_interrupt.c: 175:     if (0 == RB7_source)
  1590   001218  5054               	movf	RB7_ISR@RB7_source^0,w,c
  1591   00121A  A4D8               	btfss	status,2,c
  1592   00121C  EF12  F009         	goto	i2u37_41
  1593   001220  EF14  F009         	goto	i2u37_40
  1594   001224                     i2u37_41:
  1595   001224  EF16  F009         	goto	i2l2158
  1596   001228                     i2u37_40:
  1597   001228  EF16  F009         	goto	i2l808
  1598   00122C                     i2l2158:
  1599   00122C                     i2l808:
  1600   00122C  0012               	return		;funcret
  1601   00122E                     __end_of_RB7_ISR:
  1602                           	callstack 0
  1603                           
  1604 ;; *************** function _RB6_ISR *****************
  1605 ;; Defined at:
  1606 ;;		line 150 in file "MCAL_Layer/interrupt/mcal_external_interrupt.c"
  1607 ;; Parameters:    Size  Location     Type
  1608 ;;  RB6_source      1    wreg     unsigned char 
  1609 ;; Auto vars:     Size  Location     Type
  1610 ;;  RB6_source      1    0[COMRAM] unsigned char 
  1611 ;; Return value:  Size  Location     Type
  1612 ;;                  1    wreg      void 
  1613 ;; Registers used:
  1614 ;;		wreg, status,2, status,0
  1615 ;; Tracked objects:
  1616 ;;		On entry : 0/0
  1617 ;;		On exit  : 0/0
  1618 ;;		Unchanged: 0/0
  1619 ;; Data sizes:     COMRAM   BANK0   BANK1   BANK2   BANK3   BANK4   BANK5   BANK6   BANK7   BANK8   BANK9  BANK10  BANK1
      +1  BANK12  BANK13  BANK14  BANK15
  1620 ;;      Params:         0       0       0       0       0       0       0       0       0       0       0       0       
      +0       0       0       0       0
  1621 ;;      Locals:         1       0       0       0       0       0       0       0       0       0       0       0       
      +0       0       0       0       0
  1622 ;;      Temps:          0       0       0       0       0       0       0       0       0       0       0       0       
      +0       0       0       0       0
  1623 ;;      Totals:         1       0       0       0       0       0       0       0       0       0       0       0       
      +0       0       0       0       0
  1624 ;;Total ram usage:        1 bytes
  1625 ;; Hardware stack levels used: 1
  1626 ;; This function calls:
  1627 ;;		Nothing
  1628 ;; This function is called by:
  1629 ;;		_InterruptManager
  1630 ;; This function uses a non-reentrant model
  1631 ;;
  1632                           
  1633                           	psect	text10
  1634   00122E                     __ptext10:
  1635                           	callstack 0
  1636   00122E                     _RB6_ISR:
  1637                           	callstack 27
  1638                           
  1639                           ;incstack = 0
  1640                           ;RB6_ISR@RB6_source stored from wreg
  1641   00122E  6E54               	movwf	RB6_ISR@RB6_source^0,c
  1642   001230                     
  1643                           ;MCAL_Layer/interrupt/mcal_external_interrupt.c: 152:     (INTCONbits.RBIF = 0);
  1644   001230  90F2               	bcf	242,0,c	;volatile
  1645   001232                     
  1646                           ;MCAL_Layer/interrupt/mcal_external_interrupt.c: 157:     if (0 == RB6_source)
  1647   001232  5054               	movf	RB6_ISR@RB6_source^0,w,c
  1648   001234  A4D8               	btfss	status,2,c
  1649   001236  EF1F  F009         	goto	i2u36_41
  1650   00123A  EF21  F009         	goto	i2u36_40
  1651   00123E                     i2u36_41:
  1652   00123E  EF23  F009         	goto	i2l2144
  1653   001242                     i2u36_40:
  1654   001242  EF23  F009         	goto	i2l798
  1655   001246                     i2l2144:
  1656   001246                     i2l798:
  1657   001246  0012               	return		;funcret
  1658   001248                     __end_of_RB6_ISR:
  1659                           	callstack 0
  1660                           
  1661 ;; *************** function _RB5_ISR *****************
  1662 ;; Defined at:
  1663 ;;		line 132 in file "MCAL_Layer/interrupt/mcal_external_interrupt.c"
  1664 ;; Parameters:    Size  Location     Type
  1665 ;;  RB5_source      1    wreg     unsigned char 
  1666 ;; Auto vars:     Size  Location     Type
  1667 ;;  RB5_source      1    0[COMRAM] unsigned char 
  1668 ;; Return value:  Size  Location     Type
  1669 ;;                  1    wreg      void 
  1670 ;; Registers used:
  1671 ;;		wreg, status,2, status,0
  1672 ;; Tracked objects:
  1673 ;;		On entry : 0/0
  1674 ;;		On exit  : 0/0
  1675 ;;		Unchanged: 0/0
  1676 ;; Data sizes:     COMRAM   BANK0   BANK1   BANK2   BANK3   BANK4   BANK5   BANK6   BANK7   BANK8   BANK9  BANK10  BANK1
      +1  BANK12  BANK13  BANK14  BANK15
  1677 ;;      Params:         0       0       0       0       0       0       0       0       0       0       0       0       
      +0       0       0       0       0
  1678 ;;      Locals:         1       0       0       0       0       0       0       0       0       0       0       0       
      +0       0       0       0       0
  1679 ;;      Temps:          0       0       0       0       0       0       0       0       0       0       0       0       
      +0       0       0       0       0
  1680 ;;      Totals:         1       0       0       0       0       0       0       0       0       0       0       0       
      +0       0       0       0       0
  1681 ;;Total ram usage:        1 bytes
  1682 ;; Hardware stack levels used: 1
  1683 ;; This function calls:
  1684 ;;		Nothing
  1685 ;; This function is called by:
  1686 ;;		_InterruptManager
  1687 ;; This function uses a non-reentrant model
  1688 ;;
  1689                           
  1690                           	psect	text11
  1691   001248                     __ptext11:
  1692                           	callstack 0
  1693   001248                     _RB5_ISR:
  1694                           	callstack 27
  1695                           
  1696                           ;incstack = 0
  1697                           ;RB5_ISR@RB5_source stored from wreg
  1698   001248  6E54               	movwf	RB5_ISR@RB5_source^0,c
  1699   00124A                     
  1700                           ;MCAL_Layer/interrupt/mcal_external_interrupt.c: 134:     (INTCONbits.RBIF = 0);
  1701   00124A  90F2               	bcf	242,0,c	;volatile
  1702   00124C                     
  1703                           ;MCAL_Layer/interrupt/mcal_external_interrupt.c: 138:     if (0 == RB5_source)
  1704   00124C  5054               	movf	RB5_ISR@RB5_source^0,w,c
  1705   00124E  A4D8               	btfss	status,2,c
  1706   001250  EF2C  F009         	goto	i2u35_41
  1707   001254  EF2E  F009         	goto	i2u35_40
  1708   001258                     i2u35_41:
  1709   001258  EF30  F009         	goto	i2l2130
  1710   00125C                     i2u35_40:
  1711   00125C  EF30  F009         	goto	i2l788
  1712   001260                     i2l2130:
  1713   001260                     i2l788:
  1714   001260  0012               	return		;funcret
  1715   001262                     __end_of_RB5_ISR:
  1716                           	callstack 0
  1717                           
  1718 ;; *************** function _RB4_ISR *****************
  1719 ;; Defined at:
  1720 ;;		line 114 in file "MCAL_Layer/interrupt/mcal_external_interrupt.c"
  1721 ;; Parameters:    Size  Location     Type
  1722 ;;  RB4_source      1    wreg     unsigned char 
  1723 ;; Auto vars:     Size  Location     Type
  1724 ;;  RB4_source      1    0[COMRAM] unsigned char 
  1725 ;; Return value:  Size  Location     Type
  1726 ;;                  1    wreg      void 
  1727 ;; Registers used:
  1728 ;;		wreg, status,2, status,0
  1729 ;; Tracked objects:
  1730 ;;		On entry : 0/0
  1731 ;;		On exit  : 0/0
  1732 ;;		Unchanged: 0/0
  1733 ;; Data sizes:     COMRAM   BANK0   BANK1   BANK2   BANK3   BANK4   BANK5   BANK6   BANK7   BANK8   BANK9  BANK10  BANK1
      +1  BANK12  BANK13  BANK14  BANK15
  1734 ;;      Params:         0       0       0       0       0       0       0       0       0       0       0       0       
      +0       0       0       0       0
  1735 ;;      Locals:         1       0       0       0       0       0       0       0       0       0       0       0       
      +0       0       0       0       0
  1736 ;;      Temps:          0       0       0       0       0       0       0       0       0       0       0       0       
      +0       0       0       0       0
  1737 ;;      Totals:         1       0       0       0       0       0       0       0       0       0       0       0       
      +0       0       0       0       0
  1738 ;;Total ram usage:        1 bytes
  1739 ;; Hardware stack levels used: 1
  1740 ;; This function calls:
  1741 ;;		Nothing
  1742 ;; This function is called by:
  1743 ;;		_InterruptManager
  1744 ;; This function uses a non-reentrant model
  1745 ;;
  1746                           
  1747                           	psect	text12
  1748   001262                     __ptext12:
  1749                           	callstack 0
  1750   001262                     _RB4_ISR:
  1751                           	callstack 27
  1752                           
  1753                           ;incstack = 0
  1754                           ;RB4_ISR@RB4_source stored from wreg
  1755   001262  6E54               	movwf	RB4_ISR@RB4_source^0,c
  1756   001264                     
  1757                           ;MCAL_Layer/interrupt/mcal_external_interrupt.c: 116:     (INTCONbits.RBIF = 0);
  1758   001264  90F2               	bcf	242,0,c	;volatile
  1759   001266                     
  1760                           ;MCAL_Layer/interrupt/mcal_external_interrupt.c: 120:     if (0 == RB4_source)
  1761   001266  5054               	movf	RB4_ISR@RB4_source^0,w,c
  1762   001268  A4D8               	btfss	status,2,c
  1763   00126A  EF39  F009         	goto	i2u34_41
  1764   00126E  EF3B  F009         	goto	i2u34_40
  1765   001272                     i2u34_41:
  1766   001272  EF3D  F009         	goto	i2l2116
  1767   001276                     i2u34_40:
  1768   001276  EF3D  F009         	goto	i2l778
  1769   00127A                     i2l2116:
  1770   00127A                     i2l778:
  1771   00127A  0012               	return		;funcret
  1772   00127C                     __end_of_RB4_ISR:
  1773                           	callstack 0
  1774                           
  1775 ;; *************** function _INT2_ISR *****************
  1776 ;; Defined at:
  1777 ;;		line 101 in file "MCAL_Layer/interrupt/mcal_external_interrupt.c"
  1778 ;; Parameters:    Size  Location     Type
  1779 ;;		None
  1780 ;; Auto vars:     Size  Location     Type
  1781 ;;		None
  1782 ;; Return value:  Size  Location     Type
  1783 ;;                  1    wreg      void 
  1784 ;; Registers used:
  1785 ;;		None
  1786 ;; Tracked objects:
  1787 ;;		On entry : 0/0
  1788 ;;		On exit  : 0/0
  1789 ;;		Unchanged: 0/0
  1790 ;; Data sizes:     COMRAM   BANK0   BANK1   BANK2   BANK3   BANK4   BANK5   BANK6   BANK7   BANK8   BANK9  BANK10  BANK1
      +1  BANK12  BANK13  BANK14  BANK15
  1791 ;;      Params:         0       0       0       0       0       0       0       0       0       0       0       0       
      +0       0       0       0       0
  1792 ;;      Locals:         0       0       0       0       0       0       0       0       0       0       0       0       
      +0       0       0       0       0
  1793 ;;      Temps:          0       0       0       0       0       0       0       0       0       0       0       0       
      +0       0       0       0       0
  1794 ;;      Totals:         0       0       0       0       0       0       0       0       0       0       0       0       
      +0       0       0       0       0
  1795 ;;Total ram usage:        0 bytes
  1796 ;; Hardware stack levels used: 1
  1797 ;; This function calls:
  1798 ;;		Nothing
  1799 ;; This function is called by:
  1800 ;;		_InterruptManager
  1801 ;; This function uses a non-reentrant model
  1802 ;;
  1803                           
  1804                           	psect	text13
  1805   0012CA                     __ptext13:
  1806                           	callstack 0
  1807   0012CA                     _INT2_ISR:
  1808                           	callstack 27
  1809   0012CA                     
  1810                           ;MCAL_Layer/interrupt/mcal_external_interrupt.c: 103:     (INTCON3bits.INT2IF = 0);
  1811   0012CA  92F0               	bcf	240,1,c	;volatile
  1812   0012CC  0012               	return		;funcret
  1813   0012CE                     __end_of_INT2_ISR:
  1814                           	callstack 0
  1815                           
  1816 ;; *************** function _INT1_ISR *****************
  1817 ;; Defined at:
  1818 ;;		line 88 in file "MCAL_Layer/interrupt/mcal_external_interrupt.c"
  1819 ;; Parameters:    Size  Location     Type
  1820 ;;		None
  1821 ;; Auto vars:     Size  Location     Type
  1822 ;;		None
  1823 ;; Return value:  Size  Location     Type
  1824 ;;                  1    wreg      void 
  1825 ;; Registers used:
  1826 ;;		None
  1827 ;; Tracked objects:
  1828 ;;		On entry : 0/0
  1829 ;;		On exit  : 0/0
  1830 ;;		Unchanged: 0/0
  1831 ;; Data sizes:     COMRAM   BANK0   BANK1   BANK2   BANK3   BANK4   BANK5   BANK6   BANK7   BANK8   BANK9  BANK10  BANK1
      +1  BANK12  BANK13  BANK14  BANK15
  1832 ;;      Params:         0       0       0       0       0       0       0       0       0       0       0       0       
      +0       0       0       0       0
  1833 ;;      Locals:         0       0       0       0       0       0       0       0       0       0       0       0       
      +0       0       0       0       0
  1834 ;;      Temps:          0       0       0       0       0       0       0       0       0       0       0       0       
      +0       0       0       0       0
  1835 ;;      Totals:         0       0       0       0       0       0       0       0       0       0       0       0       
      +0       0       0       0       0
  1836 ;;Total ram usage:        0 bytes
  1837 ;; Hardware stack levels used: 1
  1838 ;; This function calls:
  1839 ;;		Nothing
  1840 ;; This function is called by:
  1841 ;;		_InterruptManager
  1842 ;; This function uses a non-reentrant model
  1843 ;;
  1844                           
  1845                           	psect	text14
  1846   0012CE                     __ptext14:
  1847                           	callstack 0
  1848   0012CE                     _INT1_ISR:
  1849                           	callstack 27
  1850   0012CE                     
  1851                           ;MCAL_Layer/interrupt/mcal_external_interrupt.c: 90:     (INTCON3bits.INT1IF = 0);
  1852   0012CE  90F0               	bcf	240,0,c	;volatile
  1853   0012D0  0012               	return		;funcret
  1854   0012D2                     __end_of_INT1_ISR:
  1855                           	callstack 0
  1856                           
  1857 ;; *************** function _INT0_ISR *****************
  1858 ;; Defined at:
  1859 ;;		line 73 in file "MCAL_Layer/interrupt/mcal_external_interrupt.c"
  1860 ;; Parameters:    Size  Location     Type
  1861 ;;		None
  1862 ;; Auto vars:     Size  Location     Type
  1863 ;;		None
  1864 ;; Return value:  Size  Location     Type
  1865 ;;                  1    wreg      void 
  1866 ;; Registers used:
  1867 ;;		None
  1868 ;; Tracked objects:
  1869 ;;		On entry : 0/0
  1870 ;;		On exit  : 0/0
  1871 ;;		Unchanged: 0/0
  1872 ;; Data sizes:     COMRAM   BANK0   BANK1   BANK2   BANK3   BANK4   BANK5   BANK6   BANK7   BANK8   BANK9  BANK10  BANK1
      +1  BANK12  BANK13  BANK14  BANK15
  1873 ;;      Params:         0       0       0       0       0       0       0       0       0       0       0       0       
      +0       0       0       0       0
  1874 ;;      Locals:         0       0       0       0       0       0       0       0       0       0       0       0       
      +0       0       0       0       0
  1875 ;;      Temps:          0       0       0       0       0       0       0       0       0       0       0       0       
      +0       0       0       0       0
  1876 ;;      Totals:         0       0       0       0       0       0       0       0       0       0       0       0       
      +0       0       0       0       0
  1877 ;;Total ram usage:        0 bytes
  1878 ;; Hardware stack levels used: 1
  1879 ;; This function calls:
  1880 ;;		Nothing
  1881 ;; This function is called by:
  1882 ;;		_InterruptManager
  1883 ;; This function uses a non-reentrant model
  1884 ;;
  1885                           
  1886                           	psect	text15
  1887   0012D2                     __ptext15:
  1888                           	callstack 0
  1889   0012D2                     _INT0_ISR:
  1890                           	callstack 27
  1891   0012D2                     
  1892                           ;MCAL_Layer/interrupt/mcal_external_interrupt.c: 75:     (INTCONbits.INT0IF = 0);
  1893   0012D2  92F2               	bcf	242,1,c	;volatile
  1894   0012D4  0012               	return		;funcret
  1895   0012D6                     __end_of_INT0_ISR:
  1896                           	callstack 0
  1897                           
  1898 ;; *************** function _ADC_ISR *****************
  1899 ;; Defined at:
  1900 ;;		line 326 in file "MCAL_Layer/ADC/hal_adc.c"
  1901 ;; Parameters:    Size  Location     Type
  1902 ;;		None
  1903 ;; Auto vars:     Size  Location     Type
  1904 ;;		None
  1905 ;; Return value:  Size  Location     Type
  1906 ;;                  1    wreg      void 
  1907 ;; Registers used:
  1908 ;;		None
  1909 ;; Tracked objects:
  1910 ;;		On entry : 0/0
  1911 ;;		On exit  : 0/0
  1912 ;;		Unchanged: 0/0
  1913 ;; Data sizes:     COMRAM   BANK0   BANK1   BANK2   BANK3   BANK4   BANK5   BANK6   BANK7   BANK8   BANK9  BANK10  BANK1
      +1  BANK12  BANK13  BANK14  BANK15
  1914 ;;      Params:         0       0       0       0       0       0       0       0       0       0       0       0       
      +0       0       0       0       0
  1915 ;;      Locals:         0       0       0       0       0       0       0       0       0       0       0       0       
      +0       0       0       0       0
  1916 ;;      Temps:          0       0       0       0       0       0       0       0       0       0       0       0       
      +0       0       0       0       0
  1917 ;;      Totals:         0       0       0       0       0       0       0       0       0       0       0       0       
      +0       0       0       0       0
  1918 ;;Total ram usage:        0 bytes
  1919 ;; Hardware stack levels used: 1
  1920 ;; This function calls:
  1921 ;;		Nothing
  1922 ;; This function is called by:
  1923 ;;		_InterruptManager
  1924 ;; This function uses a non-reentrant model
  1925 ;;
  1926                           
  1927                           	psect	text16
  1928   0012D6                     __ptext16:
  1929                           	callstack 0
  1930   0012D6                     _ADC_ISR:
  1931                           	callstack 27
  1932   0012D6                     
  1933                           ;MCAL_Layer/ADC/hal_adc.c: 327:     (PIR1bits.ADIF = 0);
  1934   0012D6  9C9E               	bcf	158,6,c	;volatile
  1935   0012D8  0012               	return		;funcret
  1936   0012DA                     __end_of_ADC_ISR:
  1937                           	callstack 0
  1938                           
  1939                           	psect	rparam
  1940   000000                     
  1941                           	psect	temp
  1942   00005C                     btemp:
  1943                           	callstack 0
  1944   00005C                     	ds	1
  1945   000000                     int$flags	set	btemp
  1946   000000                     wtemp8	set	btemp+1
  1947   000000                     ttemp5	set	btemp+1
  1948   000000                     ttemp6	set	btemp+4
  1949   000000                     ttemp7	set	btemp+8
  1950                           
  1951                           	psect	config
  1952                           
  1953                           ; Padding undefined space
  1954   300000                     	org	3145728
  1955   300000  FF                 	db	255
  1956                           
  1957                           ;Config register CONFIG1H @ 0x300001
  1958                           ;	Oscillator Selection bits
  1959                           ;	FOSC = RCIO6, External RC oscillator, port function on RA6
  1960                           ;	Fail-Safe Clock Monitor Enable bit
  1961                           ;	FCMEN = OFF, Fail-Safe Clock Monitor disabled
  1962                           ;	Internal/External Oscillator Switchover bit
  1963                           ;	IESO = OFF, Oscillator Switchover mode disabled
  1964   300001                     	org	3145729
  1965   300001  07                 	db	7
  1966                           
  1967                           ;Config register CONFIG2L @ 0x300002
  1968                           ;	Power-up Timer Enable bit
  1969                           ;	PWRTEN = OFF, PWRT disabled
  1970                           ;	Brown-out Reset Enable bits
  1971                           ;	BOREN = SBORDIS, Brown-out Reset enabled in hardware only (SBOREN is disabled)
  1972                           ;	Brown Out Reset Voltage bits
  1973                           ;	BORV = 18, VBOR set to 1.8 V nominal
  1974   300002                     	org	3145730
  1975   300002  1F                 	db	31
  1976                           
  1977                           ;Config register CONFIG2H @ 0x300003
  1978                           ;	Watchdog Timer Enable bit
  1979                           ;	WDTEN = ON, WDT is always enabled. SWDTEN bit has no effect
  1980                           ;	Watchdog Timer Postscale Select bits
  1981                           ;	WDTPS = 32768, 1:32768
  1982   300003                     	org	3145731
  1983   300003  1F                 	db	31
  1984                           
  1985                           ; Padding undefined space
  1986   300004                     	org	3145732
  1987   300004  FF                 	db	255
  1988                           
  1989                           ;Config register CONFIG3H @ 0x300005
  1990                           ;	CCP2 MUX bit
  1991                           ;	CCP2MX = PORTC, CCP2 input/output is multiplexed with RC1
  1992                           ;	PORTB A/D Enable bit
  1993                           ;	PBADEN = OFF, PORTB<4:0> pins are configured as digital I/O on Reset
  1994                           ;	Low-Power Timer1 Oscillator Enable bit
  1995                           ;	LPT1OSC = OFF, Timer1 configured for higher power operation
  1996                           ;	HFINTOSC Fast Start-up
  1997                           ;	HFOFST = ON, HFINTOSC starts clocking the CPU without waiting for the oscillator to st
      +                          ablize.
  1998                           ;	MCLR Pin Enable bit
  1999                           ;	MCLRE = ON, MCLR pin enabled; RE3 input pin disabled
  2000   300005                     	org	3145733
  2001   300005  89                 	db	137
  2002                           
  2003                           ;Config register CONFIG4L @ 0x300006
  2004                           ;	Stack Full/Underflow Reset Enable bit
  2005                           ;	STVREN = ON, Stack full/underflow will cause Reset
  2006                           ;	Single-Supply ICSP Enable bit
  2007                           ;	LVP = ON, Single-Supply ICSP enabled
  2008                           ;	Extended Instruction Set Enable bit
  2009                           ;	XINST = OFF, Instruction set extension and Indexed Addressing mode disabled (Legacy mo
      +                          de)
  2010                           ;	Background Debugger Enable bit
  2011                           ;	DEBUG = 0x1, unprogrammed default
  2012   300006                     	org	3145734
  2013   300006  85                 	db	133
  2014                           
  2015                           ; Padding undefined space
  2016   300007                     	org	3145735
  2017   300007  FF                 	db	255
  2018                           
  2019                           ;Config register CONFIG5L @ 0x300008
  2020                           ;	Code Protection Block 0
  2021                           ;	CP0 = OFF, Block 0 (000800-003FFFh) not code-protected
  2022                           ;	Code Protection Block 1
  2023                           ;	CP1 = OFF, Block 1 (004000-007FFFh) not code-protected
  2024                           ;	Code Protection Block 2
  2025                           ;	CP2 = OFF, Block 2 (008000-00BFFFh) not code-protected
  2026                           ;	Code Protection Block 3
  2027                           ;	CP3 = OFF, Block 3 (00C000-00FFFFh) not code-protected
  2028   300008                     	org	3145736
  2029   300008  0F                 	db	15
  2030                           
  2031                           ;Config register CONFIG5H @ 0x300009
  2032                           ;	Boot Block Code Protection bit
  2033                           ;	CPB = OFF, Boot block (000000-0007FFh) not code-protected
  2034                           ;	Data EEPROM Code Protection bit
  2035                           ;	CPD = OFF, Data EEPROM not code-protected
  2036   300009                     	org	3145737
  2037   300009  C0                 	db	192
  2038                           
  2039                           ;Config register CONFIG6L @ 0x30000A
  2040                           ;	Write Protection Block 0
  2041                           ;	WRT0 = OFF, Block 0 (000800-003FFFh) not write-protected
  2042                           ;	Write Protection Block 1
  2043                           ;	WRT1 = OFF, Block 1 (004000-007FFFh) not write-protected
  2044                           ;	Write Protection Block 2
  2045                           ;	WRT2 = OFF, Block 2 (008000-00BFFFh) not write-protected
  2046                           ;	Write Protection Block 3
  2047                           ;	WRT3 = OFF, Block 3 (00C000h-00FFFFh) not write-protected
  2048   30000A                     	org	3145738
  2049   30000A  0F                 	db	15
  2050                           
  2051                           ;Config register CONFIG6H @ 0x30000B
  2052                           ;	Configuration Register Write Protection bit
  2053                           ;	WRTC = OFF, Configuration registers (300000-3000FFh) not write-protected
  2054                           ;	Boot Block Write Protection bit
  2055                           ;	WRTB = OFF, Boot Block (000000-0007FFh) not write-protected
  2056                           ;	Data EEPROM Write Protection bit
  2057                           ;	WRTD = OFF, Data EEPROM not write-protected
  2058   30000B                     	org	3145739
  2059   30000B  E0                 	db	224
  2060                           
  2061                           ;Config register CONFIG7L @ 0x30000C
  2062                           ;	Table Read Protection Block 0
  2063                           ;	EBTR0 = OFF, Block 0 (000800-003FFFh) not protected from table reads executed in other
      +                           blocks
  2064                           ;	Table Read Protection Block 1
  2065                           ;	EBTR1 = OFF, Block 1 (004000-007FFFh) not protected from table reads executed in other
      +                           blocks
  2066                           ;	Table Read Protection Block 2
  2067                           ;	EBTR2 = OFF, Block 2 (008000-00BFFFh) not protected from table reads executed in other
      +                           blocks
  2068                           ;	Table Read Protection Block 3
  2069                           ;	EBTR3 = OFF, Block 3 (00C000-00FFFFh) not protected from table reads executed in other
      +                           blocks
  2070   30000C                     	org	3145740
  2071   30000C  0F                 	db	15
  2072                           
  2073                           ;Config register CONFIG7H @ 0x30000D
  2074                           ;	Boot Block Table Read Protection bit
  2075                           ;	EBTRB = OFF, Boot Block (000000-0007FFh) not protected from table reads executed in ot
      +                          her blocks
  2076   30000D                     	org	3145741
  2077   30000D  40                 	db	64
  2078                           tosu	equ	0xFFF
  2079                           tosh	equ	0xFFE
  2080                           tosl	equ	0xFFD
  2081                           stkptr	equ	0xFFC
  2082                           pclatu	equ	0xFFB
  2083                           pclath	equ	0xFFA
  2084                           pcl	equ	0xFF9
  2085                           tblptru	equ	0xFF8
  2086                           tblptrh	equ	0xFF7
  2087                           tblptrl	equ	0xFF6
  2088                           tablat	equ	0xFF5
  2089                           prodh	equ	0xFF4
  2090                           prodl	equ	0xFF3
  2091                           indf0	equ	0xFEF
  2092                           postinc0	equ	0xFEE
  2093                           postdec0	equ	0xFED
  2094                           preinc0	equ	0xFEC
  2095                           plusw0	equ	0xFEB
  2096                           fsr0h	equ	0xFEA
  2097                           fsr0l	equ	0xFE9
  2098                           wreg	equ	0xFE8
  2099                           indf1	equ	0xFE7
  2100                           postinc1	equ	0xFE6
  2101                           postdec1	equ	0xFE5
  2102                           preinc1	equ	0xFE4
  2103                           plusw1	equ	0xFE3
  2104                           fsr1h	equ	0xFE2
  2105                           fsr1l	equ	0xFE1
  2106                           bsr	equ	0xFE0
  2107                           indf2	equ	0xFDF
  2108                           postinc2	equ	0xFDE
  2109                           postdec2	equ	0xFDD
  2110                           preinc2	equ	0xFDC
  2111                           plusw2	equ	0xFDB
  2112                           fsr2h	equ	0xFDA
  2113                           fsr2l	equ	0xFD9
  2114                           status	equ	0xFD8

Data Sizes:
    Strings     3
    Constant    16
    Data        34
    BSS         76
    Persistent  0
    Stack       0

Auto Spaces:
    Space          Size  Autos    Used
    COMRAM           94      8      91
    BANK0           160      0      27
    BANK1           256      0       0
    BANK2           256      0       0
    BANK3           256      0       0
    BANK4           256      0       0
    BANK5           256      0       0
    BANK6           256      0       0
    BANK7           256      0       0
    BANK8           256      0       0
    BANK9           256      0       0
    BANK10          256      0       0
    BANK11          256      0       0
    BANK12          256      0       0
    BANK13          256      0       0
    BANK14          256      0       0
    BANK15           96      0       0

Pointer List with Targets:

    ADC_GetConversionResult@_adc$ADC_InterruptHandler	PTR FTN()void  size(2) Largest target is 0

    ADC_Init@_adc$ADC_InterruptHandler	PTR FTN()void  size(2) Largest target is 0

    ADC_InterruptHandler	PTR FTN()void  size(2) Largest target is 1
		 -> NULL(), 

    configure_voltage_reference@_adc$ADC_InterruptHandler	PTR FTN()void  size(2) Largest target is 0

    f$.$buffer	PTR unsigned char  size(2) Largest target is 0

    f$.$source	PTR const unsigned char  size(2) Largest target is 0

    INT0_InterruptHandler	PTR FTN()void  size(2) Largest target is 1
		 -> NULL(), 

    INT1_InterruptHandler	PTR FTN()void  size(2) Largest target is 1
		 -> NULL(), 

    INT2_InterruptHandler	PTR FTN()void  size(2) Largest target is 1
		 -> NULL(), 

    Interrupt_INTx_Clear_Flag@int_obj$EXT_InterruptHandler	PTR FTN()void  size(2) Largest target is 0

    Interrupt_INTx_Disable@int_obj$EXT_InterruptHandler	PTR FTN()void  size(2) Largest target is 0

    Interrupt_INTx_Edge_Init@int_obj$EXT_InterruptHandler	PTR FTN()void  size(2) Largest target is 0

    Interrupt_INTx_Enable@int_obj$EXT_InterruptHandler	PTR FTN()void  size(2) Largest target is 0

    Interrupt_INTx_Pin_Init@int_obj$EXT_InterruptHandler	PTR FTN()void  size(2) Largest target is 0

    Interrupt_INTx_SetInterruptHandler@int_obj$EXT_InterruptHandler	PTR FTN()void  size(2) Largest target is 0

    Interrupt_RBx_Init@int_obj$EXT_InterruptHandler_HIGH	PTR FTN()void  size(2) Largest target is 0

    Interrupt_RBx_Init@int_obj$EXT_InterruptHandler_LOW	PTR FTN()void  size(2) Largest target is 0

    lat_registers	PTR volatile unsigned char [5] size(2) Largest target is 1
		 -> LATA(BITBIGSFRllllll[1]), LATB(BITBIGSFRllllh[1]), LATC(BITBIGSFRllllh[1]), LATD(BITBIGSFRllllh[1]), 
		 -> LATE(BITBIGSFRllllh[1]), 

    port_registers	PTR volatile unsigned char [5] size(2) Largest target is 1
		 -> PORTA(BITBIGSFRllllll[1]), PORTB(BITBIGSFRlllllh[1]), PORTC(BITBIGSFRlllllh[1]), PORTD(BITBIGSFRlllllh[1]), 
		 -> PORTE(BITBIGSFRlllllh[1]), 

    RB4_InterruptHandler_HIGH	PTR FTN()void  size(2) Largest target is 1
		 -> NULL(), 

    RB4_InterruptHandler_LOW	PTR FTN()void  size(2) Largest target is 1
		 -> NULL(), 

    RB5_InterruptHandler_HIGH	PTR FTN()void  size(2) Largest target is 1
		 -> NULL(), 

    RB5_InterruptHandler_LOW	PTR FTN()void  size(2) Largest target is 1
		 -> NULL(), 

    RB6_InterruptHandler_HIGH	PTR FTN()void  size(2) Largest target is 1
		 -> NULL(), 

    RB6_InterruptHandler_LOW	PTR FTN()void  size(2) Largest target is 1
		 -> NULL(), 

    RB7_InterruptHandler_HIGH	PTR FTN()void  size(2) Largest target is 1
		 -> NULL(), 

    RB7_InterruptHandler_LOW	PTR FTN()void  size(2) Largest target is 1
		 -> NULL(), 

    S1626$EXT_InterruptHandler	PTR FTN()void  size(2) Largest target is 0

    S1724$EXT_InterruptHandler_HIGH	PTR FTN()void  size(2) Largest target is 0

    S1724$EXT_InterruptHandler_LOW	PTR FTN()void  size(2) Largest target is 0

    S1943$TMR0_InterruptHandler	PTR FTN()void  size(2) Largest target is 0

    S2104$TMR1_InterruptHandler	PTR FTN()void  size(2) Largest target is 0

    S2293$TMR2_InterruptHandler	PTR FTN()void  size(2) Largest target is 0

    S2422$TMR3_InterruptHandler	PTR FTN()void  size(2) Largest target is 0
		 -> NULL(NULL[0]), 

    S3103$buffer	PTR unsigned char  size(2) Largest target is 0

    S3103$source	PTR const unsigned char  size(2) Largest target is 0

    S665$ADC_InterruptHandler	PTR FTN()void  size(2) Largest target is 0

    select_result_format@_adc$ADC_InterruptHandler	PTR FTN()void  size(2) Largest target is 0

    sp__memset	PTR void  size(2) Largest target is 0

    Timer0_Init@_timer$TMR0_InterruptHandler	PTR FTN()void  size(2) Largest target is 0

    Timer0_Mode_Select@_timer$TMR0_InterruptHandler	PTR FTN()void  size(2) Largest target is 0

    timer0_prescaler_config@_timer$TMR0_InterruptHandler	PTR FTN()void  size(2) Largest target is 0

    Timer0_Register_Size_Config@_timer$TMR0_InterruptHandler	PTR FTN()void  size(2) Largest target is 0

    Timer1_Init@_timer$TMR1_InterruptHandler	PTR FTN()void  size(2) Largest target is 0

    Timer1_Mode_Select@_timer$TMR1_InterruptHandler	PTR FTN()void  size(2) Largest target is 0

    Timer2_Init@_timer$TMR2_InterruptHandler	PTR FTN()void  size(2) Largest target is 0

    Timer3_Init@_timer	PTR const struct . size(1) Largest target is 6
		 -> timer3_obj(COMRAM[6]), 

    Timer3_Init@_timer$TMR3_InterruptHandler	PTR FTN()void  size(2) Largest target is 0
		 -> NULL(NULL[0]), 

    Timer3_Mode_Select@_timer	PTR const struct . size(1) Largest target is 6
		 -> timer3_obj(COMRAM[6]), 

    Timer3_Mode_Select@_timer$TMR3_InterruptHandler	PTR FTN()void  size(2) Largest target is 0
		 -> NULL(NULL[0]), 

    timer3_obj$TMR3_InterruptHandler	PTR FTN()void  size(2) Largest target is 0
		 -> NULL(NULL[0]), 

    Timer3_Read_Value@_timer	PTR const struct . size(1) Largest target is 6
		 -> timer3_obj(COMRAM[6]), 

    Timer3_Read_Value@value	PTR unsigned short  size(1) Largest target is 2
		 -> counter_val(COMRAM[2]), 

    TMR0_InterruptHandler	PTR FTN()void  size(2) Largest target is 1
		 -> NULL(), 

    TMR1_InterruptHandler	PTR FTN()void  size(2) Largest target is 1
		 -> NULL(), 

    TMR2_InterruptHandler	PTR FTN()void  size(2) Largest target is 1
		 -> NULL(), 

    TMR3_InterruptHandler	PTR FTN()void  size(2) Largest target is 1
		 -> NULL(), NULL(NULL[0]), 

    tris_registers	PTR volatile unsigned char [5] size(2) Largest target is 1
		 -> TRISA(BITBIGSFRllllll[1]), TRISB(ABS[1]), TRISC(ABS[1]), TRISD(ABS[1]), 
		 -> TRISE(ABS[1]), 

    vfprintf$0	PTR struct _IO_FILE size(1) Largest target is 12
		 -> sprintf@f(COMRAM[12]), 

    vfprintf$1	PTR const unsigned char  size(1) Largest target is 3
		 -> STR_1(CODE[3]), STR_2(CODE[3]), STR_3(CODE[3]), 

    vfprintf$2	PTR PTR void  size(1) Largest target is 1
		 -> sprintf@ap(COMRAM[1]), 


Critical Paths under _main in COMRAM

    _main->_Timer3_Read_Value
    _Timer3_Init->_Timer3_Mode_Select

Critical Paths under _InterruptManager in COMRAM

    _InterruptManager->_RB4_ISR
    _InterruptManager->_RB5_ISR
    _InterruptManager->_RB6_ISR
    _InterruptManager->_RB7_ISR

Critical Paths under _main in BANK0

    None.

Critical Paths under _InterruptManager in BANK0

    None.

Critical Paths under _main in BANK1

    None.

Critical Paths under _InterruptManager in BANK1

    None.

Critical Paths under _main in BANK2

    None.

Critical Paths under _InterruptManager in BANK2

    None.

Critical Paths under _main in BANK3

    None.

Critical Paths under _InterruptManager in BANK3

    None.

Critical Paths under _main in BANK4

    None.

Critical Paths under _InterruptManager in BANK4

    None.

Critical Paths under _main in BANK5

    None.

Critical Paths under _InterruptManager in BANK5

    None.

Critical Paths under _main in BANK6

    None.

Critical Paths under _InterruptManager in BANK6

    None.

Critical Paths under _main in BANK7

    None.

Critical Paths under _InterruptManager in BANK7

    None.

Critical Paths under _main in BANK8

    None.

Critical Paths under _InterruptManager in BANK8

    None.

Critical Paths under _main in BANK9

    None.

Critical Paths under _InterruptManager in BANK9

    None.

Critical Paths under _main in BANK10

    None.

Critical Paths under _InterruptManager in BANK10

    None.

Critical Paths under _main in BANK11

    None.

Critical Paths under _InterruptManager in BANK11

    None.

Critical Paths under _main in BANK12

    None.

Critical Paths under _InterruptManager in BANK12

    None.

Critical Paths under _main in BANK13

    None.

Critical Paths under _InterruptManager in BANK13

    None.

Critical Paths under _main in BANK14

    None.

Critical Paths under _InterruptManager in BANK14

    None.

Critical Paths under _main in BANK15

    None.

Critical Paths under _InterruptManager in BANK15

    None.

Call Graph Tables:

 ---------------------------------------------------------------------------------
 (Depth) Function   	        Calls       Base Space   Used Autos Params    Refs
 ---------------------------------------------------------------------------------
 (0) _main                                                 0     0      0     692
                        _Timer3_Init
                  _Timer3_Read_Value
 ---------------------------------------------------------------------------------
 (1) _Timer3_Read_Value                                    7     5      2     290
                                              1 COMRAM     7     5      2
 ---------------------------------------------------------------------------------
 (1) _Timer3_Init                                          4     3      1     402
                                              2 COMRAM     3     2      1
                 _Timer3_Mode_Select
 ---------------------------------------------------------------------------------
 (2) _Timer3_Mode_Select                                   1     0      1     164
                                              1 COMRAM     1     0      1
 ---------------------------------------------------------------------------------
 Estimated maximum stack depth 2
 ---------------------------------------------------------------------------------
 (Depth) Function   	        Calls       Base Space   Used Autos Params    Refs
 ---------------------------------------------------------------------------------
 (3) _InterruptManager                                     0     0      0     120
                            _ADC_ISR
                           _INT0_ISR
                           _INT1_ISR
                           _INT2_ISR
                            _RB4_ISR
                            _RB5_ISR
                            _RB6_ISR
                            _RB7_ISR
                           _TMR0_ISR
                           _TMR1_ISR
                           _TMR2_ISR
                           _TMR3_ISR
 ---------------------------------------------------------------------------------
 (4) _TMR3_ISR                                             0     0      0       0
 ---------------------------------------------------------------------------------
 (4) _TMR2_ISR                                             0     0      0       0
 ---------------------------------------------------------------------------------
 (4) _TMR1_ISR                                             0     0      0       0
 ---------------------------------------------------------------------------------
 (4) _TMR0_ISR                                             0     0      0       0
 ---------------------------------------------------------------------------------
 (4) _RB7_ISR                                              1     1      0      30
                                              0 COMRAM     1     1      0
 ---------------------------------------------------------------------------------
 (4) _RB6_ISR                                              1     1      0      30
                                              0 COMRAM     1     1      0
 ---------------------------------------------------------------------------------
 (4) _RB5_ISR                                              1     1      0      30
                                              0 COMRAM     1     1      0
 ---------------------------------------------------------------------------------
 (4) _RB4_ISR                                              1     1      0      30
                                              0 COMRAM     1     1      0
 ---------------------------------------------------------------------------------
 (4) _INT2_ISR                                             0     0      0       0
 ---------------------------------------------------------------------------------
 (4) _INT1_ISR                                             0     0      0       0
 ---------------------------------------------------------------------------------
 (4) _INT0_ISR                                             0     0      0       0
 ---------------------------------------------------------------------------------
 (4) _ADC_ISR                                              0     0      0       0
 ---------------------------------------------------------------------------------
 Estimated maximum stack depth 4
 ---------------------------------------------------------------------------------

 Call Graph Graphs:

 _main (ROOT)
   _Timer3_Init
     _Timer3_Mode_Select
   _Timer3_Read_Value

 _InterruptManager (ROOT)
   _ADC_ISR
   _INT0_ISR
   _INT1_ISR
   _INT2_ISR
   _RB4_ISR
   _RB5_ISR
   _RB6_ISR
   _RB7_ISR
   _TMR0_ISR
   _TMR1_ISR
   _TMR2_ISR
   _TMR3_ISR

 Address spaces:
Name               Size   Autos  Total    Cost      Usage
BIGRAM             F5F      0       0      50        0.0%
EEDATA             400      0       0       0        0.0%
BITBANK14          100      0       0      32        0.0%
BANK14             100      0       0      33        0.0%
BITBANK13          100      0       0      30        0.0%
BANK13             100      0       0      31        0.0%
BITBANK12          100      0       0      28        0.0%
BANK12             100      0       0      29        0.0%
BITBANK11          100      0       0      26        0.0%
BANK11             100      0       0      27        0.0%
BITBANK10          100      0       0      24        0.0%
BANK10             100      0       0      25        0.0%
BITBANK9           100      0       0      22        0.0%
BANK9              100      0       0      23        0.0%
BITBANK8           100      0       0      20        0.0%
BANK8              100      0       0      21        0.0%
BITBANK7           100      0       0      18        0.0%
BANK7              100      0       0      19        0.0%
BITBANK6           100      0       0      16        0.0%
BANK6              100      0       0      17        0.0%
BITBANK5           100      0       0      14        0.0%
BANK5              100      0       0      15        0.0%
BITBANK4           100      0       0      12        0.0%
BANK4              100      0       0      13        0.0%
BITBANK3           100      0       0      10        0.0%
BANK3              100      0       0      11        0.0%
BITBANK2           100      0       0       8        0.0%
BANK2              100      0       0       9        0.0%
BITBANK1           100      0       0       6        0.0%
BANK1              100      0       0       7        0.0%
BITBANK0            A0      0       0       4        0.0%
BANK0               A0      0      1B       5       16.9%
BITBANK15           60      0       0      34        0.0%
BANK15              60      0       0      35        0.0%
BITCOMRAM           5E      0       0       0        0.0%
COMRAM              5E      8      5B       1       96.8%
BITBIGSFRllllll     20      0       0      48        0.0%
BITBIGSFRhlhlhh     18      0       0      37        0.0%
BITBIGSFRhh          D      0       0      36        0.0%
BITBIGSFRllhhhh      C      0       0      41        0.0%
BITBIGSFRllhhl       6      0       0      42        0.0%
BITBIGSFRlllhh       6      0       0      45        0.0%
BITBIGSFRhlhllh      5      0       0      38        0.0%
BITBIGSFRhlhlll      5      0       0      40        0.0%
BITBIGSFRllhllh      4      0       0      43        0.0%
BITBIGSFRlllllh      4      0       0      47        0.0%
BITBIGSFRllllh       4      0       0      46        0.0%
BITBIGSFRhlhlll      1      0       0      39        0.0%
BITBIGSFRllhlll      1      0       0      44        0.0%
BIGSFR               0      0       0     200        0.0%
BITSFR               0      0       0     200        0.0%
SFR                  0      0       0     200        0.0%
STACK                0      0       0       2        0.0%
NULL                 0      0       0       0        0.0%
ABS                  0      0      76      49        0.0%
DATA                 0      0      76       3        0.0%
CODE                 0      0       0       0        0.0%


Microchip Technology PIC18 Macro Assembler V2.46 build 20240104201356 
Symbol Table                                                                                   Tue Sep 17 20:11:40 2024

          ??_InterruptManager 0055            _Timer3_Mode_Select 10A6     _RB5_InterruptHandler_HIGH 001D  
             __end_of_ADC_ISR 12DA                           _ret 002C           led_initialize@F3310 0033  
                         wreg 0FE8         relay_initialize@F3304 002F           ?_Timer3_Mode_Select 0055  
             __end_of_RB4_ISR 127C               __end_of_RB5_ISR 1262               __end_of_RB6_ISR 1248  
             __end_of_RB7_ISR 122E                          l1121 10A4                          l1150 111A  
                        l1134 11AE                          l1151 111A                          l1119 102A  
                        l1136 11DA                          l3710 10C4                          l3720 1114  
                        l3712 10DC                          l3714 10DE                          l3706 10A6  
                        l3730 1050                          l3722 1016                          l3716 10F6  
                        l3708 10BE                          l3740 1090                          l3732 106C  
                        l3724 1026                          l3718 10FC                          l3742 109E  
                        l3734 107A                          l3726 102C                          l3750 117E  
                        l3744 10A0                          l3736 108C                          l3728 1048  
                        l3752 1196                          l3746 10A2                          l3738 108E  
                        l3754 11A6                          l3756 11B6                          l3940 11EE  
                        l3758 11D8                          l3942 11F2                          l3934 11DC  
                        l3944 11F4                          l3936 11E4                          l3946 11F6  
                        l3938 11E6                          l3948 11FE                          STR_1 1011  
                        _LATA 0F89                          _LATB 0F8A                          _LATC 0F8B  
                        _LATD 0F8C                          _LATE 0F8D                          u2430 10BE  
                        u2431 10BA                          u2440 10DC                          u2441 10D8  
                        u2450 10F6                          u2451 10F2                          u2460 1114  
                        u2461 1110                          u2470 1026                          u2471 1022  
                        u2480 1196                          u2481 1192                          u2490 11A6  
                        u2491 11A2                          _TMR2 0FCC      _RB4_InterruptHandler_LOW 001F  
                        _main 11DC      _RB7_InterruptHandler_LOW 0013                          fsr2h 0FDA  
                        indf2 0FDF                          fsr1l 0FE1                          fsr2l 0FD9  
                        btemp 005C                          start 032E                  ___param_bank 0000  
     Timer3_Read_Value@_timer 0055          ??_Timer3_Mode_Select 0056              __end_of_INT0_ISR 12D6  
            __end_of_INT1_ISR 12D2              __end_of_INT2_ISR 12CE                         ?_main 0054  
                       _EEADR 0FA9                         i2l700 02AA                         i2l702 02CA  
                       i2l704 02EA                         i2l706 030A                         i2l709 032A  
                       i2l486 12D8                         i2l760 12D4                         i2l808 122C  
                       i2l680 002A                         i2l690 0136                         i2l682 004A  
                       i2l764 12D0                         i2l684 006A                         i2l693 01BE  
                       i2l686 00AE                         i2l768 12CC                         i2l696 0246  
                       i2l688 00F2                         i2l778 127A                         i2l698 028A  
                       i2l788 1260                         i2l798 1246                         i2l959 12B6  
         relay_turn_off@F3314 002D                         _TMR0H 0FD7                         _TMR1H 0FCF  
                       _TMR0L 0FD6                         _TMR1L 0FCE                         _TMR3H 0FB3  
                       _TMR3L 0FB2                         _PORTA 0F80                         _PORTB 0F81  
                       _PORTC 0F82                         _PORTD 0F83                         _PORTE 0F84  
                       _TRISA 0F92                         _TRISB 0F93                         _TRISC 0F94  
                       _TRISD 0F95                         _TRISE 0F96              __end_of_TMR0_ISR 12B8  
            __end_of_TMR1_ISR 12AC              __end_of_TMR2_ISR 12CA              __end_of_TMR3_ISR 12A0  
                       tablat 0FF5                         ttemp5 005D                         ttemp6 0060  
                       ttemp7 0064                         status 0FD8                         wtemp8 005D  
             __initialization 111C                  __end_of_main 1214      Timer3_Read_Value@l_tmr3h 005B  
    Timer3_Read_Value@l_tmr3l 005A                     ??_ADC_ISR 0054                 _lat_registers 003C  
                      ??_main 005C                 __activetblptr 0003         _TMR3_InterruptHandler 0007  
            led_turn_on@F3315 0032                     ??_RB4_ISR 0054                     ??_RB5_ISR 0054  
                   ??_RB6_ISR 0054                     ??_RB7_ISR 0054                        _ADRESH 0FC4  
                      _EEADRH 0FAA                        _ADRESL 0FC3                        _EEDATA 0FA8  
                      _EECON2 0FA7                        i2l1026 12AA                        i2l2100 12CE  
                      i2l1140 129E                        i2l2110 1266                        i2l2104 12CA  
                      i2l2130 1260                        i2l2122 124A                        i2l1075 12C8  
                      i2l2116 127A                        i2l2108 1264                        i2l2124 124C  
                      i2l2150 1216                        i2l2144 1246                        i2l2136 1230  
                      i2l2152 1218                        i2l3200 0170                        i2l2138 1232  
                      i2l3210 01A4                        i2l3202 0174                        i2l2092 12D6  
                      i2l2164 12AC                        i2l2172 12A0                        i2l2180 12C2  
                      i2l3220 01E8                        i2l3212 01B4                        i2l3204 017A  
                      i2l2158 122C                        i2l2166 12AE                        i2l2174 12A2  
                      i2l3230 021E                        i2l3222 01F8                        i2l3214 01B8  
                      i2l3206 0188                        i2l3150 000A                        i2l2096 12D2  
                      i2l2168 12B2                        i2l2176 12A6                        i2l2184 1294  
                      i2l3240 0262                        i2l3232 022C                        i2l3224 01FC  
                      i2l3216 01CC                        i2l3208 0196                        i2l3160 0058  
                      i2l3152 0018                        i2l2186 1296                        i2l3250 02A6  
                      i2l3242 0270                        i2l3234 023C                        i2l3218 01DA  
                      i2l3226 0202                        i2l3170 00A4                        i2l3162 0066  
                      i2l3154 0026                        i2l2188 129A                        i2l3260 02F8  
                      i2l3252 02B8                        i2l3244 0280                        i2l3236 0240  
                      i2l3228 0210                        i2l3180 00E8                        i2l3172 00A8  
                      i2l3164 0078                        i2l3156 0038                        i2l3262 0306  
                      i2l3254 02C6                        i2l3246 0284                        i2l3238 0254  
                      i2l3190 012C                        i2l3182 00EC                        i2l3174 00BC  
                      i2l3166 0086                        i2l3158 0046                        i2l3264 0318  
                      i2l3256 02D8                        i2l3248 0298                        i2l3192 0130  
                      i2l3184 0100                        i2l3176 00CA                        i2l3168 0094  
                      i2l3266 0326                        i2l3258 02E6                        i2l3194 0144  
                      i2l3186 010E                        i2l3178 00D8                        i2l3196 0152  
                      i2l3188 011C                        i2l3198 0160                 ??_Timer3_Init 0057  
                      clear_0 1162                        clear_1 116E                        isa$std 0001  
                __pdataCOMRAM 003C                  __mediumconst 0000                        tblptrh 0FF7  
                      tblptrl 0FF6                        tblptru 0FF8                    __accesstop 0060  
     __end_of__initialization 1174                     ?_INT0_ISR 0054                     ?_INT1_ISR 0054  
                   ?_INT2_ISR 0054                 ___rparam_used 0001                __pcstackCOMRAM 0054  
                __pidataBANK0 12B8                     ?_TMR0_ISR 0054                     ?_TMR1_ISR 0054  
                   ?_TMR2_ISR 0054                     ?_TMR3_ISR 0054  convert_short_to_string@F3463 006B  
         __end_of_Timer3_Init 10A6             RB5_ISR@RB5_source 0054             Timer3_Init@_timer 0056  
                  __pbssBANK0 0060         _INT0_InterruptHandler 0027                    ??_INT0_ISR 0054  
                  ??_INT1_ISR 0054                    ??_INT2_ISR 0054                    ??_TMR0_ISR 0054  
                  ??_TMR1_ISR 0054                    ??_TMR2_ISR 0054                    ??_TMR3_ISR 0054  
           led_turn_off@F3320 0031                       _ADC_ISR 12D6                       _RB4_ISR 1262  
                     _RB5_ISR 1248                       _RB6_ISR 122E                       _RB7_ISR 1214  
   _RB6_InterruptHandler_HIGH 0019          led_turn_toggle@F3325 0030                       i2u34_40 1276  
                     i2u34_41 1272                       i2u35_40 125C                       i2u35_41 1258  
                     i2u36_40 1242                       i2u36_41 123E                       i2u37_40 1228  
                     i2u37_41 1224             RB7_ISR@RB7_source 0054                    _btn_values 1001  
              _tris_registers 0046      _RB6_InterruptHandler_LOW 0017          _ADC_InterruptHandler 0029  
                     __Hparam 0000                       __Lparam 0000                   _Timer3_Init 1016  
                __psmallconst 1000                       __pcinit 111C                       __ramtop 1000  
                     __ptext0 11DC                       __ptext1 117E                       __ptext2 1016  
                     __ptext3 10A6                       __ptext5 1294                       __ptext6 12C2  
                     __ptext7 12A0                       __ptext8 12AC                       __ptext9 1214  
                   _T0CONbits 0FD5                     _T1CONbits 0FCD                     _T2CONbits 0FCA  
                   _T3CONbits 0FB1          end_of_initialization 1174                       postdec1 0FE5  
                     postdec2 0FDD                    _timer3_obj 0034                       postinc0 0FEE  
                     postinc2 0FDE         _INT1_InterruptHandler 0025                     _PORTBbits 0F81  
            _InterruptManager 0008             _Timer3_Read_Value 117E            ?_Timer3_Read_Value 0055  
         ??_Timer3_Read_Value 0057            relay_turn_on@F3309 002E        Timer3_Read_Value@value 0056  
               __pidataCOMRAM 127C                _timer0_preload 000F                _timer1_preload 000B  
              _timer2_preload 002B     __end_of_Timer3_Read_Value 11DC           start_initialization 111C  
              _timer3_preload 0005    convert_int_to_string@F3470 0060   convert_byte_to_string@F3456 0001  
                 __pdataBANK0 0071                      ?_ADC_ISR 0054                      ?_RB4_ISR 0054  
                    ?_RB5_ISR 0054                      ?_RB6_ISR 0054                      ?_RB7_ISR 0054  
                 __pbssCOMRAM 0001          Timer3_Read_Value@ret 0059         _INT2_InterruptHandler 0023  
       _TMR0_InterruptHandler 0011                  ?_Timer3_Init 0056                     __pintcode 0008  
                 __smallconst 1000     _RB4_InterruptHandler_HIGH 0021     _RB7_InterruptHandler_HIGH 0015  
    _RB5_InterruptHandler_LOW 001B                      _INT0_ISR 12D2                      _INT1_ISR 12CE  
                    _INT2_ISR 12CA                      _RB4_Flag 0053                      _RB5_Flag 0052  
                    _RB6_Flag 0051                      _RB7_Flag 0050      __end_of_InterruptManager 032E  
                    _PIE1bits 0F9D                      _PIE2bits 0FA0    __end_of_Timer3_Mode_Select 111C  
                    i2u150_40 0018                      i2u150_41 0014                      i2u151_40 0026  
                    i2u151_41 0022                      i2u160_40 00BC                      i2u152_40 0038  
                    i2u160_41 00B8                      i2u152_41 0034                      i2u161_40 00CA  
                    i2u153_40 0046                      i2u161_41 00C6                      i2u153_41 0042  
                    i2u170_40 0160                      i2u162_40 00D8                      i2u154_40 0058  
                    i2u170_41 015C                      i2u162_41 00D4                      i2u154_41 0054  
                    i2u171_40 0170                      i2u163_40 00E8                      i2u155_40 0066  
                    i2u171_41 016C                      i2u163_41 00E4                      i2u155_41 0062  
                    i2u180_40 0210                      i2u172_40 0188                      i2u164_40 0100  
                    i2u156_40 0078                      i2u180_41 020C                      i2u172_41 0184  
                    i2u164_41 00FC                      i2u156_41 0074                      i2u181_40 021E  
                    i2u173_40 0196                      i2u165_40 010E                      i2u157_40 0086  
                    i2u181_41 021A                      i2u173_41 0192                      i2u165_41 010A  
                    i2u157_41 0082                      i2u190_40 02B8                      i2u182_40 022C  
                    i2u174_40 01A4                      i2u166_40 011C                      i2u158_40 0094  
                    i2u190_41 02B4                      i2u182_41 0228                      i2u174_41 01A0  
                    i2u166_41 0118                      i2u158_41 0090                      i2u191_40 02C6  
                    i2u183_40 023C                      i2u175_40 01B4                      i2u167_40 012C  
                    i2u159_40 00A4                      i2u191_41 02C2                      i2u183_41 0238  
                    i2u175_41 01B0                      i2u167_41 0128                      i2u159_41 00A0  
                    i2u192_40 02D8                      i2u184_40 0254                      i2u176_40 01CC  
                    i2u168_40 0144                      i2u192_41 02D4                      i2u184_41 0250  
                    i2u176_41 01C8                      i2u168_41 0140                      i2u193_40 02E6  
                    i2u185_40 0262                      i2u177_40 01DA                      i2u169_40 0152  
                    i2u193_41 02E2                      i2u185_41 025E                      i2u177_41 01D6  
                    i2u169_41 014E                      _PIR1bits 0F9E                      i2u194_40 02F8  
                    i2u186_40 0270                      i2u178_40 01E8                      i2u194_41 02F4  
                    i2u186_41 026C                      i2u178_41 01E4                      i2u195_40 0306  
                    i2u187_40 0280                      i2u179_40 01F8                      i2u195_41 0302  
                    i2u187_41 027C                      i2u179_41 01F4                      _PIR2bits 0FA1  
                    i2u196_40 0318                      i2u188_40 0298                      i2u196_41 0314  
                    i2u188_41 0294                      i2u197_40 0326                      i2u189_40 02A6  
                    i2u197_41 0322                      i2u189_41 02A2             RB4_ISR@RB4_source 0054  
                    _TMR0_ISR 12AC                      _TMR1_ISR 12A0                      _TMR2_ISR 12C2  
                    _TMR3_ISR 1294                    _ADCON0bits 0FC2                    _ADCON1bits 0FC1  
                  _ADCON2bits 0FC0                   _INTCON2bits 0FF1                   _INTCON3bits 0FF0  
                   copy_data0 1130                     copy_data1 1150                    _EECON1bits 0FA6  
                 _counter_val 003A                      __Hrparam 0000                      __Lrparam 0000  
          __end_of_btn_values 1011         _TMR1_InterruptHandler 000D             RB6_ISR@RB6_source 0054  
                    __ptext10 122E                      __ptext11 1248                      __ptext12 1262  
                    __ptext13 12CA                      __ptext14 12CE                      __ptext15 12D2  
                    __ptext16 12D6                      isa$xinst 0000                      int$flags 005C  
    Timer3_Mode_Select@_timer 0055                    _INTCONbits 0FF2                      intlevel2 0000  
              _port_registers 0071         _TMR2_InterruptHandler 0009             ?_InterruptManager 0054  
