

Microchip MPLAB XC8 Assembler V2.46 build 20240104201356 
                                                                                               Fri Aug 30 12:02:00 2024

Microchip MPLAB XC8 C Compiler v2.46 (Free license) build 20240104201356 Og1 
     1                           	processor	18F46K20
     2                           	fnconf	rparam,??,?,0
     3                           	pagewidth 120
     4                           	opt	flic
     5                           	psect	idataCOMRAM,global,class=CODE,delta=1,noexec
     6                           	psect	smallconst,global,reloc=2,class=SMALLCONST,delta=1,noexec
     7                           	psect	nvCOMRAM,global,class=COMRAM,space=1,delta=1,lowdata,noexec
     8                           	psect	cinit,global,reloc=2,class=CODE,delta=1
     9                           	psect	bssCOMRAM,global,class=COMRAM,space=1,delta=1,lowdata,noexec
    10                           	psect	dataCOMRAM,global,class=COMRAM,space=1,delta=1,lowdata,noexec
    11                           	psect	cstackBANK0,global,class=BANK0,space=1,delta=1,lowdata,noexec
    12                           	psect	cstackCOMRAM,global,class=COMRAM,space=1,delta=1,lowdata,noexec
    13                           	psect	text0,global,reloc=2,class=CODE,delta=1
    14                           	psect	text1,global,reloc=2,class=CODE,delta=1
    15                           	psect	text2,global,reloc=2,class=CODE,delta=1
    16                           	psect	text3,global,reloc=2,class=CODE,delta=1
    17                           	psect	text4,global,reloc=2,class=CODE,delta=1
    18                           	psect	text5,global,reloc=2,class=CODE,delta=1
    19                           	psect	text6,global,reloc=2,class=CODE,delta=1
    20                           	psect	text7,global,reloc=2,class=CODE,delta=1
    21                           	psect	text8,global,reloc=2,class=CODE,delta=1
    22                           	psect	text9,global,reloc=2,class=CODE,delta=1
    23                           	psect	text10,global,reloc=2,class=CODE,delta=1
    24                           	psect	text11,global,reloc=2,class=CODE,delta=1
    25                           	psect	text12,global,reloc=2,class=CODE,delta=1
    26                           	psect	text13,global,reloc=2,class=CODE,delta=1
    27                           	psect	text14,global,reloc=2,class=CODE,delta=1
    28                           	psect	text15,global,reloc=2,class=CODE,delta=1
    29                           	psect	text16,global,reloc=2,class=CODE,delta=1
    30                           	psect	text17,global,reloc=2,class=CODE,delta=1
    31                           	psect	text18,global,reloc=2,class=CODE,delta=1
    32                           	psect	text19,global,reloc=2,class=CODE,delta=1
    33                           	psect	intcode,global,reloc=2,class=CODE,delta=1
    34                           	psect	text21,global,reloc=2,class=CODE,delta=1
    35                           	psect	text22,global,reloc=2,class=CODE,delta=1
    36                           	psect	text23,global,reloc=2,class=CODE,delta=1
    37                           	psect	text24,global,reloc=2,class=CODE,delta=1
    38                           	psect	text25,global,reloc=2,class=CODE,delta=1
    39                           	psect	text26,global,reloc=2,class=CODE,delta=1
    40                           	psect	text27,global,reloc=2,class=CODE,delta=1
    41                           	psect	text28,global,reloc=2,class=CODE,delta=1
    42                           	psect	text29,global,reloc=2,class=CODE,delta=1
    43                           	psect	intsave_regs,global,class=BIGRAM,space=1,delta=1,noexec
    44                           	psect	rparam,global,class=COMRAM,space=1,delta=1,noexec
    45                           	psect	temp,global,ovrld,common,class=COMRAM,space=1,delta=1,lowdata
    46                           	psect	config,global,abs,ovrld,class=CONFIG,space=4,delta=1,noexec
    47   000000                     
    48                           ; Generated 12/10/2023 GMT
    49                           ; 
    50                           ; Copyright © 2023, Microchip Technology Inc. and its subsidiaries ("Microchip")
    51                           ; All rights reserved.
    52                           ; 
    53                           ; This software is developed by Microchip Technology Inc. and its subsidiaries ("Microch
      +                          ip").
    54                           ; 
    55                           ; Redistribution and use in source and binary forms, with or without modification, are
    56                           ; permitted provided that the following conditions are met:
    57                           ; 
    58                           ;     1. Redistributions of source code must retain the above copyright notice, this lis
      +                          t of
    59                           ;        conditions and the following disclaimer.
    60                           ; 
    61                           ;     2. Redistributions in binary form must reproduce the above copyright notice, this 
      +                          list
    62                           ;        of conditions and the following disclaimer in the documentation and/or other
    63                           ;        materials provided with the distribution. Publication is not required when
    64                           ;        this file is used in an embedded application.
    65                           ; 
    66                           ;     3. Microchip's name may not be used to endorse or promote products derived from th
      +                          is
    67                           ;        software without specific prior written permission.
    68                           ; 
    69                           ; THIS SOFTWARE IS PROVIDED BY MICROCHIP "AS IS" AND ANY EXPRESS OR IMPLIED WARRANTIES,
    70                           ; INCLUDING, BUT NOT LIMITED TO, THE IMPLIED WARRANTIES OF MERCHANTABILITY AND FITNESS F
      +                          OR
    71                           ; PURPOSE ARE DISCLAIMED.  IN NO EVENT SHALL MICROCHIP BE LIABLE FOR ANY DIRECT, INDIREC
      +                          T,
    72                           ; INCIDENTAL, SPECIAL, EXEMPLARY, OR CONSEQUENTIAL DAMAGES (INCLUDING BUT NOT LIMITED TO
    73                           ; PROCUREMENT OF SUBSTITUTE GOODS OR SERVICES; LOSS OF USE, DATA OR PROFITS; OR BUSINESS
    74                           ; INTERRUPTION) HOWSOEVER CAUSED AND ON ANY THEORY OF LIABILITY, WHETHER IN CONTRACT, ST
      +                          RICT
    75                           ; LIABILITY, OR TORT (INCLUDING NEGLIGENCE OR OTHERWISE) ARISING IN ANY WAY OUT OF THE U
      +                          SE OF
    76                           ; THIS SOFTWARE, EVEN IF ADVISED OF THE POSSIBILITY OF SUCH DAMAGE.
    77                           ; 
    78                           ; 
    79                           ; Code-generator required, PIC18F46K20 Definitions
    80                           ; 
    81                           ; SFR Addresses
    82   000000                     
    83                           	psect	idataCOMRAM
    84   0019CC                     __pidataCOMRAM:
    85                           	callstack 0
    86                           
    87                           ;initializer for _port_registers
    88   0019CC  80                 	db	128
    89   0019CD  0F                 	db	15
    90   0019CE  81                 	db	129
    91   0019CF  0F                 	db	15
    92   0019D0  82                 	db	130
    93   0019D1  0F                 	db	15
    94   0019D2  83                 	db	131
    95   0019D3  0F                 	db	15
    96   0019D4  84                 	db	132
    97   0019D5  0F                 	db	15
    98                           
    99                           ;initializer for _lat_registers
   100   0019D6  89                 	db	137
   101   0019D7  0F                 	db	15
   102   0019D8  8A                 	db	138
   103   0019D9  0F                 	db	15
   104   0019DA  8B                 	db	139
   105   0019DB  0F                 	db	15
   106   0019DC  8C                 	db	140
   107   0019DD  0F                 	db	15
   108   0019DE  8D                 	db	141
   109   0019DF  0F                 	db	15
   110                           
   111                           ;initializer for _tris_registers
   112   0019E0  92                 	db	146
   113   0019E1  0F                 	db	15
   114   0019E2  93                 	db	147
   115   0019E3  0F                 	db	15
   116   0019E4  94                 	db	148
   117   0019E5  0F                 	db	15
   118   0019E6  95                 	db	149
   119   0019E7  0F                 	db	15
   120   0019E8  96                 	db	150
   121   0019E9  0F                 	db	15
   122                           
   123                           ;initializer for _RB7_Flag
   124   0019EA  01                 	db	1
   125                           
   126                           ;initializer for _RB6_Flag
   127   0019EB  01                 	db	1
   128                           
   129                           ;initializer for _RB5_Flag
   130   0019EC  01                 	db	1
   131                           
   132                           ;initializer for _RB4_Flag
   133   0019ED  01                 	db	1
   134                           
   135                           ;initializer for _int0_obj
   136   0019EE  A0                 	db	low _APP_CallBack
   137   0019EF  19                 	db	high _APP_CallBack
   138   0019F0  41                 	db	65
   139   0019F1  01                 	db	1
   140   0019F2  00                 	db	0
   141   0019F3  01                 	db	1
   142                           
   143                           ;initializer for _led_2
   144   0019F4  13                 	db	19
   145                           
   146                           ;initializer for _led_1
   147   0019F5  03                 	db	3
   148                           
   149                           	psect	smallconst
   150   001000                     __psmallconst:
   151                           	callstack 0
   152   001000  00                 	db	0
   153   001001                     _btn_values:
   154                           	callstack 0
   155   001001  37                 	db	55
   156   001002  38                 	db	56
   157   001003  39                 	db	57
   158   001004  2F                 	db	47
   159   001005  34                 	db	52
   160   001006  35                 	db	53
   161   001007  36                 	db	54
   162   001008  37                 	db	55
   163   001009  31                 	db	49
   164   00100A  32                 	db	50
   165   00100B  33                 	db	51
   166   00100C  34                 	db	52
   167   00100D  23                 	db	35
   168   00100E  30                 	db	48
   169   00100F  3D                 	db	61
   170   001010  2B                 	db	43
   171   001011                     __end_of_btn_values:
   172                           	callstack 0
   173   000000                     _INTCON2bits	set	4081
   174   000000                     _EECON2	set	4007
   175   001011                     STR_1:
   176   001011  25                 	db	37
   177   001012  69                 	db	105	;'i'
   178   001013  00                 	db	0
   179   001014  00                 	db	0	; dummy byte at the end
   180   000000                     
   181                           	psect	nvCOMRAM
   182   000058                     __pnvCOMRAM:
   183                           	callstack 0
   184   000058                     _ret:
   185                           	callstack 0
   186   000058                     	ds	1
   187   000000                     _PORTBbits	set	3969
   188   000000                     _EECON1bits	set	4006
   189   000000                     _EEDATA	set	4008
   190   000000                     _EEADR	set	4009
   191   000000                     _EEADRH	set	4010
   192   000000                     _INTCONbits	set	4082
   193   000000                     _PORTA	set	3968
   194   000000                     _LATA	set	3977
   195   000000                     _TRISA	set	3986
   196   000000                     _INTCON3bits	set	4080
   197   000000                     _TRISE	set	3990
   198   000000                     _TRISD	set	3989
   199   000000                     _TRISC	set	3988
   200   000000                     _TRISB	set	3987
   201   000000                     _LATE	set	3981
   202   000000                     _LATD	set	3980
   203   000000                     _LATC	set	3979
   204   000000                     _LATB	set	3978
   205   000000                     _PORTE	set	3972
   206   000000                     _PORTD	set	3971
   207   000000                     _PORTC	set	3970
   208   000000                     _PORTB	set	3969
   209                           
   210                           ; #config settings
   211                           
   212                           	psect	cinit
   213   0018E0                     __pcinit:
   214                           	callstack 0
   215   0018E0                     start_initialization:
   216                           	callstack 0
   217   0018E0                     __initialization:
   218                           	callstack 0
   219                           
   220                           ; Initialize objects allocated to COMRAM (42 bytes)
   221                           ; load TBLPTR registers with __pidataCOMRAM
   222   0018E0  0ECC               	movlw	low __pidataCOMRAM
   223   0018E2  6EF6               	movwf	tblptrl,c
   224   0018E4  0E19               	movlw	high __pidataCOMRAM
   225   0018E6  6EF7               	movwf	tblptrh,c
   226   0018E8  0E00               	movlw	low (__pidataCOMRAM shr (0+16))
   227   0018EA  6EF8               	movwf	tblptru,c
   228   0018EC  EE00  F001         	lfsr	0,__pdataCOMRAM
   229   0018F0  EE10 F02A          	lfsr	1,42
   230   0018F4                     copy_data0:
   231   0018F4  0009               	tblrd		*+
   232   0018F6  CFF5 FFEE          	movff	tablat,postinc0
   233   0018FA  50E5               	movf	postdec1,w,c
   234   0018FC  50E1               	movf	fsr1l,w,c
   235   0018FE  E1FA               	bnz	copy_data0
   236                           
   237                           ; Clear objects allocated to COMRAM (30 bytes)
   238   001900  EE00  F02B         	lfsr	0,__pbssCOMRAM
   239   001904  0E1E               	movlw	30
   240   001906                     clear_0:
   241   001906  6AEE               	clrf	postinc0,c
   242   001908  06E8               	decf	wreg,f,c
   243   00190A  E1FD               	bnz	clear_0
   244   00190C                     end_of_initialization:
   245                           	callstack 0
   246   00190C                     __end_of__initialization:
   247                           	callstack 0
   248   00190C  9059               	bcf	int$flags,0,c	;clear compiler interrupt flag (level 1)
   249   00190E  9259               	bcf	int$flags,1,c	;clear compiler interrupt flag (level 2)
   250   001910  0100               	movlb	0
   251   001912  EFF6  F009         	goto	_main	;jump to C main() function
   252                           
   253                           	psect	bssCOMRAM
   254   00002B                     __pbssCOMRAM:
   255                           	callstack 0
   256   00002B                     _RB7_InterruptHandler_LOW:
   257                           	callstack 0
   258   00002B                     	ds	2
   259   00002D                     _RB7_InterruptHandler_HIGH:
   260                           	callstack 0
   261   00002D                     	ds	2
   262   00002F                     _RB6_InterruptHandler_LOW:
   263                           	callstack 0
   264   00002F                     	ds	2
   265   000031                     _RB6_InterruptHandler_HIGH:
   266                           	callstack 0
   267   000031                     	ds	2
   268   000033                     _RB5_InterruptHandler_LOW:
   269                           	callstack 0
   270   000033                     	ds	2
   271   000035                     _RB5_InterruptHandler_HIGH:
   272                           	callstack 0
   273   000035                     	ds	2
   274   000037                     _RB4_InterruptHandler_LOW:
   275                           	callstack 0
   276   000037                     	ds	2
   277   000039                     _RB4_InterruptHandler_HIGH:
   278                           	callstack 0
   279   000039                     	ds	2
   280   00003B                     _INT2_InterruptHandler:
   281                           	callstack 0
   282   00003B                     	ds	2
   283   00003D                     _INT1_InterruptHandler:
   284                           	callstack 0
   285   00003D                     	ds	2
   286   00003F                     _INT0_InterruptHandler:
   287                           	callstack 0
   288   00003F                     	ds	2
   289   000041                     relay_turn_off@F3314:
   290                           	callstack 0
   291   000041                     	ds	1
   292   000042                     relay_turn_on@F3309:
   293                           	callstack 0
   294   000042                     	ds	1
   295   000043                     relay_initialize@F3304:
   296                           	callstack 0
   297   000043                     	ds	1
   298   000044                     led_turn_toggle@F3325:
   299                           	callstack 0
   300   000044                     	ds	1
   301   000045                     led_turn_off@F3320:
   302                           	callstack 0
   303   000045                     	ds	1
   304   000046                     led_turn_on@F3315:
   305                           	callstack 0
   306   000046                     	ds	1
   307   000047                     led_initialize@F3310:
   308                           	callstack 0
   309   000047                     	ds	1
   310   000048                     _program_selected:
   311                           	callstack 0
   312   000048                     	ds	1
   313                           
   314                           	psect	dataCOMRAM
   315   000001                     __pdataCOMRAM:
   316                           	callstack 0
   317   000001                     _port_registers:
   318                           	callstack 0
   319   000001                     	ds	10
   320   00000B                     _lat_registers:
   321                           	callstack 0
   322   00000B                     	ds	10
   323   000015                     _tris_registers:
   324                           	callstack 0
   325   000015                     	ds	10
   326   00001F                     _RB7_Flag:
   327                           	callstack 0
   328   00001F                     	ds	1
   329   000020                     _RB6_Flag:
   330                           	callstack 0
   331   000020                     	ds	1
   332   000021                     _RB5_Flag:
   333                           	callstack 0
   334   000021                     	ds	1
   335   000022                     _RB4_Flag:
   336                           	callstack 0
   337   000022                     	ds	1
   338   000023                     _int0_obj:
   339                           	callstack 0
   340   000023                     	ds	6
   341   000029                     _led_2:
   342                           	callstack 0
   343   000029                     	ds	1
   344   00002A                     _led_1:
   345                           	callstack 0
   346   00002A                     	ds	1
   347                           
   348                           	psect	cstackBANK0
   349   000060                     __pcstackBANK0:
   350                           	callstack 0
   351   000060                     ??_gpio_pin_intialize:
   352   000060                     ??_led_turn_on:
   353   000060                     ??_led_turn_off:
   354   000060                     Interrupt_INTx_Init@int_obj:
   355                           	callstack 0
   356                           
   357                           ; 1 bytes @ 0x0
   358   000060                     	ds	1
   359   000061                     led_turn_on@pin_obj:
   360                           	callstack 0
   361   000061                     led_turn_off@pin_obj:
   362                           	callstack 0
   363   000061                     gpio_pin_intialize@ret:
   364                           	callstack 0
   365   000061                     Interrupt_INTx_Init@ret:
   366                           	callstack 0
   367                           
   368                           ; 1 bytes @ 0x1
   369   000061                     	ds	1
   370   000062                     ??_program_1:
   371   000062                     ??_program_2:
   372   000062                     led_initialize@led:
   373                           	callstack 0
   374                           
   375                           ; 1 bytes @ 0x2
   376   000062                     	ds	1
   377   000063                     ??_led_initialize:
   378                           
   379                           ; 1 bytes @ 0x3
   380   000063                     	ds	1
   381   000064                     led_initialize@ret:
   382                           	callstack 0
   383                           
   384                           ; 1 bytes @ 0x4
   385   000064                     	ds	1
   386   000065                     led_initialize@pin_obj:
   387                           	callstack 0
   388                           
   389                           ; 1 bytes @ 0x5
   390   000065                     	ds	1
   391                           
   392                           	psect	cstackCOMRAM
   393   000049                     __pcstackCOMRAM:
   394                           	callstack 0
   395   000049                     RB4_ISR@RB4_source:
   396                           	callstack 0
   397   000049                     RB5_ISR@RB5_source:
   398                           	callstack 0
   399   000049                     RB6_ISR@RB6_source:
   400                           	callstack 0
   401   000049                     RB7_ISR@RB7_source:
   402                           	callstack 0
   403   000049                     Data_EEPROM_WriteByte@bAdd:
   404                           	callstack 0
   405                           
   406                           ; 2 bytes @ 0x0
   407   000049                     	ds	2
   408   00004B                     Data_EEPROM_WriteByte@bData:
   409                           	callstack 0
   410                           
   411                           ; 1 bytes @ 0x2
   412   00004B                     	ds	1
   413   00004C                     Data_EEPROM_WriteByte@Global_Interrupt_Status:
   414                           	callstack 0
   415                           
   416                           ; 1 bytes @ 0x3
   417   00004C                     	ds	1
   418   00004D                     ??_InterruptManager:
   419                           
   420                           ; 1 bytes @ 0x4
   421   00004D                     	ds	2
   422   00004F                     gpio_pin_direction_intialize@_pin_config:
   423                           	callstack 0
   424   00004F                     gpio_pin_write_logic@_pin_config:
   425                           	callstack 0
   426   00004F                     Interrupt_INTx_Enable@int_obj:
   427                           	callstack 0
   428   00004F                     Interrupt_INTx_Disable@int_obj:
   429                           	callstack 0
   430   00004F                     Interrupt_INTx_Edge_Init@int_obj:
   431                           	callstack 0
   432   00004F                     Interrupt_INTx_Clear_Flag@int_obj:
   433                           	callstack 0
   434   00004F                     Data_EEPROM_ReadByte@bAdd:
   435                           	callstack 0
   436   00004F                     INT0_SetInterruptHandler@InterruptHandler:
   437                           	callstack 0
   438   00004F                     INT1_SetInterruptHandler@InterruptHandler:
   439                           	callstack 0
   440   00004F                     INT2_SetInterruptHandler@InterruptHandler:
   441                           	callstack 0
   442                           
   443                           ; 2 bytes @ 0x6
   444   00004F                     	ds	1
   445   000050                     ??_gpio_pin_direction_intialize:
   446   000050                     ??_Interrupt_INTx_Disable:
   447   000050                     ??_Interrupt_INTx_Clear_Flag:
   448   000050                     ??_Interrupt_INTx_Edge_Init:
   449   000050                     ??_Interrupt_INTx_Enable:
   450   000050                     gpio_pin_write_logic@logic:
   451                           	callstack 0
   452                           
   453                           ; 1 bytes @ 0x7
   454   000050                     	ds	1
   455   000051                     ??_gpio_pin_write_logic:
   456   000051                     Data_EEPROM_ReadByte@bData:
   457                           	callstack 0
   458   000051                     INT0_SetInterruptHandler@ret:
   459                           	callstack 0
   460   000051                     INT1_SetInterruptHandler@ret:
   461                           	callstack 0
   462   000051                     INT2_SetInterruptHandler@ret:
   463                           	callstack 0
   464                           
   465                           ; 1 bytes @ 0x8
   466   000051                     	ds	1
   467   000052                     Data_EEPROM_ReadByte@ret:
   468                           	callstack 0
   469   000052                     Interrupt_INTx_SetInterruptHandler@int_obj:
   470                           	callstack 0
   471                           
   472                           ; 1 bytes @ 0x9
   473   000052                     	ds	1
   474   000053                     ??_Interrupt_INTx_SetInterruptHandler:
   475                           
   476                           ; 1 bytes @ 0xA
   477   000053                     	ds	2
   478   000055                     gpio_pin_direction_intialize@ret:
   479                           	callstack 0
   480   000055                     Interrupt_INTx_SetInterruptHandler@ret:
   481                           	callstack 0
   482                           
   483                           ; 1 bytes @ 0xC
   484   000055                     	ds	1
   485   000056                     gpio_pin_write_logic@ret:
   486                           	callstack 0
   487   000056                     Interrupt_INTx_Pin_Init@int_obj:
   488                           	callstack 0
   489                           
   490                           ; 1 bytes @ 0xD
   491   000056                     	ds	1
   492   000057                     led_turn_on@led:
   493                           	callstack 0
   494   000057                     led_turn_off@led:
   495                           	callstack 0
   496   000057                     gpio_pin_intialize@_pin_config:
   497                           	callstack 0
   498   000057                     Interrupt_INTx_Pin_Init@ret:
   499                           	callstack 0
   500                           
   501                           ; 1 bytes @ 0xE
   502   000057                     	ds	1
   503   000058                     
   504                           ; 1 bytes @ 0xF
   505 ;;
   506 ;;Main: autosize = 0, tempsize = 0, incstack = 0, save=0
   507 ;;
   508 ;; *************** function _main *****************
   509 ;; Defined at:
   510 ;;		line 40 in file "application.c"
   511 ;; Parameters:    Size  Location     Type
   512 ;;		None
   513 ;; Auto vars:     Size  Location     Type
   514 ;;		None
   515 ;; Return value:  Size  Location     Type
   516 ;;                  2  780[None  ] int 
   517 ;; Registers used:
   518 ;;		wreg, fsr2l, fsr2h, status,2, status,0, prodl, prodh, cstack
   519 ;; Tracked objects:
   520 ;;		On entry : 0/0
   521 ;;		On exit  : 0/0
   522 ;;		Unchanged: 0/0
   523 ;; Data sizes:     COMRAM   BANK0   BANK1   BANK2   BANK3   BANK4   BANK5   BANK6   BANK7   BANK8   BANK9  BANK10  BANK1
      +1  BANK12  BANK13  BANK14  BANK15
   524 ;;      Params:         0       0       0       0       0       0       0       0       0       0       0       0       
      +0       0       0       0       0
   525 ;;      Locals:         0       0       0       0       0       0       0       0       0       0       0       0       
      +0       0       0       0       0
   526 ;;      Temps:          0       0       0       0       0       0       0       0       0       0       0       0       
      +0       0       0       0       0
   527 ;;      Totals:         0       0       0       0       0       0       0       0       0       0       0       0       
      +0       0       0       0       0
   528 ;;Total ram usage:        0 bytes
   529 ;; Hardware stack levels required when called: 7
   530 ;; This function calls:
   531 ;;		_Data_EEPROM_ReadByte
   532 ;;		_Interrupt_INTx_Init
   533 ;;		_led_initialize
   534 ;;		_led_turn_off
   535 ;;		_program_1
   536 ;;		_program_2
   537 ;; This function is called by:
   538 ;;		Startup code after reset
   539 ;; This function uses a non-reentrant model
   540 ;;
   541                           
   542                           	psect	text0
   543   0013EC                     __ptext0:
   544                           	callstack 0
   545   0013EC                     _main:
   546                           	callstack 24
   547   0013EC                     
   548                           ;application.c: 42:     ret = led_initialize(&led_1);
   549   0013EC  0E2A               	movlw	low _led_1
   550   0013EE  0100               	movlb	0	; () banked
   551   0013F0  6F62               	movwf	led_initialize@led& (0+255),b
   552   0013F2  EC36  F00A         	call	_led_initialize	;wreg free
   553   0013F6  6E58               	movwf	_ret^0,c
   554                           
   555                           ;application.c: 43:     ret = led_initialize(&led_2);
   556   0013F8  0E29               	movlw	low _led_2
   557   0013FA  0100               	movlb	0	; () banked
   558   0013FC  6F62               	movwf	led_initialize@led& (0+255),b
   559   0013FE  EC36  F00A         	call	_led_initialize	;wreg free
   560   001402  6E58               	movwf	_ret^0,c
   561                           
   562                           ;application.c: 45:     ret = Interrupt_INTx_Init(&int0_obj);
   563   001404  0E23               	movlw	low _int0_obj
   564   001406  0100               	movlb	0	; () banked
   565   001408  6F60               	movwf	Interrupt_INTx_Init@int_obj& (0+255),b
   566   00140A  EC4B  F00B         	call	_Interrupt_INTx_Init	;wreg free
   567   00140E  6E58               	movwf	_ret^0,c
   568   001410                     
   569                           ;application.c: 46:     ret = Data_EEPROM_ReadByte(0x3E0, &program_selected);
   570   001410  0E03               	movlw	3
   571   001412  6E50               	movwf	(Data_EEPROM_ReadByte@bAdd+1)^0,c
   572   001414  0EE0               	movlw	224
   573   001416  6E4F               	movwf	Data_EEPROM_ReadByte@bAdd^0,c
   574   001418  0E48               	movlw	low _program_selected
   575   00141A  6E51               	movwf	Data_EEPROM_ReadByte@bData^0,c
   576   00141C  EC51  F00C         	call	_Data_EEPROM_ReadByte	;wreg free
   577   001420  6E58               	movwf	_ret^0,c
   578   001422                     l4869:
   579                           
   580                           ;application.c: 49:     {;application.c: 50:         if (1 == program_selected)
   581   001422  0448               	decf	_program_selected^0,w,c	;volatile
   582   001424  A4D8               	btfss	status,2,c
   583   001426  EF17  F00A         	goto	u4141
   584   00142A  EF19  F00A         	goto	u4140
   585   00142E                     u4141:
   586   00142E  EF1D  F00A         	goto	l4873
   587   001432                     u4140:
   588   001432                     
   589                           ;application.c: 51:         {;application.c: 52:             program_1();
   590   001432  EC09  F00C         	call	_program_1	;wreg free
   591                           
   592                           ;application.c: 53:         }
   593   001436  EF11  F00A         	goto	l4869
   594   00143A                     l4873:
   595   00143A  0E02               	movlw	2
   596   00143C  1848               	xorwf	_program_selected^0,w,c	;volatile
   597   00143E  A4D8               	btfss	status,2,c
   598   001440  EF24  F00A         	goto	u4151
   599   001444  EF26  F00A         	goto	u4150
   600   001448                     u4151:
   601   001448  EF2A  F00A         	goto	l4877
   602   00144C                     u4150:
   603   00144C                     
   604                           ;application.c: 55:         {;application.c: 56:             program_2();
   605   00144C  ECE4  F00B         	call	_program_2	;wreg free
   606                           
   607                           ;application.c: 57:         }
   608   001450  EF11  F00A         	goto	l4869
   609   001454                     l4877:
   610                           
   611                           ;application.c: 59:             led_turn_off(&led_1);
   612   001454  0E2A               	movlw	low _led_1
   613   001456  6E57               	movwf	led_turn_off@led^0,c
   614   001458  ECE1  F00A         	call	_led_turn_off	;wreg free
   615                           
   616                           ;application.c: 60:             led_turn_off(&led_2);
   617   00145C  0E29               	movlw	low _led_2
   618   00145E  6E57               	movwf	led_turn_off@led^0,c
   619   001460  ECE1  F00A         	call	_led_turn_off	;wreg free
   620   001464  EF11  F00A         	goto	l4869
   621   001468  EF4F  F001         	goto	start
   622   00146C                     __end_of_main:
   623                           	callstack 0
   624                           
   625 ;; *************** function _program_2 *****************
   626 ;; Defined at:
   627 ;;		line 79 in file "application.c"
   628 ;; Parameters:    Size  Location     Type
   629 ;;		None
   630 ;; Auto vars:     Size  Location     Type
   631 ;;		None
   632 ;; Return value:  Size  Location     Type
   633 ;;                  1    wreg      void 
   634 ;; Registers used:
   635 ;;		wreg, fsr2l, fsr2h, status,2, status,0, prodl, prodh, cstack
   636 ;; Tracked objects:
   637 ;;		On entry : 0/0
   638 ;;		On exit  : 0/0
   639 ;;		Unchanged: 0/0
   640 ;; Data sizes:     COMRAM   BANK0   BANK1   BANK2   BANK3   BANK4   BANK5   BANK6   BANK7   BANK8   BANK9  BANK10  BANK1
      +1  BANK12  BANK13  BANK14  BANK15
   641 ;;      Params:         0       0       0       0       0       0       0       0       0       0       0       0       
      +0       0       0       0       0
   642 ;;      Locals:         0       0       0       0       0       0       0       0       0       0       0       0       
      +0       0       0       0       0
   643 ;;      Temps:          0       2       0       0       0       0       0       0       0       0       0       0       
      +0       0       0       0       0
   644 ;;      Totals:         0       2       0       0       0       0       0       0       0       0       0       0       
      +0       0       0       0       0
   645 ;;Total ram usage:        2 bytes
   646 ;; Hardware stack levels used: 1
   647 ;; Hardware stack levels required when called: 6
   648 ;; This function calls:
   649 ;;		_led_turn_off
   650 ;;		_led_turn_on
   651 ;; This function is called by:
   652 ;;		_main
   653 ;; This function uses a non-reentrant model
   654 ;;
   655                           
   656                           	psect	text1
   657   0017C8                     __ptext1:
   658                           	callstack 0
   659   0017C8                     _program_2:
   660                           	callstack 24
   661   0017C8                     
   662                           ;application.c: 80:     led_turn_on(&led_2);
   663   0017C8  0E29               	movlw	low _led_2
   664   0017CA  6E57               	movwf	led_turn_on@led^0,c
   665   0017CC  ECAA  F00A         	call	_led_turn_on	;wreg free
   666   0017D0                     
   667                           ;application.c: 81:     _delay((unsigned long)((250)*(8000000UL/4000.0)));
   668   0017D0  0E03               	movlw	3
   669   0017D2  0100               	movlb	0	; () banked
   670   0017D4  6F63               	movwf	(??_program_2+1)& (0+255),b
   671   0017D6  0E8A               	movlw	138
   672   0017D8  6F62               	movwf	??_program_2& (0+255),b
   673   0017DA  0E55               	movlw	85
   674   0017DC                     u4167:
   675   0017DC  2EE8               	decfsz	wreg,f,c
   676   0017DE  D7FE               	bra	u4167
   677   0017E0  2F62               	decfsz	??_program_2& (0+255),f,b
   678   0017E2  D7FC               	bra	u4167
   679   0017E4  2F63               	decfsz	(??_program_2+1)& (0+255),f,b
   680   0017E6  D7FA               	bra	u4167
   681   0017E8  F000 F000          	nop2	
   682   0017EC                     
   683                           ;application.c: 82:     led_turn_off(&led_2);
   684   0017EC  0E29               	movlw	low _led_2
   685   0017EE  6E57               	movwf	led_turn_off@led^0,c
   686   0017F0  ECE1  F00A         	call	_led_turn_off	;wreg free
   687                           
   688                           ;application.c: 83:     _delay((unsigned long)((250)*(8000000UL/4000.0)));
   689   0017F4  0E03               	movlw	3
   690   0017F6  0100               	movlb	0	; () banked
   691   0017F8  6F63               	movwf	(??_program_2+1)& (0+255),b
   692   0017FA  0E8A               	movlw	138
   693   0017FC  6F62               	movwf	??_program_2& (0+255),b
   694   0017FE  0E55               	movlw	85
   695   001800                     u4177:
   696   001800  2EE8               	decfsz	wreg,f,c
   697   001802  D7FE               	bra	u4177
   698   001804  2F62               	decfsz	??_program_2& (0+255),f,b
   699   001806  D7FC               	bra	u4177
   700   001808  2F63               	decfsz	(??_program_2+1)& (0+255),f,b
   701   00180A  D7FA               	bra	u4177
   702   00180C  F000 F000          	nop2	
   703   001810  0012               	return		;funcret
   704   001812                     __end_of_program_2:
   705                           	callstack 0
   706                           
   707 ;; *************** function _program_1 *****************
   708 ;; Defined at:
   709 ;;		line 72 in file "application.c"
   710 ;; Parameters:    Size  Location     Type
   711 ;;		None
   712 ;; Auto vars:     Size  Location     Type
   713 ;;		None
   714 ;; Return value:  Size  Location     Type
   715 ;;                  1    wreg      void 
   716 ;; Registers used:
   717 ;;		wreg, fsr2l, fsr2h, status,2, status,0, prodl, prodh, cstack
   718 ;; Tracked objects:
   719 ;;		On entry : 0/0
   720 ;;		On exit  : 0/0
   721 ;;		Unchanged: 0/0
   722 ;; Data sizes:     COMRAM   BANK0   BANK1   BANK2   BANK3   BANK4   BANK5   BANK6   BANK7   BANK8   BANK9  BANK10  BANK1
      +1  BANK12  BANK13  BANK14  BANK15
   723 ;;      Params:         0       0       0       0       0       0       0       0       0       0       0       0       
      +0       0       0       0       0
   724 ;;      Locals:         0       0       0       0       0       0       0       0       0       0       0       0       
      +0       0       0       0       0
   725 ;;      Temps:          0       2       0       0       0       0       0       0       0       0       0       0       
      +0       0       0       0       0
   726 ;;      Totals:         0       2       0       0       0       0       0       0       0       0       0       0       
      +0       0       0       0       0
   727 ;;Total ram usage:        2 bytes
   728 ;; Hardware stack levels used: 1
   729 ;; Hardware stack levels required when called: 6
   730 ;; This function calls:
   731 ;;		_led_turn_off
   732 ;;		_led_turn_on
   733 ;; This function is called by:
   734 ;;		_main
   735 ;; This function uses a non-reentrant model
   736 ;;
   737                           
   738                           	psect	text2
   739   001812                     __ptext2:
   740                           	callstack 0
   741   001812                     _program_1:
   742                           	callstack 24
   743   001812                     
   744                           ;application.c: 73:     led_turn_on(&led_1);
   745   001812  0E2A               	movlw	low _led_1
   746   001814  6E57               	movwf	led_turn_on@led^0,c
   747   001816  ECAA  F00A         	call	_led_turn_on	;wreg free
   748   00181A                     
   749                           ;application.c: 74:     _delay((unsigned long)((250)*(8000000UL/4000.0)));
   750   00181A  0E03               	movlw	3
   751   00181C  0100               	movlb	0	; () banked
   752   00181E  6F63               	movwf	(??_program_1+1)& (0+255),b
   753   001820  0E8A               	movlw	138
   754   001822  6F62               	movwf	??_program_1& (0+255),b
   755   001824  0E55               	movlw	85
   756   001826                     u4187:
   757   001826  2EE8               	decfsz	wreg,f,c
   758   001828  D7FE               	bra	u4187
   759   00182A  2F62               	decfsz	??_program_1& (0+255),f,b
   760   00182C  D7FC               	bra	u4187
   761   00182E  2F63               	decfsz	(??_program_1+1)& (0+255),f,b
   762   001830  D7FA               	bra	u4187
   763   001832  F000 F000          	nop2	
   764   001836                     
   765                           ;application.c: 75:     led_turn_off(&led_1);
   766   001836  0E2A               	movlw	low _led_1
   767   001838  6E57               	movwf	led_turn_off@led^0,c
   768   00183A  ECE1  F00A         	call	_led_turn_off	;wreg free
   769                           
   770                           ;application.c: 76:     _delay((unsigned long)((250)*(8000000UL/4000.0)));
   771   00183E  0E03               	movlw	3
   772   001840  0100               	movlb	0	; () banked
   773   001842  6F63               	movwf	(??_program_1+1)& (0+255),b
   774   001844  0E8A               	movlw	138
   775   001846  6F62               	movwf	??_program_1& (0+255),b
   776   001848  0E55               	movlw	85
   777   00184A                     u4197:
   778   00184A  2EE8               	decfsz	wreg,f,c
   779   00184C  D7FE               	bra	u4197
   780   00184E  2F62               	decfsz	??_program_1& (0+255),f,b
   781   001850  D7FC               	bra	u4197
   782   001852  2F63               	decfsz	(??_program_1+1)& (0+255),f,b
   783   001854  D7FA               	bra	u4197
   784   001856  F000 F000          	nop2	
   785   00185A  0012               	return		;funcret
   786   00185C                     __end_of_program_1:
   787                           	callstack 0
   788                           
   789 ;; *************** function _led_turn_on *****************
   790 ;; Defined at:
   791 ;;		line 44 in file "ECU_Layer/LED/ecu_led.c"
   792 ;; Parameters:    Size  Location     Type
   793 ;;  led             1   14[COMRAM] PTR const struct .
   794 ;;		 -> led_2(1), led_1(1), 
   795 ;; Auto vars:     Size  Location     Type
   796 ;;  pin_obj         1    1[BANK0 ] struct .
   797 ;;  ret             1    0        unsigned char 
   798 ;; Return value:  Size  Location     Type
   799 ;;                  1    wreg      unsigned char 
   800 ;; Registers used:
   801 ;;		wreg, fsr2l, fsr2h, status,2, status,0, prodl, prodh, cstack
   802 ;; Tracked objects:
   803 ;;		On entry : 0/0
   804 ;;		On exit  : 0/0
   805 ;;		Unchanged: 0/0
   806 ;; Data sizes:     COMRAM   BANK0   BANK1   BANK2   BANK3   BANK4   BANK5   BANK6   BANK7   BANK8   BANK9  BANK10  BANK1
      +1  BANK12  BANK13  BANK14  BANK15
   807 ;;      Params:         1       0       0       0       0       0       0       0       0       0       0       0       
      +0       0       0       0       0
   808 ;;      Locals:         0       1       0       0       0       0       0       0       0       0       0       0       
      +0       0       0       0       0
   809 ;;      Temps:          0       1       0       0       0       0       0       0       0       0       0       0       
      +0       0       0       0       0
   810 ;;      Totals:         1       2       0       0       0       0       0       0       0       0       0       0       
      +0       0       0       0       0
   811 ;;Total ram usage:        3 bytes
   812 ;; Hardware stack levels used: 1
   813 ;; Hardware stack levels required when called: 5
   814 ;; This function calls:
   815 ;;		_gpio_pin_write_logic
   816 ;; This function is called by:
   817 ;;		_program_1
   818 ;;		_program_2
   819 ;; This function uses a non-reentrant model
   820 ;;
   821                           
   822                           	psect	text3
   823   001554                     __ptext3:
   824                           	callstack 0
   825   001554                     _led_turn_on:
   826                           	callstack 24
   827   001554                     
   828                           ;ECU_Layer/LED/ecu_led.c: 46:     if (led == ((void*)0))
   829   001554  5057               	movf	led_turn_on@led^0,w,c
   830   001556  A4D8               	btfss	status,2,c
   831   001558  EFB0  F00A         	goto	u3421
   832   00155C  EFB2  F00A         	goto	u3420
   833   001560                     u3421:
   834   001560  EFB4  F00A         	goto	l293
   835   001564                     u3420:
   836   001564                     
   837                           ;ECU_Layer/LED/ecu_led.c: 49:     }
   838   001564  EFE0  F00A         	goto	l297
   839   001568                     l293:
   840                           
   841                           ;ECU_Layer/LED/ecu_led.c: 51:     {;ECU_Layer/LED/ecu_led.c: 52:         pin_config_t pi
      +                          n_obj = {
   842   001568  C046  F061         	movff	led_turn_on@F3315,led_turn_on@pin_obj
   843   00156C  5057               	movf	led_turn_on@led^0,w,c
   844   00156E  6ED9               	movwf	fsr2l,c
   845   001570  6ADA               	clrf	fsr2h,c
   846   001572  50DF               	movf	223,w,c
   847   001574  0B0F               	andlw	15
   848   001576  0100               	movlb	0	; () banked
   849   001578  6F60               	movwf	??_led_turn_on& (0+255),b
   850   00157A  5161               	movf	led_turn_on@pin_obj& (0+255),w,b
   851   00157C  1960               	xorwf	??_led_turn_on& (0+255),w,b
   852   00157E  0BF8               	andlw	-8
   853   001580  1960               	xorwf	??_led_turn_on& (0+255),w,b
   854   001582  6F61               	movwf	led_turn_on@pin_obj& (0+255),b
   855   001584  5057               	movf	led_turn_on@led^0,w,c
   856   001586  6ED9               	movwf	fsr2l,c
   857   001588  6ADA               	clrf	fsr2h,c
   858   00158A  38DF               	swapf	223,w,c
   859   00158C  0B07               	andlw	7
   860   00158E  6F60               	movwf	??_led_turn_on& (0+255),b
   861   001590  4760               	rlncf	??_led_turn_on& (0+255),f,b
   862   001592  4760               	rlncf	??_led_turn_on& (0+255),f,b
   863   001594  4760               	rlncf	??_led_turn_on& (0+255),f,b
   864   001596  5161               	movf	led_turn_on@pin_obj& (0+255),w,b
   865   001598  1960               	xorwf	??_led_turn_on& (0+255),w,b
   866   00159A  0BC7               	andlw	-57
   867   00159C  1960               	xorwf	??_led_turn_on& (0+255),w,b
   868   00159E  6F61               	movwf	led_turn_on@pin_obj& (0+255),b
   869   0015A0                     
   870                           ; BSR set to: 0
   871   0015A0  9D61               	bcf	led_turn_on@pin_obj& (0+255),6,b
   872   0015A2                     
   873                           ; BSR set to: 0
   874   0015A2  5057               	movf	led_turn_on@led^0,w,c
   875   0015A4  6ED9               	movwf	fsr2l,c
   876   0015A6  6ADA               	clrf	fsr2h,c
   877   0015A8  AEDF               	btfss	indf2,7,c
   878   0015AA  D002               	bra	u3435
   879   0015AC  8F61               	bsf	led_turn_on@pin_obj& (0+255),7,b
   880   0015AE  D002               	bra	u3437
   881   0015B0                     u3435:
   882   0015B0  0100               	movlb	0	; () banked
   883   0015B2  9F61               	bcf	led_turn_on@pin_obj& (0+255),7,b
   884   0015B4                     u3437:
   885   0015B4                     
   886                           ; BSR set to: 0
   887                           ;ECU_Layer/LED/ecu_led.c: 58:         gpio_pin_write_logic(&pin_obj, GPIO_HIGH);
   888   0015B4  0E61               	movlw	low led_turn_on@pin_obj
   889   0015B6  6E4F               	movwf	gpio_pin_write_logic@_pin_config^0,c
   890   0015B8  0E01               	movlw	1
   891   0015BA  6E50               	movwf	gpio_pin_write_logic@logic^0,c
   892   0015BC  EC1E  F009         	call	_gpio_pin_write_logic	;wreg free
   893   0015C0                     l297:
   894   0015C0  0012               	return		;funcret
   895   0015C2                     __end_of_led_turn_on:
   896                           	callstack 0
   897                           
   898 ;; *************** function _led_turn_off *****************
   899 ;; Defined at:
   900 ;;		line 72 in file "ECU_Layer/LED/ecu_led.c"
   901 ;; Parameters:    Size  Location     Type
   902 ;;  led             1   14[COMRAM] PTR const struct .
   903 ;;		 -> led_2(1), led_1(1), 
   904 ;; Auto vars:     Size  Location     Type
   905 ;;  pin_obj         1    1[BANK0 ] struct .
   906 ;;  ret             1    0        unsigned char 
   907 ;; Return value:  Size  Location     Type
   908 ;;                  1    wreg      unsigned char 
   909 ;; Registers used:
   910 ;;		wreg, fsr2l, fsr2h, status,2, status,0, prodl, prodh, cstack
   911 ;; Tracked objects:
   912 ;;		On entry : 0/0
   913 ;;		On exit  : 0/0
   914 ;;		Unchanged: 0/0
   915 ;; Data sizes:     COMRAM   BANK0   BANK1   BANK2   BANK3   BANK4   BANK5   BANK6   BANK7   BANK8   BANK9  BANK10  BANK1
      +1  BANK12  BANK13  BANK14  BANK15
   916 ;;      Params:         1       0       0       0       0       0       0       0       0       0       0       0       
      +0       0       0       0       0
   917 ;;      Locals:         0       1       0       0       0       0       0       0       0       0       0       0       
      +0       0       0       0       0
   918 ;;      Temps:          0       1       0       0       0       0       0       0       0       0       0       0       
      +0       0       0       0       0
   919 ;;      Totals:         1       2       0       0       0       0       0       0       0       0       0       0       
      +0       0       0       0       0
   920 ;;Total ram usage:        3 bytes
   921 ;; Hardware stack levels used: 1
   922 ;; Hardware stack levels required when called: 5
   923 ;; This function calls:
   924 ;;		_gpio_pin_write_logic
   925 ;; This function is called by:
   926 ;;		_main
   927 ;;		_program_1
   928 ;;		_program_2
   929 ;; This function uses a non-reentrant model
   930 ;;
   931                           
   932                           	psect	text4
   933   0015C2                     __ptext4:
   934                           	callstack 0
   935   0015C2                     _led_turn_off:
   936                           	callstack 24
   937   0015C2                     
   938                           ;ECU_Layer/LED/ecu_led.c: 74:     if (led == ((void*)0))
   939   0015C2  5057               	movf	led_turn_off@led^0,w,c
   940   0015C4  A4D8               	btfss	status,2,c
   941   0015C6  EFE7  F00A         	goto	u3441
   942   0015CA  EFE9  F00A         	goto	u3440
   943   0015CE                     u3441:
   944   0015CE  EFEB  F00A         	goto	l300
   945   0015D2                     u3440:
   946   0015D2                     
   947                           ;ECU_Layer/LED/ecu_led.c: 77:     }
   948   0015D2  EF17  F00B         	goto	l304
   949   0015D6                     l300:
   950                           
   951                           ;ECU_Layer/LED/ecu_led.c: 79:     {;ECU_Layer/LED/ecu_led.c: 80:         pin_config_t pi
      +                          n_obj = {
   952   0015D6  C045  F061         	movff	led_turn_off@F3320,led_turn_off@pin_obj
   953   0015DA  5057               	movf	led_turn_off@led^0,w,c
   954   0015DC  6ED9               	movwf	fsr2l,c
   955   0015DE  6ADA               	clrf	fsr2h,c
   956   0015E0  50DF               	movf	223,w,c
   957   0015E2  0B0F               	andlw	15
   958   0015E4  0100               	movlb	0	; () banked
   959   0015E6  6F60               	movwf	??_led_turn_off& (0+255),b
   960   0015E8  5161               	movf	led_turn_off@pin_obj& (0+255),w,b
   961   0015EA  1960               	xorwf	??_led_turn_off& (0+255),w,b
   962   0015EC  0BF8               	andlw	-8
   963   0015EE  1960               	xorwf	??_led_turn_off& (0+255),w,b
   964   0015F0  6F61               	movwf	led_turn_off@pin_obj& (0+255),b
   965   0015F2  5057               	movf	led_turn_off@led^0,w,c
   966   0015F4  6ED9               	movwf	fsr2l,c
   967   0015F6  6ADA               	clrf	fsr2h,c
   968   0015F8  38DF               	swapf	223,w,c
   969   0015FA  0B07               	andlw	7
   970   0015FC  6F60               	movwf	??_led_turn_off& (0+255),b
   971   0015FE  4760               	rlncf	??_led_turn_off& (0+255),f,b
   972   001600  4760               	rlncf	??_led_turn_off& (0+255),f,b
   973   001602  4760               	rlncf	??_led_turn_off& (0+255),f,b
   974   001604  5161               	movf	led_turn_off@pin_obj& (0+255),w,b
   975   001606  1960               	xorwf	??_led_turn_off& (0+255),w,b
   976   001608  0BC7               	andlw	-57
   977   00160A  1960               	xorwf	??_led_turn_off& (0+255),w,b
   978   00160C  6F61               	movwf	led_turn_off@pin_obj& (0+255),b
   979   00160E                     
   980                           ; BSR set to: 0
   981   00160E  9D61               	bcf	led_turn_off@pin_obj& (0+255),6,b
   982   001610                     
   983                           ; BSR set to: 0
   984   001610  5057               	movf	led_turn_off@led^0,w,c
   985   001612  6ED9               	movwf	fsr2l,c
   986   001614  6ADA               	clrf	fsr2h,c
   987   001616  AEDF               	btfss	indf2,7,c
   988   001618  D002               	bra	u3455
   989   00161A  8F61               	bsf	led_turn_off@pin_obj& (0+255),7,b
   990   00161C  D002               	bra	u3457
   991   00161E                     u3455:
   992   00161E  0100               	movlb	0	; () banked
   993   001620  9F61               	bcf	led_turn_off@pin_obj& (0+255),7,b
   994   001622                     u3457:
   995   001622                     
   996                           ; BSR set to: 0
   997                           ;ECU_Layer/LED/ecu_led.c: 86:         gpio_pin_write_logic(&pin_obj, GPIO_LOW);
   998   001622  0E61               	movlw	low led_turn_off@pin_obj
   999   001624  6E4F               	movwf	gpio_pin_write_logic@_pin_config^0,c
  1000   001626  0E00               	movlw	0
  1001   001628  6E50               	movwf	gpio_pin_write_logic@logic^0,c
  1002   00162A  EC1E  F009         	call	_gpio_pin_write_logic	;wreg free
  1003   00162E                     l304:
  1004   00162E  0012               	return		;funcret
  1005   001630                     __end_of_led_turn_off:
  1006                           	callstack 0
  1007                           
  1008 ;; *************** function _led_initialize *****************
  1009 ;; Defined at:
  1010 ;;		line 17 in file "ECU_Layer/LED/ecu_led.c"
  1011 ;; Parameters:    Size  Location     Type
  1012 ;;  led             1    2[BANK0 ] PTR const struct .
  1013 ;;		 -> led_2(1), led_1(1), 
  1014 ;; Auto vars:     Size  Location     Type
  1015 ;;  pin_obj         1    5[BANK0 ] struct .
  1016 ;;  ret             1    4[BANK0 ] unsigned char 
  1017 ;; Return value:  Size  Location     Type
  1018 ;;                  1    wreg      unsigned char 
  1019 ;; Registers used:
  1020 ;;		wreg, fsr2l, fsr2h, status,2, status,0, prodl, prodh, cstack
  1021 ;; Tracked objects:
  1022 ;;		On entry : 0/0
  1023 ;;		On exit  : 0/0
  1024 ;;		Unchanged: 0/0
  1025 ;; Data sizes:     COMRAM   BANK0   BANK1   BANK2   BANK3   BANK4   BANK5   BANK6   BANK7   BANK8   BANK9  BANK10  BANK1
      +1  BANK12  BANK13  BANK14  BANK15
  1026 ;;      Params:         0       1       0       0       0       0       0       0       0       0       0       0       
      +0       0       0       0       0
  1027 ;;      Locals:         0       2       0       0       0       0       0       0       0       0       0       0       
      +0       0       0       0       0
  1028 ;;      Temps:          0       1       0       0       0       0       0       0       0       0       0       0       
      +0       0       0       0       0
  1029 ;;      Totals:         0       4       0       0       0       0       0       0       0       0       0       0       
      +0       0       0       0       0
  1030 ;;Total ram usage:        4 bytes
  1031 ;; Hardware stack levels used: 1
  1032 ;; Hardware stack levels required when called: 6
  1033 ;; This function calls:
  1034 ;;		_gpio_pin_intialize
  1035 ;; This function is called by:
  1036 ;;		_main
  1037 ;; This function uses a non-reentrant model
  1038 ;;
  1039                           
  1040                           	psect	text5
  1041   00146C                     __ptext5:
  1042                           	callstack 0
  1043   00146C                     _led_initialize:
  1044                           	callstack 24
  1045   00146C                     
  1046                           ;ECU_Layer/LED/ecu_led.c: 18:     Std_ReturnType ret = (Std_ReturnType)0x01;
  1047   00146C  0E01               	movlw	1
  1048   00146E  0100               	movlb	0	; () banked
  1049   001470  6F64               	movwf	led_initialize@ret& (0+255),b
  1050                           
  1051                           ;ECU_Layer/LED/ecu_led.c: 20:     if (led == ((void*)0))
  1052   001472  5162               	movf	led_initialize@led& (0+255),w,b
  1053   001474  A4D8               	btfss	status,2,c
  1054   001476  EF3F  F00A         	goto	u3641
  1055   00147A  EF41  F00A         	goto	u3640
  1056   00147E                     u3641:
  1057   00147E  EF45  F00A         	goto	l286
  1058   001482                     u3640:
  1059   001482                     
  1060                           ; BSR set to: 0
  1061                           ;ECU_Layer/LED/ecu_led.c: 21:     {;ECU_Layer/LED/ecu_led.c: 22:         ret = (Std_Retu
      +                          rnType)0x00;
  1062   001482  0E00               	movlw	0
  1063   001484  6F64               	movwf	led_initialize@ret& (0+255),b
  1064                           
  1065                           ;ECU_Layer/LED/ecu_led.c: 23:     }
  1066   001486  EF6E  F00A         	goto	l4351
  1067   00148A                     l286:
  1068                           
  1069                           ; BSR set to: 0
  1070                           ;ECU_Layer/LED/ecu_led.c: 25:     {;ECU_Layer/LED/ecu_led.c: 26:         pin_config_t pi
      +                          n_obj = {
  1071   00148A  C047  F065         	movff	led_initialize@F3310,led_initialize@pin_obj
  1072   00148E                     
  1073                           ; BSR set to: 0
  1074   00148E  5162               	movf	led_initialize@led& (0+255),w,b
  1075   001490  6ED9               	movwf	fsr2l,c
  1076   001492  6ADA               	clrf	fsr2h,c
  1077   001494  50DF               	movf	223,w,c
  1078   001496  0B0F               	andlw	15
  1079   001498  6F63               	movwf	??_led_initialize& (0+255),b
  1080   00149A  5165               	movf	led_initialize@pin_obj& (0+255),w,b
  1081   00149C  1963               	xorwf	??_led_initialize& (0+255),w,b
  1082   00149E  0BF8               	andlw	-8
  1083   0014A0  1963               	xorwf	??_led_initialize& (0+255),w,b
  1084   0014A2  6F65               	movwf	led_initialize@pin_obj& (0+255),b
  1085   0014A4  5162               	movf	led_initialize@led& (0+255),w,b
  1086   0014A6  6ED9               	movwf	fsr2l,c
  1087   0014A8  6ADA               	clrf	fsr2h,c
  1088   0014AA  38DF               	swapf	223,w,c
  1089   0014AC  0B07               	andlw	7
  1090   0014AE  6F63               	movwf	??_led_initialize& (0+255),b
  1091   0014B0  4763               	rlncf	??_led_initialize& (0+255),f,b
  1092   0014B2  4763               	rlncf	??_led_initialize& (0+255),f,b
  1093   0014B4  4763               	rlncf	??_led_initialize& (0+255),f,b
  1094   0014B6  5165               	movf	led_initialize@pin_obj& (0+255),w,b
  1095   0014B8  1963               	xorwf	??_led_initialize& (0+255),w,b
  1096   0014BA  0BC7               	andlw	-57
  1097   0014BC  1963               	xorwf	??_led_initialize& (0+255),w,b
  1098   0014BE  6F65               	movwf	led_initialize@pin_obj& (0+255),b
  1099   0014C0                     
  1100                           ; BSR set to: 0
  1101   0014C0  9D65               	bcf	led_initialize@pin_obj& (0+255),6,b
  1102   0014C2                     
  1103                           ; BSR set to: 0
  1104   0014C2  5162               	movf	led_initialize@led& (0+255),w,b
  1105   0014C4  6ED9               	movwf	fsr2l,c
  1106   0014C6  6ADA               	clrf	fsr2h,c
  1107   0014C8  AEDF               	btfss	indf2,7,c
  1108   0014CA  D002               	bra	u3655
  1109   0014CC  8F65               	bsf	led_initialize@pin_obj& (0+255),7,b
  1110   0014CE  D002               	bra	u3657
  1111   0014D0                     u3655:
  1112   0014D0  0100               	movlb	0	; () banked
  1113   0014D2  9F65               	bcf	led_initialize@pin_obj& (0+255),7,b
  1114   0014D4                     u3657:
  1115   0014D4                     
  1116                           ; BSR set to: 0
  1117                           ;ECU_Layer/LED/ecu_led.c: 32:         gpio_pin_intialize(&pin_obj);
  1118   0014D4  0E65               	movlw	low led_initialize@pin_obj
  1119   0014D6  6E57               	movwf	gpio_pin_intialize@_pin_config^0,c
  1120   0014D8  EC18  F00B         	call	_gpio_pin_intialize	;wreg free
  1121   0014DC                     l4351:
  1122                           
  1123                           ;ECU_Layer/LED/ecu_led.c: 34:     return ret;
  1124   0014DC  0100               	movlb	0	; () banked
  1125   0014DE  5164               	movf	led_initialize@ret& (0+255),w,b
  1126   0014E0                     
  1127                           ; BSR set to: 0
  1128   0014E0  0012               	return		;funcret
  1129   0014E2                     __end_of_led_initialize:
  1130                           	callstack 0
  1131                           
  1132 ;; *************** function _gpio_pin_intialize *****************
  1133 ;; Defined at:
  1134 ;;		line 167 in file "MCAL_Layer/GPIO/hal_gpio.c"
  1135 ;; Parameters:    Size  Location     Type
  1136 ;;  _pin_config     1   14[COMRAM] PTR const struct .
  1137 ;;		 -> relay_initialize@pin_obj(1), led_initialize@pin_obj(1), 
  1138 ;; Auto vars:     Size  Location     Type
  1139 ;;  ret             1    1[BANK0 ] unsigned char 
  1140 ;; Return value:  Size  Location     Type
  1141 ;;                  1    wreg      unsigned char 
  1142 ;; Registers used:
  1143 ;;		wreg, fsr2l, fsr2h, status,2, status,0, prodl, prodh, cstack
  1144 ;; Tracked objects:
  1145 ;;		On entry : 0/0
  1146 ;;		On exit  : 0/0
  1147 ;;		Unchanged: 0/0
  1148 ;; Data sizes:     COMRAM   BANK0   BANK1   BANK2   BANK3   BANK4   BANK5   BANK6   BANK7   BANK8   BANK9  BANK10  BANK1
      +1  BANK12  BANK13  BANK14  BANK15
  1149 ;;      Params:         1       0       0       0       0       0       0       0       0       0       0       0       
      +0       0       0       0       0
  1150 ;;      Locals:         0       1       0       0       0       0       0       0       0       0       0       0       
      +0       0       0       0       0
  1151 ;;      Temps:          0       1       0       0       0       0       0       0       0       0       0       0       
      +0       0       0       0       0
  1152 ;;      Totals:         1       2       0       0       0       0       0       0       0       0       0       0       
      +0       0       0       0       0
  1153 ;;Total ram usage:        3 bytes
  1154 ;; Hardware stack levels used: 1
  1155 ;; Hardware stack levels required when called: 5
  1156 ;; This function calls:
  1157 ;;		_gpio_pin_direction_intialize
  1158 ;;		_gpio_pin_write_logic
  1159 ;; This function is called by:
  1160 ;;		_led_initialize
  1161 ;;		_seven_segment_intialize
  1162 ;;		_lcd_4bit_initialize
  1163 ;;		_lcd_8bit_initialize
  1164 ;;		_dc_motor_initialize
  1165 ;;		_keypad_initialize
  1166 ;;		_relay_initialize
  1167 ;; This function uses a non-reentrant model
  1168 ;;
  1169                           
  1170                           	psect	text6
  1171   001630                     __ptext6:
  1172                           	callstack 0
  1173   001630                     _gpio_pin_intialize:
  1174                           	callstack 24
  1175   001630                     
  1176                           ;MCAL_Layer/GPIO/hal_gpio.c: 169:     if (((void*)0) == _pin_config || _pin_config->pin 
      +                          > 8 -1)
  1177   001630  5057               	movf	gpio_pin_intialize@_pin_config^0,w,c
  1178   001632  B4D8               	btfsc	status,2,c
  1179   001634  EF1E  F00B         	goto	u3331
  1180   001638  EF20  F00B         	goto	u3330
  1181   00163C                     u3331:
  1182   00163C  EF31  F00B         	goto	l4041
  1183   001640                     u3330:
  1184   001640  5057               	movf	gpio_pin_intialize@_pin_config^0,w,c
  1185   001642  6ED9               	movwf	fsr2l,c
  1186   001644  6ADA               	clrf	fsr2h,c
  1187   001646  30DF               	rrcf	223,w,c
  1188   001648  32E8               	rrcf	wreg,f,c
  1189   00164A  32E8               	rrcf	wreg,f,c
  1190   00164C  0B07               	andlw	7
  1191   00164E  0100               	movlb	0	; () banked
  1192   001650  6F60               	movwf	??_gpio_pin_intialize& (0+255),b
  1193   001652  0E07               	movlw	7
  1194   001654  6560               	cpfsgt	??_gpio_pin_intialize& (0+255),b
  1195   001656  EF2F  F00B         	goto	u3341
  1196   00165A  EF31  F00B         	goto	u3340
  1197   00165E                     u3341:
  1198   00165E  EF36  F00B         	goto	l4043
  1199   001662                     u3340:
  1200   001662                     l4041:
  1201                           
  1202                           ;MCAL_Layer/GPIO/hal_gpio.c: 170:     {;MCAL_Layer/GPIO/hal_gpio.c: 171:         ret = (
      +                          Std_ReturnType)0x00;
  1203   001662  0E00               	movlw	0
  1204   001664  0100               	movlb	0	; () banked
  1205   001666  6F61               	movwf	gpio_pin_intialize@ret& (0+255),b
  1206                           
  1207                           ;MCAL_Layer/GPIO/hal_gpio.c: 172:     }
  1208   001668  EF49  F00B         	goto	l4045
  1209   00166C                     l4043:
  1210                           
  1211                           ; BSR set to: 0
  1212                           ;MCAL_Layer/GPIO/hal_gpio.c: 174:     {;MCAL_Layer/GPIO/hal_gpio.c: 175:         ret = g
      +                          pio_pin_direction_intialize(_pin_config);
  1213   00166C  C057  F04F         	movff	gpio_pin_intialize@_pin_config,gpio_pin_direction_intialize@_pin_config
  1214   001670  EC95  F008         	call	_gpio_pin_direction_intialize	;wreg free
  1215   001674  0100               	movlb	0	; () banked
  1216   001676  6F61               	movwf	gpio_pin_intialize@ret& (0+255),b
  1217                           
  1218                           ;MCAL_Layer/GPIO/hal_gpio.c: 176:         ret = gpio_pin_write_logic(_pin_config , _pin_
      +                          config->logic);
  1219   001678  C057  F04F         	movff	gpio_pin_intialize@_pin_config,gpio_pin_write_logic@_pin_config
  1220   00167C  5057               	movf	gpio_pin_intialize@_pin_config^0,w,c
  1221   00167E  6ED9               	movwf	fsr2l,c
  1222   001680  6ADA               	clrf	fsr2h,c
  1223   001682  0E00               	movlw	0
  1224   001684  BEDF               	btfsc	indf2,7,c
  1225   001686  0E01               	movlw	1
  1226   001688  6E50               	movwf	gpio_pin_write_logic@logic^0,c
  1227   00168A  EC1E  F009         	call	_gpio_pin_write_logic	;wreg free
  1228   00168E  0100               	movlb	0	; () banked
  1229   001690  6F61               	movwf	gpio_pin_intialize@ret& (0+255),b
  1230   001692                     l4045:
  1231                           
  1232                           ; BSR set to: 0
  1233                           ;MCAL_Layer/GPIO/hal_gpio.c: 179:     return ret;
  1234   001692  5161               	movf	gpio_pin_intialize@ret& (0+255),w,b
  1235   001694                     
  1236                           ; BSR set to: 0
  1237   001694  0012               	return		;funcret
  1238   001696                     __end_of_gpio_pin_intialize:
  1239                           	callstack 0
  1240                           
  1241 ;; *************** function _gpio_pin_write_logic *****************
  1242 ;; Defined at:
  1243 ;;		line 84 in file "MCAL_Layer/GPIO/hal_gpio.c"
  1244 ;; Parameters:    Size  Location     Type
  1245 ;;  _pin_config     1    6[COMRAM] PTR const struct .
  1246 ;;		 -> relay_turn_off@pin_obj(1), relay_turn_on@pin_obj(1), relay_initialize@pin_obj(1), led_turn_off@pin_obj(1), 
  1247 ;;		 -> led_turn_on@pin_obj(1), led_initialize@pin_obj(1), 
  1248 ;;  logic           1    7[COMRAM] enum E3230
  1249 ;; Auto vars:     Size  Location     Type
  1250 ;;  ret             1   13[COMRAM] unsigned char 
  1251 ;; Return value:  Size  Location     Type
  1252 ;;                  1    wreg      unsigned char 
  1253 ;; Registers used:
  1254 ;;		wreg, fsr2l, fsr2h, status,2, status,0, prodl, prodh
  1255 ;; Tracked objects:
  1256 ;;		On entry : 0/0
  1257 ;;		On exit  : 0/0
  1258 ;;		Unchanged: 0/0
  1259 ;; Data sizes:     COMRAM   BANK0   BANK1   BANK2   BANK3   BANK4   BANK5   BANK6   BANK7   BANK8   BANK9  BANK10  BANK1
      +1  BANK12  BANK13  BANK14  BANK15
  1260 ;;      Params:         2       0       0       0       0       0       0       0       0       0       0       0       
      +0       0       0       0       0
  1261 ;;      Locals:         1       0       0       0       0       0       0       0       0       0       0       0       
      +0       0       0       0       0
  1262 ;;      Temps:          5       0       0       0       0       0       0       0       0       0       0       0       
      +0       0       0       0       0
  1263 ;;      Totals:         8       0       0       0       0       0       0       0       0       0       0       0       
      +0       0       0       0       0
  1264 ;;Total ram usage:        8 bytes
  1265 ;; Hardware stack levels used: 1
  1266 ;; Hardware stack levels required when called: 4
  1267 ;; This function calls:
  1268 ;;		Nothing
  1269 ;; This function is called by:
  1270 ;;		_led_turn_on
  1271 ;;		_led_turn_off
  1272 ;;		_gpio_pin_intialize
  1273 ;;		_seven_segment_write_number
  1274 ;;		_lcd_4bit_send_command
  1275 ;;		_lcd_4bit_send_char_data
  1276 ;;		_lcd_8bit_send_command
  1277 ;;		_lcd_8bit_send_char_data
  1278 ;;		_lcd_send_4bits
  1279 ;;		_lcd_send_4bits_enable_signal
  1280 ;;		_lcd_send_8bits_enable_signal
  1281 ;;		_dc_motor_move_right
  1282 ;;		_dc_motor_move_left
  1283 ;;		_dc_motor_stop
  1284 ;;		_keypad_get_value
  1285 ;;		_relay_turn_on
  1286 ;;		_relay_turn_off
  1287 ;; This function uses a non-reentrant model
  1288 ;;
  1289                           
  1290                           	psect	text7
  1291   00123C                     __ptext7:
  1292                           	callstack 0
  1293   00123C                     _gpio_pin_write_logic:
  1294                           	callstack 24
  1295   00123C                     
  1296                           ;MCAL_Layer/GPIO/hal_gpio.c: 85:     Std_ReturnType ret = (Std_ReturnType)0x01;
  1297   00123C  0E01               	movlw	1
  1298   00123E  6E56               	movwf	gpio_pin_write_logic@ret^0,c
  1299                           
  1300                           ;MCAL_Layer/GPIO/hal_gpio.c: 86:     if (((void*)0) == _pin_config || _pin_config->pin >
      +                           8 -1)
  1301   001240  504F               	movf	gpio_pin_write_logic@_pin_config^0,w,c
  1302   001242  B4D8               	btfsc	status,2,c
  1303   001244  EF26  F009         	goto	u3211
  1304   001248  EF28  F009         	goto	u3210
  1305   00124C                     u3211:
  1306   00124C  EF38  F009         	goto	l3965
  1307   001250                     u3210:
  1308   001250  504F               	movf	gpio_pin_write_logic@_pin_config^0,w,c
  1309   001252  6ED9               	movwf	fsr2l,c
  1310   001254  6ADA               	clrf	fsr2h,c
  1311   001256  30DF               	rrcf	223,w,c
  1312   001258  32E8               	rrcf	wreg,f,c
  1313   00125A  32E8               	rrcf	wreg,f,c
  1314   00125C  0B07               	andlw	7
  1315   00125E  6E51               	movwf	??_gpio_pin_write_logic^0,c
  1316   001260  0E07               	movlw	7
  1317   001262  6451               	cpfsgt	??_gpio_pin_write_logic^0,c
  1318   001264  EF36  F009         	goto	u3221
  1319   001268  EF38  F009         	goto	u3220
  1320   00126C                     u3221:
  1321   00126C  EF8F  F009         	goto	l3973
  1322   001270                     u3220:
  1323   001270                     l3965:
  1324                           
  1325                           ;MCAL_Layer/GPIO/hal_gpio.c: 87:     {;MCAL_Layer/GPIO/hal_gpio.c: 88:         ret = (St
      +                          d_ReturnType)0x00;
  1326   001270  0E00               	movlw	0
  1327   001272  6E56               	movwf	gpio_pin_write_logic@ret^0,c
  1328                           
  1329                           ;MCAL_Layer/GPIO/hal_gpio.c: 89:     }
  1330   001274  EFA4  F009         	goto	l3975
  1331   001278                     l3967:
  1332                           
  1333                           ;MCAL_Layer/GPIO/hal_gpio.c: 95:                 (*lat_registers[_pin_config->port] &= ~
      +                          ((uint8)1<<_pin_config->pin));
  1334   001278  504F               	movf	gpio_pin_write_logic@_pin_config^0,w,c
  1335   00127A  6ED9               	movwf	fsr2l,c
  1336   00127C  6ADA               	clrf	fsr2h,c
  1337   00127E  30DF               	rrcf	223,w,c
  1338   001280  32E8               	rrcf	wreg,f,c
  1339   001282  32E8               	rrcf	wreg,f,c
  1340   001284  0B07               	andlw	7
  1341   001286  6E51               	movwf	??_gpio_pin_write_logic^0,c
  1342   001288  0E01               	movlw	1
  1343   00128A  6E52               	movwf	(??_gpio_pin_write_logic+1)^0,c
  1344   00128C  2A51               	incf	??_gpio_pin_write_logic^0,f,c
  1345   00128E  EF4B  F009         	goto	u3234
  1346   001292                     u3235:
  1347   001292  90D8               	bcf	status,0,c
  1348   001294  3652               	rlcf	(??_gpio_pin_write_logic+1)^0,f,c
  1349   001296                     u3234:
  1350   001296  2E51               	decfsz	??_gpio_pin_write_logic^0,f,c
  1351   001298  EF49  F009         	goto	u3235
  1352   00129C  5052               	movf	(??_gpio_pin_write_logic+1)^0,w,c
  1353   00129E  0AFF               	xorlw	255
  1354   0012A0  6E53               	movwf	(??_gpio_pin_write_logic+2)^0,c
  1355   0012A2  504F               	movf	gpio_pin_write_logic@_pin_config^0,w,c
  1356   0012A4  6ED9               	movwf	fsr2l,c
  1357   0012A6  6ADA               	clrf	fsr2h,c
  1358   0012A8  50DF               	movf	223,w,c
  1359   0012AA  0B07               	andlw	7
  1360   0012AC  0D02               	mullw	2
  1361   0012AE  50F3               	movf	243,w,c
  1362   0012B0  0F0B               	addlw	low _lat_registers
  1363   0012B2  6ED9               	movwf	fsr2l,c
  1364   0012B4  6ADA               	clrf	fsr2h,c
  1365   0012B6  CFDE F054          	movff	postinc2,??_gpio_pin_write_logic+3
  1366   0012BA  CFDD F055          	movff	postdec2,??_gpio_pin_write_logic+4
  1367   0012BE  C054  FFD9         	movff	??_gpio_pin_write_logic+3,fsr2l
  1368   0012C2  C055  FFDA         	movff	??_gpio_pin_write_logic+4,fsr2h
  1369   0012C6  5053               	movf	(??_gpio_pin_write_logic+2)^0,w,c
  1370   0012C8  16DF               	andwf	indf2,f,c
  1371                           
  1372                           ;MCAL_Layer/GPIO/hal_gpio.c: 96:                 break;
  1373   0012CA  EFA4  F009         	goto	l3975
  1374   0012CE                     l3969:
  1375                           
  1376                           ;MCAL_Layer/GPIO/hal_gpio.c: 98:                 (*lat_registers[_pin_config->port] |= (
      +                          (uint8)1<<_pin_config->pin));
  1377   0012CE  504F               	movf	gpio_pin_write_logic@_pin_config^0,w,c
  1378   0012D0  6ED9               	movwf	fsr2l,c
  1379   0012D2  6ADA               	clrf	fsr2h,c
  1380   0012D4  30DF               	rrcf	223,w,c
  1381   0012D6  32E8               	rrcf	wreg,f,c
  1382   0012D8  32E8               	rrcf	wreg,f,c
  1383   0012DA  0B07               	andlw	7
  1384   0012DC  6E51               	movwf	??_gpio_pin_write_logic^0,c
  1385   0012DE  0E01               	movlw	1
  1386   0012E0  6E52               	movwf	(??_gpio_pin_write_logic+1)^0,c
  1387   0012E2  2A51               	incf	??_gpio_pin_write_logic^0,f,c
  1388   0012E4  EF76  F009         	goto	u3244
  1389   0012E8                     u3245:
  1390   0012E8  90D8               	bcf	status,0,c
  1391   0012EA  3652               	rlcf	(??_gpio_pin_write_logic+1)^0,f,c
  1392   0012EC                     u3244:
  1393   0012EC  2E51               	decfsz	??_gpio_pin_write_logic^0,f,c
  1394   0012EE  EF74  F009         	goto	u3245
  1395   0012F2  504F               	movf	gpio_pin_write_logic@_pin_config^0,w,c
  1396   0012F4  6ED9               	movwf	fsr2l,c
  1397   0012F6  6ADA               	clrf	fsr2h,c
  1398   0012F8  50DF               	movf	223,w,c
  1399   0012FA  0B07               	andlw	7
  1400   0012FC  0D02               	mullw	2
  1401   0012FE  50F3               	movf	243,w,c
  1402   001300  0F0B               	addlw	low _lat_registers
  1403   001302  6ED9               	movwf	fsr2l,c
  1404   001304  6ADA               	clrf	fsr2h,c
  1405   001306  CFDE F053          	movff	postinc2,??_gpio_pin_write_logic+2
  1406   00130A  CFDD F054          	movff	postdec2,??_gpio_pin_write_logic+3
  1407   00130E  C053  FFD9         	movff	??_gpio_pin_write_logic+2,fsr2l
  1408   001312  C054  FFDA         	movff	??_gpio_pin_write_logic+3,fsr2h
  1409   001316  5052               	movf	(??_gpio_pin_write_logic+1)^0,w,c
  1410   001318  12DF               	iorwf	indf2,f,c
  1411                           
  1412                           ;MCAL_Layer/GPIO/hal_gpio.c: 99:                 break;
  1413   00131A  EFA4  F009         	goto	l3975
  1414   00131E                     l3973:
  1415   00131E  5050               	movf	gpio_pin_write_logic@logic^0,w,c
  1416   001320  6E51               	movwf	??_gpio_pin_write_logic^0,c
  1417   001322  6A52               	clrf	(??_gpio_pin_write_logic+1)^0,c
  1418                           
  1419                           ; Switch on 2 bytes has been partitioned into a top level switch of size 1, and 1 sub-sw
      +                          itches
  1420                           ; Switch size 1, requested type "simple"
  1421                           ; Number of cases is 1, Range of values is 0 to 0
  1422                           ; switch strategies available:
  1423                           ; Name         Instructions Cycles
  1424                           ; simple_byte            4     3 (average)
  1425                           ;	Chosen strategy is simple_byte
  1426   001324  5052               	movf	(??_gpio_pin_write_logic+1)^0,w,c
  1427   001326  0A00               	xorlw	0	; case 0
  1428   001328  B4D8               	btfsc	status,2,c
  1429   00132A  EF99  F009         	goto	l4999
  1430   00132E  EF38  F009         	goto	l3965
  1431   001332                     l4999:
  1432                           
  1433                           ; Switch size 1, requested type "simple"
  1434                           ; Number of cases is 2, Range of values is 0 to 1
  1435                           ; switch strategies available:
  1436                           ; Name         Instructions Cycles
  1437                           ; simple_byte            7     4 (average)
  1438                           ;	Chosen strategy is simple_byte
  1439   001332  5051               	movf	??_gpio_pin_write_logic^0,w,c
  1440   001334  0A00               	xorlw	0	; case 0
  1441   001336  B4D8               	btfsc	status,2,c
  1442   001338  EF3C  F009         	goto	l3967
  1443   00133C  0A01               	xorlw	1	; case 1
  1444   00133E  B4D8               	btfsc	status,2,c
  1445   001340  EF67  F009         	goto	l3969
  1446   001344  EF38  F009         	goto	l3965
  1447   001348                     l3975:
  1448                           
  1449                           ;MCAL_Layer/GPIO/hal_gpio.c: 105:     return ret;
  1450   001348  5056               	movf	gpio_pin_write_logic@ret^0,w,c
  1451   00134A  0012               	return		;funcret
  1452   00134C                     __end_of_gpio_pin_write_logic:
  1453                           	callstack 0
  1454                           
  1455 ;; *************** function _Interrupt_INTx_Init *****************
  1456 ;; Defined at:
  1457 ;;		line 47 in file "MCAL_Layer/interrupt/mcal_external_interrupt.c"
  1458 ;; Parameters:    Size  Location     Type
  1459 ;;  int_obj         1    0[BANK0 ] PTR const struct .
  1460 ;;		 -> int0_obj(6), 
  1461 ;; Auto vars:     Size  Location     Type
  1462 ;;  ret             1    1[BANK0 ] unsigned char 
  1463 ;; Return value:  Size  Location     Type
  1464 ;;                  1    wreg      unsigned char 
  1465 ;; Registers used:
  1466 ;;		wreg, fsr2l, fsr2h, status,2, status,0, prodl, prodh, cstack
  1467 ;; Tracked objects:
  1468 ;;		On entry : 0/0
  1469 ;;		On exit  : 0/0
  1470 ;;		Unchanged: 0/0
  1471 ;; Data sizes:     COMRAM   BANK0   BANK1   BANK2   BANK3   BANK4   BANK5   BANK6   BANK7   BANK8   BANK9  BANK10  BANK1
      +1  BANK12  BANK13  BANK14  BANK15
  1472 ;;      Params:         0       1       0       0       0       0       0       0       0       0       0       0       
      +0       0       0       0       0
  1473 ;;      Locals:         0       1       0       0       0       0       0       0       0       0       0       0       
      +0       0       0       0       0
  1474 ;;      Temps:          0       0       0       0       0       0       0       0       0       0       0       0       
      +0       0       0       0       0
  1475 ;;      Totals:         0       2       0       0       0       0       0       0       0       0       0       0       
      +0       0       0       0       0
  1476 ;;Total ram usage:        2 bytes
  1477 ;; Hardware stack levels used: 1
  1478 ;; Hardware stack levels required when called: 6
  1479 ;; This function calls:
  1480 ;;		_Interrupt_INTx_Clear_Flag
  1481 ;;		_Interrupt_INTx_Disable
  1482 ;;		_Interrupt_INTx_Edge_Init
  1483 ;;		_Interrupt_INTx_Enable
  1484 ;;		_Interrupt_INTx_Pin_Init
  1485 ;;		_Interrupt_INTx_SetInterruptHandler
  1486 ;; This function is called by:
  1487 ;;		_main
  1488 ;; This function uses a non-reentrant model
  1489 ;;
  1490                           
  1491                           	psect	text8
  1492   001696                     __ptext8:
  1493                           	callstack 0
  1494   001696                     _Interrupt_INTx_Init:
  1495                           	callstack 24
  1496   001696                     
  1497                           ;MCAL_Layer/interrupt/mcal_external_interrupt.c: 49:     if(((void*)0) == int_obj){
  1498   001696  0100               	movlb	0	; () banked
  1499   001698  5160               	movf	Interrupt_INTx_Init@int_obj& (0+255),w,b
  1500   00169A  A4D8               	btfss	status,2,c
  1501   00169C  EF52  F00B         	goto	u3661
  1502   0016A0  EF54  F00B         	goto	u3660
  1503   0016A4                     u3661:
  1504   0016A4  EF58  F00B         	goto	l4359
  1505   0016A8                     u3660:
  1506   0016A8                     
  1507                           ; BSR set to: 0
  1508                           ;MCAL_Layer/interrupt/mcal_external_interrupt.c: 50:         ret = (Std_ReturnType)0x00;
  1509   0016A8  0E00               	movlw	0
  1510   0016AA  6F61               	movwf	Interrupt_INTx_Init@ret& (0+255),b
  1511                           
  1512                           ;MCAL_Layer/interrupt/mcal_external_interrupt.c: 51:     }
  1513   0016AC  EF7C  F00B         	goto	l4367
  1514   0016B0                     l4359:
  1515                           
  1516                           ; BSR set to: 0
  1517                           ;MCAL_Layer/interrupt/mcal_external_interrupt.c: 54:         ret = Interrupt_INTx_Disabl
      +                          e(int_obj);
  1518   0016B0  C060  F04F         	movff	Interrupt_INTx_Init@int_obj,Interrupt_INTx_Disable@int_obj
  1519   0016B4  EC7E  F00B         	call	_Interrupt_INTx_Disable	;wreg free
  1520   0016B8  0100               	movlb	0	; () banked
  1521   0016BA  6F61               	movwf	Interrupt_INTx_Init@ret& (0+255),b
  1522                           
  1523                           ;MCAL_Layer/interrupt/mcal_external_interrupt.c: 56:         ret |= Interrupt_INTx_Clear
      +                          _Flag(int_obj);
  1524   0016BC  C060  F04F         	movff	Interrupt_INTx_Init@int_obj,Interrupt_INTx_Clear_Flag@int_obj
  1525   0016C0  ECB1  F00B         	call	_Interrupt_INTx_Clear_Flag	;wreg free
  1526   0016C4  0100               	movlb	0	; () banked
  1527   0016C6  1361               	iorwf	Interrupt_INTx_Init@ret& (0+255),f,b
  1528                           
  1529                           ;MCAL_Layer/interrupt/mcal_external_interrupt.c: 58:         ret |= Interrupt_INTx_Edge_
      +                          Init(int_obj);
  1530   0016C8  C060  F04F         	movff	Interrupt_INTx_Init@int_obj,Interrupt_INTx_Edge_Init@int_obj
  1531   0016CC  EC0B  F008         	call	_Interrupt_INTx_Edge_Init	;wreg free
  1532   0016D0  0100               	movlb	0	; () banked
  1533   0016D2  1361               	iorwf	Interrupt_INTx_Init@ret& (0+255),f,b
  1534   0016D4                     
  1535                           ; BSR set to: 0
  1536                           ;MCAL_Layer/interrupt/mcal_external_interrupt.c: 64:         ret |= Interrupt_INTx_Pin_I
      +                          nit(int_obj);
  1537   0016D4  C060  F056         	movff	Interrupt_INTx_Init@int_obj,Interrupt_INTx_Pin_Init@int_obj
  1538   0016D8  EC3A  F00D         	call	_Interrupt_INTx_Pin_Init	;wreg free
  1539   0016DC  0100               	movlb	0	; () banked
  1540   0016DE  1361               	iorwf	Interrupt_INTx_Init@ret& (0+255),f,b
  1541   0016E0                     
  1542                           ; BSR set to: 0
  1543                           ;MCAL_Layer/interrupt/mcal_external_interrupt.c: 66:         ret |= Interrupt_INTx_SetIn
      +                          terruptHandler(int_obj);
  1544   0016E0  C060  F052         	movff	Interrupt_INTx_Init@int_obj,Interrupt_INTx_SetInterruptHandler@int_obj
  1545   0016E4  ECA6  F009         	call	_Interrupt_INTx_SetInterruptHandler	;wreg free
  1546   0016E8  0100               	movlb	0	; () banked
  1547   0016EA  1361               	iorwf	Interrupt_INTx_Init@ret& (0+255),f,b
  1548   0016EC                     
  1549                           ; BSR set to: 0
  1550                           ;MCAL_Layer/interrupt/mcal_external_interrupt.c: 68:         ret |= Interrupt_INTx_Enabl
      +                          e(int_obj);
  1551   0016EC  C060  F04F         	movff	Interrupt_INTx_Init@int_obj,Interrupt_INTx_Enable@int_obj
  1552   0016F0  EC71  F00A         	call	_Interrupt_INTx_Enable	;wreg free
  1553   0016F4  0100               	movlb	0	; () banked
  1554   0016F6  1361               	iorwf	Interrupt_INTx_Init@ret& (0+255),f,b
  1555   0016F8                     l4367:
  1556                           
  1557                           ; BSR set to: 0
  1558                           ;MCAL_Layer/interrupt/mcal_external_interrupt.c: 70:     return ret;
  1559   0016F8  5161               	movf	Interrupt_INTx_Init@ret& (0+255),w,b
  1560   0016FA                     
  1561                           ; BSR set to: 0
  1562   0016FA  0012               	return		;funcret
  1563   0016FC                     __end_of_Interrupt_INTx_Init:
  1564                           	callstack 0
  1565                           
  1566 ;; *************** function _Interrupt_INTx_SetInterruptHandler *****************
  1567 ;; Defined at:
  1568 ;;		line 523 in file "MCAL_Layer/interrupt/mcal_external_interrupt.c"
  1569 ;; Parameters:    Size  Location     Type
  1570 ;;  int_obj         1    9[COMRAM] PTR const struct .
  1571 ;;		 -> int0_obj(6), 
  1572 ;; Auto vars:     Size  Location     Type
  1573 ;;  ret             1   12[COMRAM] unsigned char 
  1574 ;; Return value:  Size  Location     Type
  1575 ;;                  1    wreg      unsigned char 
  1576 ;; Registers used:
  1577 ;;		wreg, fsr2l, fsr2h, status,2, status,0, cstack
  1578 ;; Tracked objects:
  1579 ;;		On entry : 0/0
  1580 ;;		On exit  : 0/0
  1581 ;;		Unchanged: 0/0
  1582 ;; Data sizes:     COMRAM   BANK0   BANK1   BANK2   BANK3   BANK4   BANK5   BANK6   BANK7   BANK8   BANK9  BANK10  BANK1
      +1  BANK12  BANK13  BANK14  BANK15
  1583 ;;      Params:         1       0       0       0       0       0       0       0       0       0       0       0       
      +0       0       0       0       0
  1584 ;;      Locals:         1       0       0       0       0       0       0       0       0       0       0       0       
      +0       0       0       0       0
  1585 ;;      Temps:          2       0       0       0       0       0       0       0       0       0       0       0       
      +0       0       0       0       0
  1586 ;;      Totals:         4       0       0       0       0       0       0       0       0       0       0       0       
      +0       0       0       0       0
  1587 ;;Total ram usage:        4 bytes
  1588 ;; Hardware stack levels used: 1
  1589 ;; Hardware stack levels required when called: 5
  1590 ;; This function calls:
  1591 ;;		_INT0_SetInterruptHandler
  1592 ;;		_INT1_SetInterruptHandler
  1593 ;;		_INT2_SetInterruptHandler
  1594 ;; This function is called by:
  1595 ;;		_Interrupt_INTx_Init
  1596 ;; This function uses a non-reentrant model
  1597 ;;
  1598                           
  1599                           	psect	text9
  1600   00134C                     __ptext9:
  1601                           	callstack 0
  1602   00134C                     _Interrupt_INTx_SetInterruptHandler:
  1603                           	callstack 24
  1604   00134C                     
  1605                           ;MCAL_Layer/interrupt/mcal_external_interrupt.c: 525:     if (((void*)0) == int_obj)
  1606   00134C  5052               	movf	Interrupt_INTx_SetInterruptHandler@int_obj^0,w,c
  1607   00134E  A4D8               	btfss	status,2,c
  1608   001350  EFAC  F009         	goto	u3561
  1609   001354  EFAE  F009         	goto	u3560
  1610   001358                     u3561:
  1611   001358  EFD6  F009         	goto	l4251
  1612   00135C                     u3560:
  1613   00135C                     l4241:
  1614                           
  1615                           ;MCAL_Layer/interrupt/mcal_external_interrupt.c: 526:     {;MCAL_Layer/interrupt/mcal_ex
      +                          ternal_interrupt.c: 527:         ret = (Std_ReturnType)0x00;
  1616   00135C  0E00               	movlw	0
  1617   00135E  6E55               	movwf	Interrupt_INTx_SetInterruptHandler@ret^0,c
  1618                           
  1619                           ;MCAL_Layer/interrupt/mcal_external_interrupt.c: 528:     }
  1620   001360  EFF4  F009         	goto	l4253
  1621   001364                     l4243:
  1622                           
  1623                           ;MCAL_Layer/interrupt/mcal_external_interrupt.c: 533:                 ret = INT0_SetInte
      +                          rruptHandler(int_obj->EXT_InterruptHandler);
  1624   001364  5052               	movf	Interrupt_INTx_SetInterruptHandler@int_obj^0,w,c
  1625   001366  6ED9               	movwf	fsr2l,c
  1626   001368  6ADA               	clrf	fsr2h,c
  1627   00136A  CFDE F04F          	movff	postinc2,INT0_SetInterruptHandler@InterruptHandler
  1628   00136E  CFDD F050          	movff	postdec2,INT0_SetInterruptHandler@InterruptHandler+1
  1629   001372  EC25  F00D         	call	_INT0_SetInterruptHandler	;wreg free
  1630   001376  6E55               	movwf	Interrupt_INTx_SetInterruptHandler@ret^0,c
  1631                           
  1632                           ;MCAL_Layer/interrupt/mcal_external_interrupt.c: 534:                 break;
  1633   001378  EFF4  F009         	goto	l4253
  1634   00137C                     l4245:
  1635                           
  1636                           ;MCAL_Layer/interrupt/mcal_external_interrupt.c: 536:                 ret = INT1_SetInte
      +                          rruptHandler(int_obj->EXT_InterruptHandler);
  1637   00137C  5052               	movf	Interrupt_INTx_SetInterruptHandler@int_obj^0,w,c
  1638   00137E  6ED9               	movwf	fsr2l,c
  1639   001380  6ADA               	clrf	fsr2h,c
  1640   001382  CFDE F04F          	movff	postinc2,INT1_SetInterruptHandler@InterruptHandler
  1641   001386  CFDD F050          	movff	postdec2,INT1_SetInterruptHandler@InterruptHandler+1
  1642   00138A  EC10  F00D         	call	_INT1_SetInterruptHandler	;wreg free
  1643   00138E  6E55               	movwf	Interrupt_INTx_SetInterruptHandler@ret^0,c
  1644                           
  1645                           ;MCAL_Layer/interrupt/mcal_external_interrupt.c: 537:                 break;
  1646   001390  EFF4  F009         	goto	l4253
  1647   001394                     l4247:
  1648                           
  1649                           ;MCAL_Layer/interrupt/mcal_external_interrupt.c: 539:                 ret = INT2_SetInte
      +                          rruptHandler(int_obj->EXT_InterruptHandler);
  1650   001394  5052               	movf	Interrupt_INTx_SetInterruptHandler@int_obj^0,w,c
  1651   001396  6ED9               	movwf	fsr2l,c
  1652   001398  6ADA               	clrf	fsr2h,c
  1653   00139A  CFDE F04F          	movff	postinc2,INT2_SetInterruptHandler@InterruptHandler
  1654   00139E  CFDD F050          	movff	postdec2,INT2_SetInterruptHandler@InterruptHandler+1
  1655   0013A2  ECFB  F00C         	call	_INT2_SetInterruptHandler	;wreg free
  1656   0013A6  6E55               	movwf	Interrupt_INTx_SetInterruptHandler@ret^0,c
  1657                           
  1658                           ;MCAL_Layer/interrupt/mcal_external_interrupt.c: 540:                 break;
  1659   0013A8  EFF4  F009         	goto	l4253
  1660   0013AC                     l4251:
  1661   0013AC  5052               	movf	Interrupt_INTx_SetInterruptHandler@int_obj^0,w,c
  1662   0013AE  6ED9               	movwf	fsr2l,c
  1663   0013B0  6ADA               	clrf	fsr2h,c
  1664   0013B2  0E04               	movlw	4
  1665   0013B4  26D9               	addwf	fsr2l,f,c
  1666   0013B6  50DF               	movf	indf2,w,c
  1667   0013B8  6E53               	movwf	??_Interrupt_INTx_SetInterruptHandler^0,c
  1668   0013BA  6A54               	clrf	(??_Interrupt_INTx_SetInterruptHandler+1)^0,c
  1669                           
  1670                           ; Switch on 2 bytes has been partitioned into a top level switch of size 1, and 1 sub-sw
      +                          itches
  1671                           ; Switch size 1, requested type "simple"
  1672                           ; Number of cases is 1, Range of values is 0 to 0
  1673                           ; switch strategies available:
  1674                           ; Name         Instructions Cycles
  1675                           ; simple_byte            4     3 (average)
  1676                           ;	Chosen strategy is simple_byte
  1677   0013BC  5054               	movf	(??_Interrupt_INTx_SetInterruptHandler+1)^0,w,c
  1678   0013BE  0A00               	xorlw	0	; case 0
  1679   0013C0  B4D8               	btfsc	status,2,c
  1680   0013C2  EFE5  F009         	goto	l5001
  1681   0013C6  EFAE  F009         	goto	l4241
  1682   0013CA                     l5001:
  1683                           
  1684                           ; Switch size 1, requested type "simple"
  1685                           ; Number of cases is 3, Range of values is 0 to 2
  1686                           ; switch strategies available:
  1687                           ; Name         Instructions Cycles
  1688                           ; simple_byte           10     6 (average)
  1689                           ;	Chosen strategy is simple_byte
  1690   0013CA  5053               	movf	??_Interrupt_INTx_SetInterruptHandler^0,w,c
  1691   0013CC  0A00               	xorlw	0	; case 0
  1692   0013CE  B4D8               	btfsc	status,2,c
  1693   0013D0  EFB2  F009         	goto	l4243
  1694   0013D4  0A01               	xorlw	1	; case 1
  1695   0013D6  B4D8               	btfsc	status,2,c
  1696   0013D8  EFBE  F009         	goto	l4245
  1697   0013DC  0A03               	xorlw	3	; case 2
  1698   0013DE  B4D8               	btfsc	status,2,c
  1699   0013E0  EFCA  F009         	goto	l4247
  1700   0013E4  EFAE  F009         	goto	l4241
  1701   0013E8                     l4253:
  1702                           
  1703                           ;MCAL_Layer/interrupt/mcal_external_interrupt.c: 544:     return ret;
  1704   0013E8  5055               	movf	Interrupt_INTx_SetInterruptHandler@ret^0,w,c
  1705   0013EA  0012               	return		;funcret
  1706   0013EC                     __end_of_Interrupt_INTx_SetInterruptHandler:
  1707                           	callstack 0
  1708                           
  1709 ;; *************** function _INT2_SetInterruptHandler *****************
  1710 ;; Defined at:
  1711 ;;		line 511 in file "MCAL_Layer/interrupt/mcal_external_interrupt.c"
  1712 ;; Parameters:    Size  Location     Type
  1713 ;;  InterruptHan    2    6[COMRAM] PTR FTN()void 
  1714 ;;		 -> APP_CallBack(1), 
  1715 ;; Auto vars:     Size  Location     Type
  1716 ;;  ret             1    8[COMRAM] unsigned char 
  1717 ;; Return value:  Size  Location     Type
  1718 ;;                  1    wreg      unsigned char 
  1719 ;; Registers used:
  1720 ;;		wreg, status,2, status,0
  1721 ;; Tracked objects:
  1722 ;;		On entry : 0/0
  1723 ;;		On exit  : 0/0
  1724 ;;		Unchanged: 0/0
  1725 ;; Data sizes:     COMRAM   BANK0   BANK1   BANK2   BANK3   BANK4   BANK5   BANK6   BANK7   BANK8   BANK9  BANK10  BANK1
      +1  BANK12  BANK13  BANK14  BANK15
  1726 ;;      Params:         2       0       0       0       0       0       0       0       0       0       0       0       
      +0       0       0       0       0
  1727 ;;      Locals:         1       0       0       0       0       0       0       0       0       0       0       0       
      +0       0       0       0       0
  1728 ;;      Temps:          0       0       0       0       0       0       0       0       0       0       0       0       
      +0       0       0       0       0
  1729 ;;      Totals:         3       0       0       0       0       0       0       0       0       0       0       0       
      +0       0       0       0       0
  1730 ;;Total ram usage:        3 bytes
  1731 ;; Hardware stack levels used: 1
  1732 ;; Hardware stack levels required when called: 4
  1733 ;; This function calls:
  1734 ;;		Nothing
  1735 ;; This function is called by:
  1736 ;;		_Interrupt_INTx_SetInterruptHandler
  1737 ;; This function uses a non-reentrant model
  1738 ;;
  1739                           
  1740                           	psect	text10
  1741   0019F6                     __ptext10:
  1742                           	callstack 0
  1743   0019F6                     _INT2_SetInterruptHandler:
  1744                           	callstack 24
  1745   0019F6                     
  1746                           ;MCAL_Layer/interrupt/mcal_external_interrupt.c: 512:     Std_ReturnType ret = (Std_Retu
      +                          rnType)0x01;
  1747   0019F6  0E01               	movlw	1
  1748   0019F8  6E51               	movwf	INT2_SetInterruptHandler@ret^0,c
  1749   0019FA                     
  1750                           ;MCAL_Layer/interrupt/mcal_external_interrupt.c: 513:     if (((void*)0) == InterruptHan
      +                          dler)
  1751   0019FA  504F               	movf	INT2_SetInterruptHandler@InterruptHandler^0,w,c
  1752   0019FC  1050               	iorwf	(INT2_SetInterruptHandler@InterruptHandler+1)^0,w,c
  1753   0019FE  A4D8               	btfss	status,2,c
  1754   001A00  EF04  F00D         	goto	u3321
  1755   001A04  EF06  F00D         	goto	u3320
  1756   001A08                     u3321:
  1757   001A08  EF0A  F00D         	goto	l4031
  1758   001A0C                     u3320:
  1759   001A0C                     
  1760                           ;MCAL_Layer/interrupt/mcal_external_interrupt.c: 514:     {;MCAL_Layer/interrupt/mcal_ex
      +                          ternal_interrupt.c: 515:         ret = (Std_ReturnType)0x00;
  1761   001A0C  0E00               	movlw	0
  1762   001A0E  6E51               	movwf	INT2_SetInterruptHandler@ret^0,c
  1763                           
  1764                           ;MCAL_Layer/interrupt/mcal_external_interrupt.c: 516:     }
  1765   001A10  EF0E  F00D         	goto	l4033
  1766   001A14                     l4031:
  1767                           
  1768                           ;MCAL_Layer/interrupt/mcal_external_interrupt.c: 518:     {;MCAL_Layer/interrupt/mcal_ex
      +                          ternal_interrupt.c: 519:         INT2_InterruptHandler = InterruptHandler;
  1769   001A14  C04F  F03B         	movff	INT2_SetInterruptHandler@InterruptHandler,_INT2_InterruptHandler
  1770   001A18  C050  F03C         	movff	INT2_SetInterruptHandler@InterruptHandler+1,_INT2_InterruptHandler+1
  1771   001A1C                     l4033:
  1772                           
  1773                           ;MCAL_Layer/interrupt/mcal_external_interrupt.c: 521:     return ret;
  1774   001A1C  5051               	movf	INT2_SetInterruptHandler@ret^0,w,c
  1775   001A1E  0012               	return		;funcret
  1776   001A20                     __end_of_INT2_SetInterruptHandler:
  1777                           	callstack 0
  1778                           
  1779 ;; *************** function _INT1_SetInterruptHandler *****************
  1780 ;; Defined at:
  1781 ;;		line 499 in file "MCAL_Layer/interrupt/mcal_external_interrupt.c"
  1782 ;; Parameters:    Size  Location     Type
  1783 ;;  InterruptHan    2    6[COMRAM] PTR FTN()void 
  1784 ;;		 -> APP_CallBack(1), 
  1785 ;; Auto vars:     Size  Location     Type
  1786 ;;  ret             1    8[COMRAM] unsigned char 
  1787 ;; Return value:  Size  Location     Type
  1788 ;;                  1    wreg      unsigned char 
  1789 ;; Registers used:
  1790 ;;		wreg, status,2, status,0
  1791 ;; Tracked objects:
  1792 ;;		On entry : 0/0
  1793 ;;		On exit  : 0/0
  1794 ;;		Unchanged: 0/0
  1795 ;; Data sizes:     COMRAM   BANK0   BANK1   BANK2   BANK3   BANK4   BANK5   BANK6   BANK7   BANK8   BANK9  BANK10  BANK1
      +1  BANK12  BANK13  BANK14  BANK15
  1796 ;;      Params:         2       0       0       0       0       0       0       0       0       0       0       0       
      +0       0       0       0       0
  1797 ;;      Locals:         1       0       0       0       0       0       0       0       0       0       0       0       
      +0       0       0       0       0
  1798 ;;      Temps:          0       0       0       0       0       0       0       0       0       0       0       0       
      +0       0       0       0       0
  1799 ;;      Totals:         3       0       0       0       0       0       0       0       0       0       0       0       
      +0       0       0       0       0
  1800 ;;Total ram usage:        3 bytes
  1801 ;; Hardware stack levels used: 1
  1802 ;; Hardware stack levels required when called: 4
  1803 ;; This function calls:
  1804 ;;		Nothing
  1805 ;; This function is called by:
  1806 ;;		_Interrupt_INTx_SetInterruptHandler
  1807 ;; This function uses a non-reentrant model
  1808 ;;
  1809                           
  1810                           	psect	text11
  1811   001A20                     __ptext11:
  1812                           	callstack 0
  1813   001A20                     _INT1_SetInterruptHandler:
  1814                           	callstack 24
  1815   001A20                     
  1816                           ;MCAL_Layer/interrupt/mcal_external_interrupt.c: 500:     Std_ReturnType ret = (Std_Retu
      +                          rnType)0x01;
  1817   001A20  0E01               	movlw	1
  1818   001A22  6E51               	movwf	INT1_SetInterruptHandler@ret^0,c
  1819   001A24                     
  1820                           ;MCAL_Layer/interrupt/mcal_external_interrupt.c: 501:     if (((void*)0) == InterruptHan
      +                          dler)
  1821   001A24  504F               	movf	INT1_SetInterruptHandler@InterruptHandler^0,w,c
  1822   001A26  1050               	iorwf	(INT1_SetInterruptHandler@InterruptHandler+1)^0,w,c
  1823   001A28  A4D8               	btfss	status,2,c
  1824   001A2A  EF19  F00D         	goto	u3311
  1825   001A2E  EF1B  F00D         	goto	u3310
  1826   001A32                     u3311:
  1827   001A32  EF1F  F00D         	goto	l4019
  1828   001A36                     u3310:
  1829   001A36                     
  1830                           ;MCAL_Layer/interrupt/mcal_external_interrupt.c: 502:     {;MCAL_Layer/interrupt/mcal_ex
      +                          ternal_interrupt.c: 503:         ret = (Std_ReturnType)0x00;
  1831   001A36  0E00               	movlw	0
  1832   001A38  6E51               	movwf	INT1_SetInterruptHandler@ret^0,c
  1833                           
  1834                           ;MCAL_Layer/interrupt/mcal_external_interrupt.c: 504:     }
  1835   001A3A  EF23  F00D         	goto	l4021
  1836   001A3E                     l4019:
  1837                           
  1838                           ;MCAL_Layer/interrupt/mcal_external_interrupt.c: 506:     {;MCAL_Layer/interrupt/mcal_ex
      +                          ternal_interrupt.c: 507:         INT1_InterruptHandler = InterruptHandler;
  1839   001A3E  C04F  F03D         	movff	INT1_SetInterruptHandler@InterruptHandler,_INT1_InterruptHandler
  1840   001A42  C050  F03E         	movff	INT1_SetInterruptHandler@InterruptHandler+1,_INT1_InterruptHandler+1
  1841   001A46                     l4021:
  1842                           
  1843                           ;MCAL_Layer/interrupt/mcal_external_interrupt.c: 509:     return ret;
  1844   001A46  5051               	movf	INT1_SetInterruptHandler@ret^0,w,c
  1845   001A48  0012               	return		;funcret
  1846   001A4A                     __end_of_INT1_SetInterruptHandler:
  1847                           	callstack 0
  1848                           
  1849 ;; *************** function _INT0_SetInterruptHandler *****************
  1850 ;; Defined at:
  1851 ;;		line 487 in file "MCAL_Layer/interrupt/mcal_external_interrupt.c"
  1852 ;; Parameters:    Size  Location     Type
  1853 ;;  InterruptHan    2    6[COMRAM] PTR FTN()void 
  1854 ;;		 -> APP_CallBack(1), 
  1855 ;; Auto vars:     Size  Location     Type
  1856 ;;  ret             1    8[COMRAM] unsigned char 
  1857 ;; Return value:  Size  Location     Type
  1858 ;;                  1    wreg      unsigned char 
  1859 ;; Registers used:
  1860 ;;		wreg, status,2, status,0
  1861 ;; Tracked objects:
  1862 ;;		On entry : 0/0
  1863 ;;		On exit  : 0/0
  1864 ;;		Unchanged: 0/0
  1865 ;; Data sizes:     COMRAM   BANK0   BANK1   BANK2   BANK3   BANK4   BANK5   BANK6   BANK7   BANK8   BANK9  BANK10  BANK1
      +1  BANK12  BANK13  BANK14  BANK15
  1866 ;;      Params:         2       0       0       0       0       0       0       0       0       0       0       0       
      +0       0       0       0       0
  1867 ;;      Locals:         1       0       0       0       0       0       0       0       0       0       0       0       
      +0       0       0       0       0
  1868 ;;      Temps:          0       0       0       0       0       0       0       0       0       0       0       0       
      +0       0       0       0       0
  1869 ;;      Totals:         3       0       0       0       0       0       0       0       0       0       0       0       
      +0       0       0       0       0
  1870 ;;Total ram usage:        3 bytes
  1871 ;; Hardware stack levels used: 1
  1872 ;; Hardware stack levels required when called: 4
  1873 ;; This function calls:
  1874 ;;		Nothing
  1875 ;; This function is called by:
  1876 ;;		_Interrupt_INTx_SetInterruptHandler
  1877 ;; This function uses a non-reentrant model
  1878 ;;
  1879                           
  1880                           	psect	text12
  1881   001A4A                     __ptext12:
  1882                           	callstack 0
  1883   001A4A                     _INT0_SetInterruptHandler:
  1884                           	callstack 24
  1885   001A4A                     
  1886                           ;MCAL_Layer/interrupt/mcal_external_interrupt.c: 488:     Std_ReturnType ret = (Std_Retu
      +                          rnType)0x01;
  1887   001A4A  0E01               	movlw	1
  1888   001A4C  6E51               	movwf	INT0_SetInterruptHandler@ret^0,c
  1889   001A4E                     
  1890                           ;MCAL_Layer/interrupt/mcal_external_interrupt.c: 489:     if (((void*)0) == InterruptHan
      +                          dler)
  1891   001A4E  504F               	movf	INT0_SetInterruptHandler@InterruptHandler^0,w,c
  1892   001A50  1050               	iorwf	(INT0_SetInterruptHandler@InterruptHandler+1)^0,w,c
  1893   001A52  A4D8               	btfss	status,2,c
  1894   001A54  EF2E  F00D         	goto	u3301
  1895   001A58  EF30  F00D         	goto	u3300
  1896   001A5C                     u3301:
  1897   001A5C  EF34  F00D         	goto	l4007
  1898   001A60                     u3300:
  1899   001A60                     
  1900                           ;MCAL_Layer/interrupt/mcal_external_interrupt.c: 490:     {;MCAL_Layer/interrupt/mcal_ex
      +                          ternal_interrupt.c: 491:         ret = (Std_ReturnType)0x00;
  1901   001A60  0E00               	movlw	0
  1902   001A62  6E51               	movwf	INT0_SetInterruptHandler@ret^0,c
  1903                           
  1904                           ;MCAL_Layer/interrupt/mcal_external_interrupt.c: 492:     }
  1905   001A64  EF38  F00D         	goto	l4009
  1906   001A68                     l4007:
  1907                           
  1908                           ;MCAL_Layer/interrupt/mcal_external_interrupt.c: 494:     {;MCAL_Layer/interrupt/mcal_ex
      +                          ternal_interrupt.c: 495:         INT0_InterruptHandler = InterruptHandler;
  1909   001A68  C04F  F03F         	movff	INT0_SetInterruptHandler@InterruptHandler,_INT0_InterruptHandler
  1910   001A6C  C050  F040         	movff	INT0_SetInterruptHandler@InterruptHandler+1,_INT0_InterruptHandler+1
  1911   001A70                     l4009:
  1912                           
  1913                           ;MCAL_Layer/interrupt/mcal_external_interrupt.c: 497:     return ret;
  1914   001A70  5051               	movf	INT0_SetInterruptHandler@ret^0,w,c
  1915   001A72  0012               	return		;funcret
  1916   001A74                     __end_of_INT0_SetInterruptHandler:
  1917                           	callstack 0
  1918                           
  1919 ;; *************** function _Interrupt_INTx_Pin_Init *****************
  1920 ;; Defined at:
  1921 ;;		line 448 in file "MCAL_Layer/interrupt/mcal_external_interrupt.c"
  1922 ;; Parameters:    Size  Location     Type
  1923 ;;  int_obj         1   13[COMRAM] PTR const struct .
  1924 ;;		 -> int0_obj(6), 
  1925 ;; Auto vars:     Size  Location     Type
  1926 ;;  ret             1   14[COMRAM] unsigned char 
  1927 ;; Return value:  Size  Location     Type
  1928 ;;                  1    wreg      unsigned char 
  1929 ;; Registers used:
  1930 ;;		wreg, fsr2l, fsr2h, status,2, status,0, prodl, prodh, cstack
  1931 ;; Tracked objects:
  1932 ;;		On entry : 0/0
  1933 ;;		On exit  : 0/0
  1934 ;;		Unchanged: 0/0
  1935 ;; Data sizes:     COMRAM   BANK0   BANK1   BANK2   BANK3   BANK4   BANK5   BANK6   BANK7   BANK8   BANK9  BANK10  BANK1
      +1  BANK12  BANK13  BANK14  BANK15
  1936 ;;      Params:         1       0       0       0       0       0       0       0       0       0       0       0       
      +0       0       0       0       0
  1937 ;;      Locals:         1       0       0       0       0       0       0       0       0       0       0       0       
      +0       0       0       0       0
  1938 ;;      Temps:          0       0       0       0       0       0       0       0       0       0       0       0       
      +0       0       0       0       0
  1939 ;;      Totals:         2       0       0       0       0       0       0       0       0       0       0       0       
      +0       0       0       0       0
  1940 ;;Total ram usage:        2 bytes
  1941 ;; Hardware stack levels used: 1
  1942 ;; Hardware stack levels required when called: 5
  1943 ;; This function calls:
  1944 ;;		_gpio_pin_direction_intialize
  1945 ;; This function is called by:
  1946 ;;		_Interrupt_INTx_Init
  1947 ;; This function uses a non-reentrant model
  1948 ;;
  1949                           
  1950                           	psect	text13
  1951   001A74                     __ptext13:
  1952                           	callstack 0
  1953   001A74                     _Interrupt_INTx_Pin_Init:
  1954                           	callstack 24
  1955   001A74                     
  1956                           ;MCAL_Layer/interrupt/mcal_external_interrupt.c: 450:     if(((void*)0) == int_obj){
  1957   001A74  5056               	movf	Interrupt_INTx_Pin_Init@int_obj^0,w,c
  1958   001A76  A4D8               	btfss	status,2,c
  1959   001A78  EF40  F00D         	goto	u3551
  1960   001A7C  EF42  F00D         	goto	u3550
  1961   001A80                     u3551:
  1962   001A80  EF46  F00D         	goto	l4233
  1963   001A84                     u3550:
  1964   001A84                     
  1965                           ;MCAL_Layer/interrupt/mcal_external_interrupt.c: 451:         ret = (Std_ReturnType)0x00
      +                          ;
  1966   001A84  0E00               	movlw	0
  1967   001A86  6E57               	movwf	Interrupt_INTx_Pin_Init@ret^0,c
  1968                           
  1969                           ;MCAL_Layer/interrupt/mcal_external_interrupt.c: 452:     }
  1970   001A88  EF4C  F00D         	goto	l4235
  1971   001A8C                     l4233:
  1972                           
  1973                           ;MCAL_Layer/interrupt/mcal_external_interrupt.c: 455:         ret = gpio_pin_direction_i
      +                          ntialize(&(int_obj->mcu_pin));
  1974   001A8C  5056               	movf	Interrupt_INTx_Pin_Init@int_obj^0,w,c
  1975   001A8E  0F02               	addlw	2
  1976   001A90  6E4F               	movwf	gpio_pin_direction_intialize@_pin_config^0,c
  1977   001A92  EC95  F008         	call	_gpio_pin_direction_intialize	;wreg free
  1978   001A96  6E57               	movwf	Interrupt_INTx_Pin_Init@ret^0,c
  1979   001A98                     l4235:
  1980                           
  1981                           ;MCAL_Layer/interrupt/mcal_external_interrupt.c: 457:     return ret;
  1982   001A98  5057               	movf	Interrupt_INTx_Pin_Init@ret^0,w,c
  1983   001A9A  0012               	return		;funcret
  1984   001A9C                     __end_of_Interrupt_INTx_Pin_Init:
  1985                           	callstack 0
  1986                           
  1987 ;; *************** function _gpio_pin_direction_intialize *****************
  1988 ;; Defined at:
  1989 ;;		line 27 in file "MCAL_Layer/GPIO/hal_gpio.c"
  1990 ;; Parameters:    Size  Location     Type
  1991 ;;  _pin_config     1    6[COMRAM] PTR const struct .
  1992 ;;		 -> int0_obj(6), relay_initialize@pin_obj(1), led_initialize@pin_obj(1), 
  1993 ;; Auto vars:     Size  Location     Type
  1994 ;;  ret             1   12[COMRAM] unsigned char 
  1995 ;; Return value:  Size  Location     Type
  1996 ;;                  1    wreg      unsigned char 
  1997 ;; Registers used:
  1998 ;;		wreg, fsr2l, fsr2h, status,2, status,0, prodl, prodh
  1999 ;; Tracked objects:
  2000 ;;		On entry : 0/0
  2001 ;;		On exit  : 0/0
  2002 ;;		Unchanged: 0/0
  2003 ;; Data sizes:     COMRAM   BANK0   BANK1   BANK2   BANK3   BANK4   BANK5   BANK6   BANK7   BANK8   BANK9  BANK10  BANK1
      +1  BANK12  BANK13  BANK14  BANK15
  2004 ;;      Params:         1       0       0       0       0       0       0       0       0       0       0       0       
      +0       0       0       0       0
  2005 ;;      Locals:         1       0       0       0       0       0       0       0       0       0       0       0       
      +0       0       0       0       0
  2006 ;;      Temps:          5       0       0       0       0       0       0       0       0       0       0       0       
      +0       0       0       0       0
  2007 ;;      Totals:         7       0       0       0       0       0       0       0       0       0       0       0       
      +0       0       0       0       0
  2008 ;;Total ram usage:        7 bytes
  2009 ;; Hardware stack levels used: 1
  2010 ;; Hardware stack levels required when called: 4
  2011 ;; This function calls:
  2012 ;;		Nothing
  2013 ;; This function is called by:
  2014 ;;		_gpio_pin_intialize
  2015 ;;		_Interrupt_INTx_Pin_Init
  2016 ;;		_button_initialize
  2017 ;;		_keypad_initialize
  2018 ;;		_Interrupt_RBx_Init
  2019 ;; This function uses a non-reentrant model
  2020 ;;
  2021                           
  2022                           	psect	text14
  2023   00112A                     __ptext14:
  2024                           	callstack 0
  2025   00112A                     _gpio_pin_direction_intialize:
  2026                           	callstack 24
  2027   00112A                     
  2028                           ;MCAL_Layer/GPIO/hal_gpio.c: 28:     Std_ReturnType ret = (Std_ReturnType)0x01;
  2029   00112A  0E01               	movlw	1
  2030   00112C  6E55               	movwf	gpio_pin_direction_intialize@ret^0,c
  2031                           
  2032                           ;MCAL_Layer/GPIO/hal_gpio.c: 29:     if (((void*)0) == _pin_config || _pin_config->pin >
      +                           8 -1)
  2033   00112E  504F               	movf	gpio_pin_direction_intialize@_pin_config^0,w,c
  2034   001130  B4D8               	btfsc	status,2,c
  2035   001132  EF9D  F008         	goto	u3251
  2036   001136  EF9F  F008         	goto	u3250
  2037   00113A                     u3251:
  2038   00113A  EFAF  F008         	goto	l3987
  2039   00113E                     u3250:
  2040   00113E  504F               	movf	gpio_pin_direction_intialize@_pin_config^0,w,c
  2041   001140  6ED9               	movwf	fsr2l,c
  2042   001142  6ADA               	clrf	fsr2h,c
  2043   001144  30DF               	rrcf	223,w,c
  2044   001146  32E8               	rrcf	wreg,f,c
  2045   001148  32E8               	rrcf	wreg,f,c
  2046   00114A  0B07               	andlw	7
  2047   00114C  6E50               	movwf	??_gpio_pin_direction_intialize^0,c
  2048   00114E  0E07               	movlw	7
  2049   001150  6450               	cpfsgt	??_gpio_pin_direction_intialize^0,c
  2050   001152  EFAD  F008         	goto	u3261
  2051   001156  EFAF  F008         	goto	u3260
  2052   00115A                     u3261:
  2053   00115A  EF06  F009         	goto	l3995
  2054   00115E                     u3260:
  2055   00115E                     l3987:
  2056                           
  2057                           ;MCAL_Layer/GPIO/hal_gpio.c: 30:     {;MCAL_Layer/GPIO/hal_gpio.c: 31:         ret = (St
      +                          d_ReturnType)0x00;
  2058   00115E  0E00               	movlw	0
  2059   001160  6E55               	movwf	gpio_pin_direction_intialize@ret^0,c
  2060                           
  2061                           ;MCAL_Layer/GPIO/hal_gpio.c: 32:     }
  2062   001162  EF1C  F009         	goto	l3997
  2063   001166                     l3989:
  2064                           
  2065                           ;MCAL_Layer/GPIO/hal_gpio.c: 38:                 (*tris_registers[_pin_config->port] &= 
      +                          ~((uint8)1<<_pin_config->pin));
  2066   001166  504F               	movf	gpio_pin_direction_intialize@_pin_config^0,w,c
  2067   001168  6ED9               	movwf	fsr2l,c
  2068   00116A  6ADA               	clrf	fsr2h,c
  2069   00116C  30DF               	rrcf	223,w,c
  2070   00116E  32E8               	rrcf	wreg,f,c
  2071   001170  32E8               	rrcf	wreg,f,c
  2072   001172  0B07               	andlw	7
  2073   001174  6E50               	movwf	??_gpio_pin_direction_intialize^0,c
  2074   001176  0E01               	movlw	1
  2075   001178  6E51               	movwf	(??_gpio_pin_direction_intialize+1)^0,c
  2076   00117A  2A50               	incf	??_gpio_pin_direction_intialize^0,f,c
  2077   00117C  EFC2  F008         	goto	u3274
  2078   001180                     u3275:
  2079   001180  90D8               	bcf	status,0,c
  2080   001182  3651               	rlcf	(??_gpio_pin_direction_intialize+1)^0,f,c
  2081   001184                     u3274:
  2082   001184  2E50               	decfsz	??_gpio_pin_direction_intialize^0,f,c
  2083   001186  EFC0  F008         	goto	u3275
  2084   00118A  5051               	movf	(??_gpio_pin_direction_intialize+1)^0,w,c
  2085   00118C  0AFF               	xorlw	255
  2086   00118E  6E52               	movwf	(??_gpio_pin_direction_intialize+2)^0,c
  2087   001190  504F               	movf	gpio_pin_direction_intialize@_pin_config^0,w,c
  2088   001192  6ED9               	movwf	fsr2l,c
  2089   001194  6ADA               	clrf	fsr2h,c
  2090   001196  50DF               	movf	223,w,c
  2091   001198  0B07               	andlw	7
  2092   00119A  0D02               	mullw	2
  2093   00119C  50F3               	movf	243,w,c
  2094   00119E  0F15               	addlw	low _tris_registers
  2095   0011A0  6ED9               	movwf	fsr2l,c
  2096   0011A2  6ADA               	clrf	fsr2h,c
  2097   0011A4  CFDE F053          	movff	postinc2,??_gpio_pin_direction_intialize+3
  2098   0011A8  CFDD F054          	movff	postdec2,??_gpio_pin_direction_intialize+4
  2099   0011AC  C053  FFD9         	movff	??_gpio_pin_direction_intialize+3,fsr2l
  2100   0011B0  C054  FFDA         	movff	??_gpio_pin_direction_intialize+4,fsr2h
  2101   0011B4  5052               	movf	(??_gpio_pin_direction_intialize+2)^0,w,c
  2102   0011B6  16DF               	andwf	indf2,f,c
  2103                           
  2104                           ;MCAL_Layer/GPIO/hal_gpio.c: 39:                 break;
  2105   0011B8  EF1C  F009         	goto	l3997
  2106   0011BC                     l3991:
  2107                           
  2108                           ;MCAL_Layer/GPIO/hal_gpio.c: 41:                 (*tris_registers[_pin_config->port] |= 
      +                          ((uint8)1<<_pin_config->pin));
  2109   0011BC  504F               	movf	gpio_pin_direction_intialize@_pin_config^0,w,c
  2110   0011BE  6ED9               	movwf	fsr2l,c
  2111   0011C0  6ADA               	clrf	fsr2h,c
  2112   0011C2  30DF               	rrcf	223,w,c
  2113   0011C4  32E8               	rrcf	wreg,f,c
  2114   0011C6  32E8               	rrcf	wreg,f,c
  2115   0011C8  0B07               	andlw	7
  2116   0011CA  6E50               	movwf	??_gpio_pin_direction_intialize^0,c
  2117   0011CC  0E01               	movlw	1
  2118   0011CE  6E51               	movwf	(??_gpio_pin_direction_intialize+1)^0,c
  2119   0011D0  2A50               	incf	??_gpio_pin_direction_intialize^0,f,c
  2120   0011D2  EFED  F008         	goto	u3284
  2121   0011D6                     u3285:
  2122   0011D6  90D8               	bcf	status,0,c
  2123   0011D8  3651               	rlcf	(??_gpio_pin_direction_intialize+1)^0,f,c
  2124   0011DA                     u3284:
  2125   0011DA  2E50               	decfsz	??_gpio_pin_direction_intialize^0,f,c
  2126   0011DC  EFEB  F008         	goto	u3285
  2127   0011E0  504F               	movf	gpio_pin_direction_intialize@_pin_config^0,w,c
  2128   0011E2  6ED9               	movwf	fsr2l,c
  2129   0011E4  6ADA               	clrf	fsr2h,c
  2130   0011E6  50DF               	movf	223,w,c
  2131   0011E8  0B07               	andlw	7
  2132   0011EA  0D02               	mullw	2
  2133   0011EC  50F3               	movf	243,w,c
  2134   0011EE  0F15               	addlw	low _tris_registers
  2135   0011F0  6ED9               	movwf	fsr2l,c
  2136   0011F2  6ADA               	clrf	fsr2h,c
  2137   0011F4  CFDE F052          	movff	postinc2,??_gpio_pin_direction_intialize+2
  2138   0011F8  CFDD F053          	movff	postdec2,??_gpio_pin_direction_intialize+3
  2139   0011FC  C052  FFD9         	movff	??_gpio_pin_direction_intialize+2,fsr2l
  2140   001200  C053  FFDA         	movff	??_gpio_pin_direction_intialize+3,fsr2h
  2141   001204  5051               	movf	(??_gpio_pin_direction_intialize+1)^0,w,c
  2142   001206  12DF               	iorwf	indf2,f,c
  2143                           
  2144                           ;MCAL_Layer/GPIO/hal_gpio.c: 42:                 break;
  2145   001208  EF1C  F009         	goto	l3997
  2146   00120C                     l3995:
  2147   00120C  504F               	movf	gpio_pin_direction_intialize@_pin_config^0,w,c
  2148   00120E  6ED9               	movwf	fsr2l,c
  2149   001210  6ADA               	clrf	fsr2h,c
  2150   001212  BCDF               	btfsc	indf2,6,c
  2151   001214  EF0E  F009         	goto	u3291
  2152   001218  EF11  F009         	goto	u3290
  2153   00121C                     u3291:
  2154   00121C  0E01               	movlw	1
  2155   00121E  EF12  F009         	goto	u3296
  2156   001222                     u3290:
  2157   001222  0E00               	movlw	0
  2158   001224                     u3296:
  2159                           
  2160                           ; Switch size 1, requested type "simple"
  2161                           ; Number of cases is 2, Range of values is 0 to 1
  2162                           ; switch strategies available:
  2163                           ; Name         Instructions Cycles
  2164                           ; simple_byte            7     4 (average)
  2165                           ;	Chosen strategy is simple_byte
  2166   001224  0A00               	xorlw	0	; case 0
  2167   001226  B4D8               	btfsc	status,2,c
  2168   001228  EFB3  F008         	goto	l3989
  2169   00122C  0A01               	xorlw	1	; case 1
  2170   00122E  B4D8               	btfsc	status,2,c
  2171   001230  EFDE  F008         	goto	l3991
  2172   001234  EFAF  F008         	goto	l3987
  2173   001238                     l3997:
  2174                           
  2175                           ;MCAL_Layer/GPIO/hal_gpio.c: 46:     return ret;
  2176   001238  5055               	movf	gpio_pin_direction_intialize@ret^0,w,c
  2177   00123A  0012               	return		;funcret
  2178   00123C                     __end_of_gpio_pin_direction_intialize:
  2179                           	callstack 0
  2180                           
  2181 ;; *************** function _Interrupt_INTx_Enable *****************
  2182 ;; Defined at:
  2183 ;;		line 296 in file "MCAL_Layer/interrupt/mcal_external_interrupt.c"
  2184 ;; Parameters:    Size  Location     Type
  2185 ;;  int_obj         1    6[COMRAM] PTR const struct .
  2186 ;;		 -> int0_obj(6), 
  2187 ;; Auto vars:     Size  Location     Type
  2188 ;;  ret             1    0        unsigned char 
  2189 ;; Return value:  Size  Location     Type
  2190 ;;                  1    wreg      unsigned char 
  2191 ;; Registers used:
  2192 ;;		wreg, fsr2l, fsr2h, status,2, status,0
  2193 ;; Tracked objects:
  2194 ;;		On entry : 0/0
  2195 ;;		On exit  : 0/0
  2196 ;;		Unchanged: 0/0
  2197 ;; Data sizes:     COMRAM   BANK0   BANK1   BANK2   BANK3   BANK4   BANK5   BANK6   BANK7   BANK8   BANK9  BANK10  BANK1
      +1  BANK12  BANK13  BANK14  BANK15
  2198 ;;      Params:         1       0       0       0       0       0       0       0       0       0       0       0       
      +0       0       0       0       0
  2199 ;;      Locals:         0       0       0       0       0       0       0       0       0       0       0       0       
      +0       0       0       0       0
  2200 ;;      Temps:          2       0       0       0       0       0       0       0       0       0       0       0       
      +0       0       0       0       0
  2201 ;;      Totals:         3       0       0       0       0       0       0       0       0       0       0       0       
      +0       0       0       0       0
  2202 ;;Total ram usage:        3 bytes
  2203 ;; Hardware stack levels used: 1
  2204 ;; Hardware stack levels required when called: 4
  2205 ;; This function calls:
  2206 ;;		Nothing
  2207 ;; This function is called by:
  2208 ;;		_Interrupt_INTx_Init
  2209 ;; This function uses a non-reentrant model
  2210 ;;
  2211                           
  2212                           	psect	text15
  2213   0014E2                     __ptext15:
  2214                           	callstack 0
  2215   0014E2                     _Interrupt_INTx_Enable:
  2216                           	callstack 25
  2217   0014E2                     
  2218                           ;MCAL_Layer/interrupt/mcal_external_interrupt.c: 298:     if(((void*)0) == int_obj){
  2219   0014E2  504F               	movf	Interrupt_INTx_Enable@int_obj^0,w,c
  2220   0014E4  A4D8               	btfss	status,2,c
  2221   0014E6  EF77  F00A         	goto	u3571
  2222   0014EA  EF79  F00A         	goto	u3570
  2223   0014EE                     u3571:
  2224   0014EE  EF8A  F00A         	goto	l4267
  2225   0014F2                     u3570:
  2226   0014F2                     l4263:
  2227                           
  2228                           ;MCAL_Layer/interrupt/mcal_external_interrupt.c: 300:     }
  2229   0014F2  EFA8  F00A         	goto	l4269
  2230   0014F6                     l663:
  2231                           
  2232                           ;MCAL_Layer/interrupt/mcal_external_interrupt.c: 308:                 (INTCONbits.GIE = 
      +                          1);
  2233   0014F6  8EF2               	bsf	242,7,c	;volatile
  2234                           
  2235                           ;MCAL_Layer/interrupt/mcal_external_interrupt.c: 309:                 (INTCONbits.PEIE =
      +                           1);
  2236   0014F8  8CF2               	bsf	242,6,c	;volatile
  2237                           
  2238                           ;MCAL_Layer/interrupt/mcal_external_interrupt.c: 311:                 (INTCONbits.INT0IE
      +                           = 1);
  2239   0014FA  88F2               	bsf	242,4,c	;volatile
  2240                           
  2241                           ;MCAL_Layer/interrupt/mcal_external_interrupt.c: 312:                 break;
  2242   0014FC  EFA8  F00A         	goto	l4269
  2243   001500                     l665:
  2244                           
  2245                           ;MCAL_Layer/interrupt/mcal_external_interrupt.c: 324:                 (INTCONbits.GIE = 
      +                          1);
  2246   001500  8EF2               	bsf	242,7,c	;volatile
  2247                           
  2248                           ;MCAL_Layer/interrupt/mcal_external_interrupt.c: 325:                 (INTCONbits.PEIE =
      +                           1);
  2249   001502  8CF2               	bsf	242,6,c	;volatile
  2250                           
  2251                           ;MCAL_Layer/interrupt/mcal_external_interrupt.c: 327:                 (INTCON3bits.INT1I
      +                          E = 1);
  2252   001504  86F0               	bsf	240,3,c	;volatile
  2253                           
  2254                           ;MCAL_Layer/interrupt/mcal_external_interrupt.c: 328:                 break;
  2255   001506  EFA8  F00A         	goto	l4269
  2256   00150A                     l666:
  2257                           
  2258                           ;MCAL_Layer/interrupt/mcal_external_interrupt.c: 340:                 (INTCONbits.GIE = 
      +                          1);
  2259   00150A  8EF2               	bsf	242,7,c	;volatile
  2260                           
  2261                           ;MCAL_Layer/interrupt/mcal_external_interrupt.c: 341:                 (INTCONbits.PEIE =
      +                           1);
  2262   00150C  8CF2               	bsf	242,6,c	;volatile
  2263                           
  2264                           ;MCAL_Layer/interrupt/mcal_external_interrupt.c: 343:                 (INTCON3bits.INT2I
      +                          E = 1);
  2265   00150E  88F0               	bsf	240,4,c	;volatile
  2266                           
  2267                           ;MCAL_Layer/interrupt/mcal_external_interrupt.c: 344:                 break;
  2268   001510  EFA8  F00A         	goto	l4269
  2269   001514                     l4267:
  2270   001514  504F               	movf	Interrupt_INTx_Enable@int_obj^0,w,c
  2271   001516  6ED9               	movwf	fsr2l,c
  2272   001518  6ADA               	clrf	fsr2h,c
  2273   00151A  0E04               	movlw	4
  2274   00151C  26D9               	addwf	fsr2l,f,c
  2275   00151E  50DF               	movf	indf2,w,c
  2276   001520  6E50               	movwf	??_Interrupt_INTx_Enable^0,c
  2277   001522  6A51               	clrf	(??_Interrupt_INTx_Enable+1)^0,c
  2278                           
  2279                           ; Switch on 2 bytes has been partitioned into a top level switch of size 1, and 1 sub-sw
      +                          itches
  2280                           ; Switch size 1, requested type "simple"
  2281                           ; Number of cases is 1, Range of values is 0 to 0
  2282                           ; switch strategies available:
  2283                           ; Name         Instructions Cycles
  2284                           ; simple_byte            4     3 (average)
  2285                           ;	Chosen strategy is simple_byte
  2286   001524  5051               	movf	(??_Interrupt_INTx_Enable+1)^0,w,c
  2287   001526  0A00               	xorlw	0	; case 0
  2288   001528  B4D8               	btfsc	status,2,c
  2289   00152A  EF99  F00A         	goto	l5003
  2290   00152E  EF79  F00A         	goto	l4263
  2291   001532                     l5003:
  2292                           
  2293                           ; Switch size 1, requested type "simple"
  2294                           ; Number of cases is 3, Range of values is 0 to 2
  2295                           ; switch strategies available:
  2296                           ; Name         Instructions Cycles
  2297                           ; simple_byte           10     6 (average)
  2298                           ;	Chosen strategy is simple_byte
  2299   001532  5050               	movf	??_Interrupt_INTx_Enable^0,w,c
  2300   001534  0A00               	xorlw	0	; case 0
  2301   001536  B4D8               	btfsc	status,2,c
  2302   001538  EF7B  F00A         	goto	l663
  2303   00153C  0A01               	xorlw	1	; case 1
  2304   00153E  B4D8               	btfsc	status,2,c
  2305   001540  EF80  F00A         	goto	l665
  2306   001544  0A03               	xorlw	3	; case 2
  2307   001546  B4D8               	btfsc	status,2,c
  2308   001548  EF85  F00A         	goto	l666
  2309   00154C  EF79  F00A         	goto	l4263
  2310   001550                     l4269:
  2311                           
  2312                           ;MCAL_Layer/interrupt/mcal_external_interrupt.c: 348:     return ret;
  2313   001550  0E00               	movlw	0
  2314   001552  0012               	return		;funcret
  2315   001554                     __end_of_Interrupt_INTx_Enable:
  2316                           	callstack 0
  2317                           
  2318 ;; *************** function _Interrupt_INTx_Edge_Init *****************
  2319 ;; Defined at:
  2320 ;;		line 414 in file "MCAL_Layer/interrupt/mcal_external_interrupt.c"
  2321 ;; Parameters:    Size  Location     Type
  2322 ;;  int_obj         1    6[COMRAM] PTR const struct .
  2323 ;;		 -> int0_obj(6), 
  2324 ;; Auto vars:     Size  Location     Type
  2325 ;;  ret             1    0        unsigned char 
  2326 ;; Return value:  Size  Location     Type
  2327 ;;                  1    wreg      unsigned char 
  2328 ;; Registers used:
  2329 ;;		wreg, fsr2l, fsr2h, status,2, status,0
  2330 ;; Tracked objects:
  2331 ;;		On entry : 0/0
  2332 ;;		On exit  : 0/0
  2333 ;;		Unchanged: 0/0
  2334 ;; Data sizes:     COMRAM   BANK0   BANK1   BANK2   BANK3   BANK4   BANK5   BANK6   BANK7   BANK8   BANK9  BANK10  BANK1
      +1  BANK12  BANK13  BANK14  BANK15
  2335 ;;      Params:         1       0       0       0       0       0       0       0       0       0       0       0       
      +0       0       0       0       0
  2336 ;;      Locals:         0       0       0       0       0       0       0       0       0       0       0       0       
      +0       0       0       0       0
  2337 ;;      Temps:          2       0       0       0       0       0       0       0       0       0       0       0       
      +0       0       0       0       0
  2338 ;;      Totals:         3       0       0       0       0       0       0       0       0       0       0       0       
      +0       0       0       0       0
  2339 ;;Total ram usage:        3 bytes
  2340 ;; Hardware stack levels used: 1
  2341 ;; Hardware stack levels required when called: 4
  2342 ;; This function calls:
  2343 ;;		Nothing
  2344 ;; This function is called by:
  2345 ;;		_Interrupt_INTx_Init
  2346 ;; This function uses a non-reentrant model
  2347 ;;
  2348                           
  2349                           	psect	text16
  2350   001016                     __ptext16:
  2351                           	callstack 0
  2352   001016                     _Interrupt_INTx_Edge_Init:
  2353                           	callstack 25
  2354   001016                     
  2355                           ;MCAL_Layer/interrupt/mcal_external_interrupt.c: 416:     if(((void*)0) == int_obj){
  2356   001016  504F               	movf	Interrupt_INTx_Edge_Init@int_obj^0,w,c
  2357   001018  A4D8               	btfss	status,2,c
  2358   00101A  EF11  F008         	goto	u3481
  2359   00101E  EF13  F008         	goto	u3480
  2360   001022                     u3481:
  2361   001022  EF75  F008         	goto	l4219
  2362   001026                     u3480:
  2363   001026                     l4191:
  2364                           
  2365                           ;MCAL_Layer/interrupt/mcal_external_interrupt.c: 418:     }
  2366   001026  EF93  F008         	goto	l4221
  2367   00102A                     l4193:
  2368                           
  2369                           ;MCAL_Layer/interrupt/mcal_external_interrupt.c: 422:                 if(INTERRUPT_FALLI
      +                          NG_EDGE == int_obj->edge){ (INTCON2bits.INTEDG0 = 0); }
  2370   00102A  504F               	movf	Interrupt_INTx_Edge_Init@int_obj^0,w,c
  2371   00102C  6ED9               	movwf	fsr2l,c
  2372   00102E  6ADA               	clrf	fsr2h,c
  2373   001030  0E03               	movlw	3
  2374   001032  26D9               	addwf	fsr2l,f,c
  2375   001034  50DF               	movf	indf2,w,c
  2376   001036  A4D8               	btfss	status,2,c
  2377   001038  EF20  F008         	goto	u3491
  2378   00103C  EF22  F008         	goto	u3490
  2379   001040                     u3491:
  2380   001040  EF25  F008         	goto	l4197
  2381   001044                     u3490:
  2382   001044  9CF1               	bcf	241,6,c	;volatile
  2383   001046  EF93  F008         	goto	l4221
  2384   00104A                     l4197:
  2385   00104A  504F               	movf	Interrupt_INTx_Edge_Init@int_obj^0,w,c
  2386   00104C  6ED9               	movwf	fsr2l,c
  2387   00104E  6ADA               	clrf	fsr2h,c
  2388   001050  0E03               	movlw	3
  2389   001052  26D9               	addwf	fsr2l,f,c
  2390   001054  04DE               	decf	postinc2,w,c
  2391   001056  A4D8               	btfss	status,2,c
  2392   001058  EF30  F008         	goto	u3501
  2393   00105C  EF32  F008         	goto	u3500
  2394   001060                     u3501:
  2395   001060  EF93  F008         	goto	l690
  2396   001064                     u3500:
  2397   001064  8CF1               	bsf	241,6,c	;volatile
  2398   001066  EF93  F008         	goto	l4221
  2399   00106A                     l4201:
  2400                           
  2401                           ;MCAL_Layer/interrupt/mcal_external_interrupt.c: 427:                 if(INTERRUPT_FALLI
      +                          NG_EDGE == int_obj->edge){ (INTCON2bits.INTEDG1 = 0); }
  2402   00106A  504F               	movf	Interrupt_INTx_Edge_Init@int_obj^0,w,c
  2403   00106C  6ED9               	movwf	fsr2l,c
  2404   00106E  6ADA               	clrf	fsr2h,c
  2405   001070  0E03               	movlw	3
  2406   001072  26D9               	addwf	fsr2l,f,c
  2407   001074  50DF               	movf	indf2,w,c
  2408   001076  A4D8               	btfss	status,2,c
  2409   001078  EF40  F008         	goto	u3511
  2410   00107C  EF42  F008         	goto	u3510
  2411   001080                     u3511:
  2412   001080  EF45  F008         	goto	l4205
  2413   001084                     u3510:
  2414   001084  9AF1               	bcf	241,5,c	;volatile
  2415   001086  EF93  F008         	goto	l4221
  2416   00108A                     l4205:
  2417   00108A  504F               	movf	Interrupt_INTx_Edge_Init@int_obj^0,w,c
  2418   00108C  6ED9               	movwf	fsr2l,c
  2419   00108E  6ADA               	clrf	fsr2h,c
  2420   001090  0E03               	movlw	3
  2421   001092  26D9               	addwf	fsr2l,f,c
  2422   001094  04DE               	decf	postinc2,w,c
  2423   001096  A4D8               	btfss	status,2,c
  2424   001098  EF50  F008         	goto	u3521
  2425   00109C  EF52  F008         	goto	u3520
  2426   0010A0                     u3521:
  2427   0010A0  EF93  F008         	goto	l4221
  2428   0010A4                     u3520:
  2429   0010A4  8AF1               	bsf	241,5,c	;volatile
  2430   0010A6  EF93  F008         	goto	l4221
  2431   0010AA                     l4209:
  2432                           
  2433                           ;MCAL_Layer/interrupt/mcal_external_interrupt.c: 432:                 if(INTERRUPT_FALLI
      +                          NG_EDGE == int_obj->edge){ (INTCON2bits.INTEDG2 = 0); }
  2434   0010AA  504F               	movf	Interrupt_INTx_Edge_Init@int_obj^0,w,c
  2435   0010AC  6ED9               	movwf	fsr2l,c
  2436   0010AE  6ADA               	clrf	fsr2h,c
  2437   0010B0  0E03               	movlw	3
  2438   0010B2  26D9               	addwf	fsr2l,f,c
  2439   0010B4  50DF               	movf	indf2,w,c
  2440   0010B6  A4D8               	btfss	status,2,c
  2441   0010B8  EF60  F008         	goto	u3531
  2442   0010BC  EF62  F008         	goto	u3530
  2443   0010C0                     u3531:
  2444   0010C0  EF65  F008         	goto	l4213
  2445   0010C4                     u3530:
  2446   0010C4  98F1               	bcf	241,4,c	;volatile
  2447   0010C6  EF93  F008         	goto	l4221
  2448   0010CA                     l4213:
  2449   0010CA  504F               	movf	Interrupt_INTx_Edge_Init@int_obj^0,w,c
  2450   0010CC  6ED9               	movwf	fsr2l,c
  2451   0010CE  6ADA               	clrf	fsr2h,c
  2452   0010D0  0E03               	movlw	3
  2453   0010D2  26D9               	addwf	fsr2l,f,c
  2454   0010D4  04DE               	decf	postinc2,w,c
  2455   0010D6  A4D8               	btfss	status,2,c
  2456   0010D8  EF70  F008         	goto	u3541
  2457   0010DC  EF72  F008         	goto	u3540
  2458   0010E0                     u3541:
  2459   0010E0  EF93  F008         	goto	l4221
  2460   0010E4                     u3540:
  2461   0010E4  88F1               	bsf	241,4,c	;volatile
  2462   0010E6  EF93  F008         	goto	l4221
  2463   0010EA                     l4219:
  2464   0010EA  504F               	movf	Interrupt_INTx_Edge_Init@int_obj^0,w,c
  2465   0010EC  6ED9               	movwf	fsr2l,c
  2466   0010EE  6ADA               	clrf	fsr2h,c
  2467   0010F0  0E04               	movlw	4
  2468   0010F2  26D9               	addwf	fsr2l,f,c
  2469   0010F4  50DF               	movf	indf2,w,c
  2470   0010F6  6E50               	movwf	??_Interrupt_INTx_Edge_Init^0,c
  2471   0010F8  6A51               	clrf	(??_Interrupt_INTx_Edge_Init+1)^0,c
  2472                           
  2473                           ; Switch on 2 bytes has been partitioned into a top level switch of size 1, and 1 sub-sw
      +                          itches
  2474                           ; Switch size 1, requested type "simple"
  2475                           ; Number of cases is 1, Range of values is 0 to 0
  2476                           ; switch strategies available:
  2477                           ; Name         Instructions Cycles
  2478                           ; simple_byte            4     3 (average)
  2479                           ;	Chosen strategy is simple_byte
  2480   0010FA  5051               	movf	(??_Interrupt_INTx_Edge_Init+1)^0,w,c
  2481   0010FC  0A00               	xorlw	0	; case 0
  2482   0010FE  B4D8               	btfsc	status,2,c
  2483   001100  EF84  F008         	goto	l5005
  2484   001104  EF13  F008         	goto	l4191
  2485   001108                     l5005:
  2486                           
  2487                           ; Switch size 1, requested type "simple"
  2488                           ; Number of cases is 3, Range of values is 0 to 2
  2489                           ; switch strategies available:
  2490                           ; Name         Instructions Cycles
  2491                           ; simple_byte           10     6 (average)
  2492                           ;	Chosen strategy is simple_byte
  2493   001108  5050               	movf	??_Interrupt_INTx_Edge_Init^0,w,c
  2494   00110A  0A00               	xorlw	0	; case 0
  2495   00110C  B4D8               	btfsc	status,2,c
  2496   00110E  EF15  F008         	goto	l4193
  2497   001112  0A01               	xorlw	1	; case 1
  2498   001114  B4D8               	btfsc	status,2,c
  2499   001116  EF35  F008         	goto	l4201
  2500   00111A  0A03               	xorlw	3	; case 2
  2501   00111C  B4D8               	btfsc	status,2,c
  2502   00111E  EF55  F008         	goto	l4209
  2503   001122  EF13  F008         	goto	l4191
  2504   001126                     l690:
  2505   001126                     l4221:
  2506                           
  2507                           ;MCAL_Layer/interrupt/mcal_external_interrupt.c: 439:     return ret;
  2508   001126  0E00               	movlw	0
  2509   001128  0012               	return		;funcret
  2510   00112A                     __end_of_Interrupt_INTx_Edge_Init:
  2511                           	callstack 0
  2512                           
  2513 ;; *************** function _Interrupt_INTx_Disable *****************
  2514 ;; Defined at:
  2515 ;;		line 356 in file "MCAL_Layer/interrupt/mcal_external_interrupt.c"
  2516 ;; Parameters:    Size  Location     Type
  2517 ;;  int_obj         1    6[COMRAM] PTR const struct .
  2518 ;;		 -> int0_obj(6), 
  2519 ;; Auto vars:     Size  Location     Type
  2520 ;;  ret             1    0        unsigned char 
  2521 ;; Return value:  Size  Location     Type
  2522 ;;                  1    wreg      unsigned char 
  2523 ;; Registers used:
  2524 ;;		wreg, fsr2l, fsr2h, status,2, status,0
  2525 ;; Tracked objects:
  2526 ;;		On entry : 0/0
  2527 ;;		On exit  : 0/0
  2528 ;;		Unchanged: 0/0
  2529 ;; Data sizes:     COMRAM   BANK0   BANK1   BANK2   BANK3   BANK4   BANK5   BANK6   BANK7   BANK8   BANK9  BANK10  BANK1
      +1  BANK12  BANK13  BANK14  BANK15
  2530 ;;      Params:         1       0       0       0       0       0       0       0       0       0       0       0       
      +0       0       0       0       0
  2531 ;;      Locals:         0       0       0       0       0       0       0       0       0       0       0       0       
      +0       0       0       0       0
  2532 ;;      Temps:          2       0       0       0       0       0       0       0       0       0       0       0       
      +0       0       0       0       0
  2533 ;;      Totals:         3       0       0       0       0       0       0       0       0       0       0       0       
      +0       0       0       0       0
  2534 ;;Total ram usage:        3 bytes
  2535 ;; Hardware stack levels used: 1
  2536 ;; Hardware stack levels required when called: 4
  2537 ;; This function calls:
  2538 ;;		Nothing
  2539 ;; This function is called by:
  2540 ;;		_Interrupt_INTx_Init
  2541 ;;		_Interrupt_INTx_DeInit
  2542 ;; This function uses a non-reentrant model
  2543 ;;
  2544                           
  2545                           	psect	text17
  2546   0016FC                     __ptext17:
  2547                           	callstack 0
  2548   0016FC                     _Interrupt_INTx_Disable:
  2549                           	callstack 25
  2550   0016FC                     
  2551                           ;MCAL_Layer/interrupt/mcal_external_interrupt.c: 358:     if(((void*)0) == int_obj){
  2552   0016FC  504F               	movf	Interrupt_INTx_Disable@int_obj^0,w,c
  2553   0016FE  A4D8               	btfss	status,2,c
  2554   001700  EF84  F00B         	goto	u3461
  2555   001704  EF86  F00B         	goto	u3460
  2556   001708                     u3461:
  2557   001708  EF91  F00B         	goto	l4163
  2558   00170C                     u3460:
  2559   00170C                     l4159:
  2560                           
  2561                           ;MCAL_Layer/interrupt/mcal_external_interrupt.c: 360:     }
  2562   00170C  EFAF  F00B         	goto	l4165
  2563   001710                     l674:
  2564                           
  2565                           ;MCAL_Layer/interrupt/mcal_external_interrupt.c: 364:                 (INTCONbits.INT0IE
      +                           = 0);
  2566   001710  98F2               	bcf	242,4,c	;volatile
  2567                           
  2568                           ;MCAL_Layer/interrupt/mcal_external_interrupt.c: 365:                 break;
  2569   001712  EFAF  F00B         	goto	l4165
  2570   001716                     l676:
  2571                           
  2572                           ;MCAL_Layer/interrupt/mcal_external_interrupt.c: 367:                 (INTCON3bits.INT1I
      +                          E = 0);
  2573   001716  96F0               	bcf	240,3,c	;volatile
  2574                           
  2575                           ;MCAL_Layer/interrupt/mcal_external_interrupt.c: 368:                 break;
  2576   001718  EFAF  F00B         	goto	l4165
  2577   00171C                     l677:
  2578                           
  2579                           ;MCAL_Layer/interrupt/mcal_external_interrupt.c: 370:                 (INTCON3bits.INT2I
      +                          E = 0);
  2580   00171C  98F0               	bcf	240,4,c	;volatile
  2581                           
  2582                           ;MCAL_Layer/interrupt/mcal_external_interrupt.c: 371:                 break;
  2583   00171E  EFAF  F00B         	goto	l4165
  2584   001722                     l4163:
  2585   001722  504F               	movf	Interrupt_INTx_Disable@int_obj^0,w,c
  2586   001724  6ED9               	movwf	fsr2l,c
  2587   001726  6ADA               	clrf	fsr2h,c
  2588   001728  0E04               	movlw	4
  2589   00172A  26D9               	addwf	fsr2l,f,c
  2590   00172C  50DF               	movf	indf2,w,c
  2591   00172E  6E50               	movwf	??_Interrupt_INTx_Disable^0,c
  2592   001730  6A51               	clrf	(??_Interrupt_INTx_Disable+1)^0,c
  2593                           
  2594                           ; Switch on 2 bytes has been partitioned into a top level switch of size 1, and 1 sub-sw
      +                          itches
  2595                           ; Switch size 1, requested type "simple"
  2596                           ; Number of cases is 1, Range of values is 0 to 0
  2597                           ; switch strategies available:
  2598                           ; Name         Instructions Cycles
  2599                           ; simple_byte            4     3 (average)
  2600                           ;	Chosen strategy is simple_byte
  2601   001732  5051               	movf	(??_Interrupt_INTx_Disable+1)^0,w,c
  2602   001734  0A00               	xorlw	0	; case 0
  2603   001736  B4D8               	btfsc	status,2,c
  2604   001738  EFA0  F00B         	goto	l5007
  2605   00173C  EF86  F00B         	goto	l4159
  2606   001740                     l5007:
  2607                           
  2608                           ; Switch size 1, requested type "simple"
  2609                           ; Number of cases is 3, Range of values is 0 to 2
  2610                           ; switch strategies available:
  2611                           ; Name         Instructions Cycles
  2612                           ; simple_byte           10     6 (average)
  2613                           ;	Chosen strategy is simple_byte
  2614   001740  5050               	movf	??_Interrupt_INTx_Disable^0,w,c
  2615   001742  0A00               	xorlw	0	; case 0
  2616   001744  B4D8               	btfsc	status,2,c
  2617   001746  EF88  F00B         	goto	l674
  2618   00174A  0A01               	xorlw	1	; case 1
  2619   00174C  B4D8               	btfsc	status,2,c
  2620   00174E  EF8B  F00B         	goto	l676
  2621   001752  0A03               	xorlw	3	; case 2
  2622   001754  B4D8               	btfsc	status,2,c
  2623   001756  EF8E  F00B         	goto	l677
  2624   00175A  EF86  F00B         	goto	l4159
  2625   00175E                     l4165:
  2626                           
  2627                           ;MCAL_Layer/interrupt/mcal_external_interrupt.c: 375:     return ret;
  2628   00175E  0E00               	movlw	0
  2629   001760  0012               	return		;funcret
  2630   001762                     __end_of_Interrupt_INTx_Disable:
  2631                           	callstack 0
  2632                           
  2633 ;; *************** function _Interrupt_INTx_Clear_Flag *****************
  2634 ;; Defined at:
  2635 ;;		line 465 in file "MCAL_Layer/interrupt/mcal_external_interrupt.c"
  2636 ;; Parameters:    Size  Location     Type
  2637 ;;  int_obj         1    6[COMRAM] PTR const struct .
  2638 ;;		 -> int0_obj(6), 
  2639 ;; Auto vars:     Size  Location     Type
  2640 ;;  ret             1    0        unsigned char 
  2641 ;; Return value:  Size  Location     Type
  2642 ;;                  1    wreg      unsigned char 
  2643 ;; Registers used:
  2644 ;;		wreg, fsr2l, fsr2h, status,2, status,0
  2645 ;; Tracked objects:
  2646 ;;		On entry : 0/0
  2647 ;;		On exit  : 0/0
  2648 ;;		Unchanged: 0/0
  2649 ;; Data sizes:     COMRAM   BANK0   BANK1   BANK2   BANK3   BANK4   BANK5   BANK6   BANK7   BANK8   BANK9  BANK10  BANK1
      +1  BANK12  BANK13  BANK14  BANK15
  2650 ;;      Params:         1       0       0       0       0       0       0       0       0       0       0       0       
      +0       0       0       0       0
  2651 ;;      Locals:         0       0       0       0       0       0       0       0       0       0       0       0       
      +0       0       0       0       0
  2652 ;;      Temps:          2       0       0       0       0       0       0       0       0       0       0       0       
      +0       0       0       0       0
  2653 ;;      Totals:         3       0       0       0       0       0       0       0       0       0       0       0       
      +0       0       0       0       0
  2654 ;;Total ram usage:        3 bytes
  2655 ;; Hardware stack levels used: 1
  2656 ;; Hardware stack levels required when called: 4
  2657 ;; This function calls:
  2658 ;;		Nothing
  2659 ;; This function is called by:
  2660 ;;		_Interrupt_INTx_Init
  2661 ;; This function uses a non-reentrant model
  2662 ;;
  2663                           
  2664                           	psect	text18
  2665   001762                     __ptext18:
  2666                           	callstack 0
  2667   001762                     _Interrupt_INTx_Clear_Flag:
  2668                           	callstack 25
  2669   001762                     
  2670                           ;MCAL_Layer/interrupt/mcal_external_interrupt.c: 467:     if(((void*)0) == int_obj){
  2671   001762  504F               	movf	Interrupt_INTx_Clear_Flag@int_obj^0,w,c
  2672   001764  A4D8               	btfss	status,2,c
  2673   001766  EFB7  F00B         	goto	u3471
  2674   00176A  EFB9  F00B         	goto	u3470
  2675   00176E                     u3471:
  2676   00176E  EFC4  F00B         	goto	l4179
  2677   001772                     u3470:
  2678   001772                     l4175:
  2679                           
  2680                           ;MCAL_Layer/interrupt/mcal_external_interrupt.c: 469:     }
  2681   001772  EFE2  F00B         	goto	l4181
  2682   001776                     l713:
  2683                           
  2684                           ;MCAL_Layer/interrupt/mcal_external_interrupt.c: 473:                 (INTCONbits.INT0IF
      +                           = 0);
  2685   001776  92F2               	bcf	242,1,c	;volatile
  2686                           
  2687                           ;MCAL_Layer/interrupt/mcal_external_interrupt.c: 474:                 break;
  2688   001778  EFE2  F00B         	goto	l4181
  2689   00177C                     l715:
  2690                           
  2691                           ;MCAL_Layer/interrupt/mcal_external_interrupt.c: 476:                 (INTCON3bits.INT1I
      +                          F = 0);
  2692   00177C  90F0               	bcf	240,0,c	;volatile
  2693                           
  2694                           ;MCAL_Layer/interrupt/mcal_external_interrupt.c: 477:                 break;
  2695   00177E  EFE2  F00B         	goto	l4181
  2696   001782                     l716:
  2697                           
  2698                           ;MCAL_Layer/interrupt/mcal_external_interrupt.c: 479:                 (INTCON3bits.INT2I
      +                          F = 0);
  2699   001782  92F0               	bcf	240,1,c	;volatile
  2700                           
  2701                           ;MCAL_Layer/interrupt/mcal_external_interrupt.c: 480:                 break;
  2702   001784  EFE2  F00B         	goto	l4181
  2703   001788                     l4179:
  2704   001788  504F               	movf	Interrupt_INTx_Clear_Flag@int_obj^0,w,c
  2705   00178A  6ED9               	movwf	fsr2l,c
  2706   00178C  6ADA               	clrf	fsr2h,c
  2707   00178E  0E04               	movlw	4
  2708   001790  26D9               	addwf	fsr2l,f,c
  2709   001792  50DF               	movf	indf2,w,c
  2710   001794  6E50               	movwf	??_Interrupt_INTx_Clear_Flag^0,c
  2711   001796  6A51               	clrf	(??_Interrupt_INTx_Clear_Flag+1)^0,c
  2712                           
  2713                           ; Switch on 2 bytes has been partitioned into a top level switch of size 1, and 1 sub-sw
      +                          itches
  2714                           ; Switch size 1, requested type "simple"
  2715                           ; Number of cases is 1, Range of values is 0 to 0
  2716                           ; switch strategies available:
  2717                           ; Name         Instructions Cycles
  2718                           ; simple_byte            4     3 (average)
  2719                           ;	Chosen strategy is simple_byte
  2720   001798  5051               	movf	(??_Interrupt_INTx_Clear_Flag+1)^0,w,c
  2721   00179A  0A00               	xorlw	0	; case 0
  2722   00179C  B4D8               	btfsc	status,2,c
  2723   00179E  EFD3  F00B         	goto	l5009
  2724   0017A2  EFB9  F00B         	goto	l4175
  2725   0017A6                     l5009:
  2726                           
  2727                           ; Switch size 1, requested type "simple"
  2728                           ; Number of cases is 3, Range of values is 0 to 2
  2729                           ; switch strategies available:
  2730                           ; Name         Instructions Cycles
  2731                           ; simple_byte           10     6 (average)
  2732                           ;	Chosen strategy is simple_byte
  2733   0017A6  5050               	movf	??_Interrupt_INTx_Clear_Flag^0,w,c
  2734   0017A8  0A00               	xorlw	0	; case 0
  2735   0017AA  B4D8               	btfsc	status,2,c
  2736   0017AC  EFBB  F00B         	goto	l713
  2737   0017B0  0A01               	xorlw	1	; case 1
  2738   0017B2  B4D8               	btfsc	status,2,c
  2739   0017B4  EFBE  F00B         	goto	l715
  2740   0017B8  0A03               	xorlw	3	; case 2
  2741   0017BA  B4D8               	btfsc	status,2,c
  2742   0017BC  EFC1  F00B         	goto	l716
  2743   0017C0  EFB9  F00B         	goto	l4175
  2744   0017C4                     l4181:
  2745                           
  2746                           ;MCAL_Layer/interrupt/mcal_external_interrupt.c: 484:     return ret;
  2747   0017C4  0E00               	movlw	0
  2748   0017C6  0012               	return		;funcret
  2749   0017C8                     __end_of_Interrupt_INTx_Clear_Flag:
  2750                           	callstack 0
  2751                           
  2752 ;; *************** function _Data_EEPROM_ReadByte *****************
  2753 ;; Defined at:
  2754 ;;		line 39 in file "MCAL_Layer/EEPROM/hal_eeprom.c"
  2755 ;; Parameters:    Size  Location     Type
  2756 ;;  bAdd            2    6[COMRAM] unsigned short 
  2757 ;;  bData           1    8[COMRAM] PTR unsigned char 
  2758 ;;		 -> program_selected(1), 
  2759 ;; Auto vars:     Size  Location     Type
  2760 ;;  ret             1    9[COMRAM] unsigned char 
  2761 ;; Return value:  Size  Location     Type
  2762 ;;                  1    wreg      unsigned char 
  2763 ;; Registers used:
  2764 ;;		wreg, fsr2l, fsr2h, status,2, status,0
  2765 ;; Tracked objects:
  2766 ;;		On entry : 0/0
  2767 ;;		On exit  : 0/0
  2768 ;;		Unchanged: 0/0
  2769 ;; Data sizes:     COMRAM   BANK0   BANK1   BANK2   BANK3   BANK4   BANK5   BANK6   BANK7   BANK8   BANK9  BANK10  BANK1
      +1  BANK12  BANK13  BANK14  BANK15
  2770 ;;      Params:         3       0       0       0       0       0       0       0       0       0       0       0       
      +0       0       0       0       0
  2771 ;;      Locals:         1       0       0       0       0       0       0       0       0       0       0       0       
      +0       0       0       0       0
  2772 ;;      Temps:          0       0       0       0       0       0       0       0       0       0       0       0       
      +0       0       0       0       0
  2773 ;;      Totals:         4       0       0       0       0       0       0       0       0       0       0       0       
      +0       0       0       0       0
  2774 ;;Total ram usage:        4 bytes
  2775 ;; Hardware stack levels used: 1
  2776 ;; Hardware stack levels required when called: 4
  2777 ;; This function calls:
  2778 ;;		Nothing
  2779 ;; This function is called by:
  2780 ;;		_main
  2781 ;; This function uses a non-reentrant model
  2782 ;;
  2783                           
  2784                           	psect	text19
  2785   0018A2                     __ptext19:
  2786                           	callstack 0
  2787   0018A2                     _Data_EEPROM_ReadByte:
  2788                           	callstack 26
  2789   0018A2                     
  2790                           ;MCAL_Layer/EEPROM/hal_eeprom.c: 40:     Std_ReturnType ret = (Std_ReturnType)0x01;
  2791   0018A2  0E01               	movlw	1
  2792   0018A4  6E52               	movwf	Data_EEPROM_ReadByte@ret^0,c
  2793                           
  2794                           ;MCAL_Layer/EEPROM/hal_eeprom.c: 41:     if (((void*)0) == bData)
  2795   0018A6  5051               	movf	Data_EEPROM_ReadByte@bData^0,w,c
  2796   0018A8  A4D8               	btfss	status,2,c
  2797   0018AA  EF59  F00C         	goto	u2261
  2798   0018AE  EF5B  F00C         	goto	u2260
  2799   0018B2                     u2261:
  2800   0018B2  EF5F  F00C         	goto	l3277
  2801   0018B6                     u2260:
  2802   0018B6                     
  2803                           ;MCAL_Layer/EEPROM/hal_eeprom.c: 42:     {;MCAL_Layer/EEPROM/hal_eeprom.c: 43:         r
      +                          et = (Std_ReturnType)0x00;
  2804   0018B6  0E00               	movlw	0
  2805   0018B8  6E52               	movwf	Data_EEPROM_ReadByte@ret^0,c
  2806                           
  2807                           ;MCAL_Layer/EEPROM/hal_eeprom.c: 44:     }
  2808   0018BA  EF6E  F00C         	goto	l3293
  2809   0018BE                     l3277:
  2810                           
  2811                           ;MCAL_Layer/EEPROM/hal_eeprom.c: 46:     {;MCAL_Layer/EEPROM/hal_eeprom.c: 48:         E
      +                          EADRH = (uint8)((bAdd >> 8) & 0x03);
  2812   0018BE  5050               	movf	(Data_EEPROM_ReadByte@bAdd+1)^0,w,c
  2813   0018C0  0B03               	andlw	3
  2814   0018C2  6EAA               	movwf	170,c	;volatile
  2815   0018C4                     
  2816                           ;MCAL_Layer/EEPROM/hal_eeprom.c: 49:         EEADR = (uint8) (bAdd & 0xFF);
  2817   0018C4  C04F  FFA9         	movff	Data_EEPROM_ReadByte@bAdd,4009	;volatile
  2818   0018C8                     
  2819                           ;MCAL_Layer/EEPROM/hal_eeprom.c: 51:         EECON1bits.EEPGD = 0;
  2820   0018C8  9EA6               	bcf	166,7,c	;volsfr
  2821   0018CA                     
  2822                           ;MCAL_Layer/EEPROM/hal_eeprom.c: 52:         EECON1bits.CFGS = 0;
  2823   0018CA  9CA6               	bcf	166,6,c	;volsfr
  2824   0018CC                     
  2825                           ;MCAL_Layer/EEPROM/hal_eeprom.c: 54:         EECON1bits.RD = 1;
  2826   0018CC  80A6               	bsf	166,0,c	;volsfr
  2827   0018CE                     
  2828                           ;MCAL_Layer/EEPROM/hal_eeprom.c: 55:         __nop();
  2829   0018CE  0000               	nop	
  2830   0018D0                     
  2831                           ;MCAL_Layer/EEPROM/hal_eeprom.c: 56:         __nop();
  2832   0018D0  0000               	nop	
  2833   0018D2                     
  2834                           ;MCAL_Layer/EEPROM/hal_eeprom.c: 58:         *bData = EEDATA;
  2835   0018D2  5051               	movf	Data_EEPROM_ReadByte@bData^0,w,c
  2836   0018D4  6ED9               	movwf	fsr2l,c
  2837   0018D6  6ADA               	clrf	fsr2h,c
  2838   0018D8  CFA8 FFDF          	movff	4008,indf2	;volatile
  2839   0018DC                     l3293:
  2840                           
  2841                           ;MCAL_Layer/EEPROM/hal_eeprom.c: 60:     return ret;
  2842   0018DC  5052               	movf	Data_EEPROM_ReadByte@ret^0,w,c
  2843   0018DE  0012               	return		;funcret
  2844   0018E0                     __end_of_Data_EEPROM_ReadByte:
  2845                           	callstack 0
  2846                           
  2847 ;; *************** function _InterruptManager *****************
  2848 ;; Defined at:
  2849 ;;		line 35 in file "MCAL_Layer/interrupt/mcal_interrupt_manager.c"
  2850 ;; Parameters:    Size  Location     Type
  2851 ;;		None
  2852 ;; Auto vars:     Size  Location     Type
  2853 ;;		None
  2854 ;; Return value:  Size  Location     Type
  2855 ;;                  1    wreg      void 
  2856 ;; Registers used:
  2857 ;;		wreg, status,2, status,0, pcl, pclath, pclatu, tosl, cstack
  2858 ;; Tracked objects:
  2859 ;;		On entry : 0/0
  2860 ;;		On exit  : 0/0
  2861 ;;		Unchanged: 0/0
  2862 ;; Data sizes:     COMRAM   BANK0   BANK1   BANK2   BANK3   BANK4   BANK5   BANK6   BANK7   BANK8   BANK9  BANK10  BANK1
      +1  BANK12  BANK13  BANK14  BANK15
  2863 ;;      Params:         0       0       0       0       0       0       0       0       0       0       0       0       
      +0       0       0       0       0
  2864 ;;      Locals:         0       0       0       0       0       0       0       0       0       0       0       0       
      +0       0       0       0       0
  2865 ;;      Temps:          2       0       0       0       0       0       0       0       0       0       0       0       
      +0       0       0       0       0
  2866 ;;      Totals:         2       0       0       0       0       0       0       0       0       0       0       0       
      +0       0       0       0       0
  2867 ;;Total ram usage:        2 bytes
  2868 ;; Hardware stack levels used: 1
  2869 ;; Hardware stack levels required when called: 3
  2870 ;; This function calls:
  2871 ;;		_INT0_ISR
  2872 ;;		_INT1_ISR
  2873 ;;		_INT2_ISR
  2874 ;;		_RB4_ISR
  2875 ;;		_RB5_ISR
  2876 ;;		_RB6_ISR
  2877 ;;		_RB7_ISR
  2878 ;; This function is called by:
  2879 ;;		Interrupt level 2
  2880 ;; This function uses a non-reentrant model
  2881 ;;
  2882                           
  2883                           	psect	intcode
  2884   000008                     __pintcode:
  2885                           	callstack 0
  2886   000008                     _InterruptManager:
  2887                           	callstack 24
  2888                           
  2889                           ;incstack = 0
  2890   000008  8259               	bsf	int$flags,1,c	;set compiler interrupt flag (level 2)
  2891   00000A  CFFA F04D          	movff	pclath,??_InterruptManager
  2892   00000E  CFFB F04E          	movff	pclatu,??_InterruptManager+1
  2893   000012                     
  2894                           ;MCAL_Layer/interrupt/mcal_interrupt_manager.c: 38:     if ((INTCONbits.INT0IE == 1) && 
      +                          (INTCONbits.INT0IF == 1))
  2895   000012  A8F2               	btfss	242,4,c	;volatile
  2896   000014  EF0E  F000         	goto	i2u279_41
  2897   000018  EF10  F000         	goto	i2u279_40
  2898   00001C                     i2u279_41:
  2899   00001C  EF19  F000         	goto	i2l517
  2900   000020                     i2u279_40:
  2901   000020  A2F2               	btfss	242,1,c	;volatile
  2902   000022  EF15  F000         	goto	i2u280_41
  2903   000026  EF17  F000         	goto	i2u280_40
  2904   00002A                     i2u280_41:
  2905   00002A  EF19  F000         	goto	i2l517
  2906   00002E                     i2u280_40:
  2907   00002E                     
  2908                           ;MCAL_Layer/interrupt/mcal_interrupt_manager.c: 39:     {;MCAL_Layer/interrupt/mcal_inte
      +                          rrupt_manager.c: 40:         INT0_ISR();
  2909   00002E  ECB9  F00C         	call	_INT0_ISR	;wreg free
  2910   000032                     i2l517:
  2911                           
  2912                           ;MCAL_Layer/interrupt/mcal_interrupt_manager.c: 43:     if ((INTCON3bits.INT1IE == 1) &&
      +                           (INTCON3bits.INT1IF == 1))
  2913   000032  A6F0               	btfss	240,3,c	;volatile
  2914   000034  EF1E  F000         	goto	i2u281_41
  2915   000038  EF20  F000         	goto	i2u281_40
  2916   00003C                     i2u281_41:
  2917   00003C  EF29  F000         	goto	i2l519
  2918   000040                     i2u281_40:
  2919   000040  A0F0               	btfss	240,0,c	;volatile
  2920   000042  EF25  F000         	goto	i2u282_41
  2921   000046  EF27  F000         	goto	i2u282_40
  2922   00004A                     i2u282_41:
  2923   00004A  EF29  F000         	goto	i2l519
  2924   00004E                     i2u282_40:
  2925   00004E                     
  2926                           ;MCAL_Layer/interrupt/mcal_interrupt_manager.c: 44:     {;MCAL_Layer/interrupt/mcal_inte
      +                          rrupt_manager.c: 45:         INT1_ISR();
  2927   00004E  ECA2  F00C         	call	_INT1_ISR	;wreg free
  2928   000052                     i2l519:
  2929                           
  2930                           ;MCAL_Layer/interrupt/mcal_interrupt_manager.c: 48:     if ((INTCON3bits.INT2IE == 1) &&
      +                           (INTCON3bits.INT2IF == 1))
  2931   000052  A8F0               	btfss	240,4,c	;volatile
  2932   000054  EF2E  F000         	goto	i2u283_41
  2933   000058  EF30  F000         	goto	i2u283_40
  2934   00005C                     i2u283_41:
  2935   00005C  EF39  F000         	goto	i2l521
  2936   000060                     i2u283_40:
  2937   000060  A2F0               	btfss	240,1,c	;volatile
  2938   000062  EF35  F000         	goto	i2u284_41
  2939   000066  EF37  F000         	goto	i2u284_40
  2940   00006A                     i2u284_41:
  2941   00006A  EF39  F000         	goto	i2l521
  2942   00006E                     i2u284_40:
  2943   00006E                     
  2944                           ;MCAL_Layer/interrupt/mcal_interrupt_manager.c: 49:     {;MCAL_Layer/interrupt/mcal_inte
      +                          rrupt_manager.c: 50:         INT2_ISR();
  2945   00006E  EC8B  F00C         	call	_INT2_ISR	;wreg free
  2946   000072                     i2l521:
  2947                           
  2948                           ;MCAL_Layer/interrupt/mcal_interrupt_manager.c: 56:     if ((INTCONbits.RBIE == 1) && (I
      +                          NTCONbits.RBIF == 1) &&
  2949   000072  A6F2               	btfss	242,3,c	;volatile
  2950   000074  EF3E  F000         	goto	i2u285_41
  2951   000078  EF40  F000         	goto	i2u285_40
  2952   00007C                     i2u285_41:
  2953   00007C  EF5B  F000         	goto	i2l523
  2954   000080                     i2u285_40:
  2955   000080  A0F2               	btfss	242,0,c	;volatile
  2956   000082  EF45  F000         	goto	i2u286_41
  2957   000086  EF47  F000         	goto	i2u286_40
  2958   00008A                     i2u286_41:
  2959   00008A  EF5B  F000         	goto	i2l523
  2960   00008E                     i2u286_40:
  2961   00008E  A881               	btfss	129,4,c	;volatile
  2962   000090  EF4C  F000         	goto	i2u287_41
  2963   000094  EF4E  F000         	goto	i2u287_40
  2964   000098                     i2u287_41:
  2965   000098  EF5B  F000         	goto	i2l523
  2966   00009C                     i2u287_40:
  2967   00009C  0422               	decf	_RB4_Flag^0,w,c	;volatile
  2968   00009E  A4D8               	btfss	status,2,c
  2969   0000A0  EF54  F000         	goto	i2u288_41
  2970   0000A4  EF56  F000         	goto	i2u288_40
  2971   0000A8                     i2u288_41:
  2972   0000A8  EF5B  F000         	goto	i2l523
  2973   0000AC                     i2u288_40:
  2974   0000AC                     
  2975                           ;MCAL_Layer/interrupt/mcal_interrupt_manager.c: 58:     {;MCAL_Layer/interrupt/mcal_inte
      +                          rrupt_manager.c: 59:         RB4_Flag = 0;
  2976   0000AC  0E00               	movlw	0
  2977   0000AE  6E22               	movwf	_RB4_Flag^0,c	;volatile
  2978   0000B0                     
  2979                           ;MCAL_Layer/interrupt/mcal_interrupt_manager.c: 60:         RB4_ISR(1);
  2980   0000B0  0E01               	movlw	1
  2981   0000B2  EC75  F00D         	call	_RB4_ISR
  2982   0000B6                     i2l523:
  2983                           
  2984                           ;MCAL_Layer/interrupt/mcal_interrupt_manager.c: 63:     if ((INTCONbits.RBIE == 1) && (I
      +                          NTCONbits.RBIF == 1) &&
  2985   0000B6  A6F2               	btfss	242,3,c	;volatile
  2986   0000B8  EF60  F000         	goto	i2u289_41
  2987   0000BC  EF62  F000         	goto	i2u289_40
  2988   0000C0                     i2u289_41:
  2989   0000C0  EF7D  F000         	goto	i2l525
  2990   0000C4                     i2u289_40:
  2991   0000C4  A0F2               	btfss	242,0,c	;volatile
  2992   0000C6  EF67  F000         	goto	i2u290_41
  2993   0000CA  EF69  F000         	goto	i2u290_40
  2994   0000CE                     i2u290_41:
  2995   0000CE  EF7D  F000         	goto	i2l525
  2996   0000D2                     i2u290_40:
  2997   0000D2  B881               	btfsc	129,4,c	;volatile
  2998   0000D4  EF6E  F000         	goto	i2u291_41
  2999   0000D8  EF70  F000         	goto	i2u291_40
  3000   0000DC                     i2u291_41:
  3001   0000DC  EF7D  F000         	goto	i2l525
  3002   0000E0                     i2u291_40:
  3003   0000E0  5022               	movf	_RB4_Flag^0,w,c	;volatile
  3004   0000E2  A4D8               	btfss	status,2,c
  3005   0000E4  EF76  F000         	goto	i2u292_41
  3006   0000E8  EF78  F000         	goto	i2u292_40
  3007   0000EC                     i2u292_41:
  3008   0000EC  EF7D  F000         	goto	i2l525
  3009   0000F0                     i2u292_40:
  3010   0000F0                     
  3011                           ;MCAL_Layer/interrupt/mcal_interrupt_manager.c: 65:     {;MCAL_Layer/interrupt/mcal_inte
      +                          rrupt_manager.c: 66:         RB4_Flag = 1;
  3012   0000F0  0E01               	movlw	1
  3013   0000F2  6E22               	movwf	_RB4_Flag^0,c	;volatile
  3014   0000F4                     
  3015                           ;MCAL_Layer/interrupt/mcal_interrupt_manager.c: 67:         RB4_ISR(0);
  3016   0000F4  0E00               	movlw	0
  3017   0000F6  EC75  F00D         	call	_RB4_ISR
  3018   0000FA                     i2l525:
  3019                           
  3020                           ;MCAL_Layer/interrupt/mcal_interrupt_manager.c: 70:     if ((INTCONbits.RBIE == 1) && (I
      +                          NTCONbits.RBIF == 1) &&
  3021   0000FA  A6F2               	btfss	242,3,c	;volatile
  3022   0000FC  EF82  F000         	goto	i2u293_41
  3023   000100  EF84  F000         	goto	i2u293_40
  3024   000104                     i2u293_41:
  3025   000104  EF9F  F000         	goto	i2l527
  3026   000108                     i2u293_40:
  3027   000108  A0F2               	btfss	242,0,c	;volatile
  3028   00010A  EF89  F000         	goto	i2u294_41
  3029   00010E  EF8B  F000         	goto	i2u294_40
  3030   000112                     i2u294_41:
  3031   000112  EF9F  F000         	goto	i2l527
  3032   000116                     i2u294_40:
  3033   000116  AA81               	btfss	129,5,c	;volatile
  3034   000118  EF90  F000         	goto	i2u295_41
  3035   00011C  EF92  F000         	goto	i2u295_40
  3036   000120                     i2u295_41:
  3037   000120  EF9F  F000         	goto	i2l527
  3038   000124                     i2u295_40:
  3039   000124  0421               	decf	_RB5_Flag^0,w,c	;volatile
  3040   000126  A4D8               	btfss	status,2,c
  3041   000128  EF98  F000         	goto	i2u296_41
  3042   00012C  EF9A  F000         	goto	i2u296_40
  3043   000130                     i2u296_41:
  3044   000130  EF9F  F000         	goto	i2l527
  3045   000134                     i2u296_40:
  3046   000134                     
  3047                           ;MCAL_Layer/interrupt/mcal_interrupt_manager.c: 72:     {;MCAL_Layer/interrupt/mcal_inte
      +                          rrupt_manager.c: 73:         RB5_Flag = 0;
  3048   000134  0E00               	movlw	0
  3049   000136  6E21               	movwf	_RB5_Flag^0,c	;volatile
  3050   000138                     
  3051                           ;MCAL_Layer/interrupt/mcal_interrupt_manager.c: 74:         RB5_ISR(1);
  3052   000138  0E01               	movlw	1
  3053   00013A  EC68  F00D         	call	_RB5_ISR
  3054   00013E                     i2l527:
  3055                           
  3056                           ;MCAL_Layer/interrupt/mcal_interrupt_manager.c: 77:     if ((INTCONbits.RBIE == 1) && (I
      +                          NTCONbits.RBIF == 1) &&
  3057   00013E  A6F2               	btfss	242,3,c	;volatile
  3058   000140  EFA4  F000         	goto	i2u297_41
  3059   000144  EFA6  F000         	goto	i2u297_40
  3060   000148                     i2u297_41:
  3061   000148  EFC1  F000         	goto	i2l3839
  3062   00014C                     i2u297_40:
  3063   00014C  A0F2               	btfss	242,0,c	;volatile
  3064   00014E  EFAB  F000         	goto	i2u298_41
  3065   000152  EFAD  F000         	goto	i2u298_40
  3066   000156                     i2u298_41:
  3067   000156  EFC1  F000         	goto	i2l3839
  3068   00015A                     i2u298_40:
  3069   00015A  BA81               	btfsc	129,5,c	;volatile
  3070   00015C  EFB2  F000         	goto	i2u299_41
  3071   000160  EFB4  F000         	goto	i2u299_40
  3072   000164                     i2u299_41:
  3073   000164  EFC1  F000         	goto	i2l3839
  3074   000168                     i2u299_40:
  3075   000168  5021               	movf	_RB5_Flag^0,w,c	;volatile
  3076   00016A  A4D8               	btfss	status,2,c
  3077   00016C  EFBA  F000         	goto	i2u300_41
  3078   000170  EFBC  F000         	goto	i2u300_40
  3079   000174                     i2u300_41:
  3080   000174  EFC1  F000         	goto	i2l3839
  3081   000178                     i2u300_40:
  3082   000178                     
  3083                           ;MCAL_Layer/interrupt/mcal_interrupt_manager.c: 79:     {;MCAL_Layer/interrupt/mcal_inte
      +                          rrupt_manager.c: 80:         RB5_Flag = 1;
  3084   000178  0E01               	movlw	1
  3085   00017A  6E21               	movwf	_RB5_Flag^0,c	;volatile
  3086   00017C                     
  3087                           ;MCAL_Layer/interrupt/mcal_interrupt_manager.c: 81:         RB5_ISR(0);
  3088   00017C  0E00               	movlw	0
  3089   00017E  EC68  F00D         	call	_RB5_ISR
  3090   000182                     i2l3839:
  3091                           
  3092                           ;MCAL_Layer/interrupt/mcal_interrupt_manager.c: 84:     if ((INTCONbits.RBIE == 1) && (I
      +                          NTCONbits.RBIF == 1) &&
  3093   000182  A6F2               	btfss	242,3,c	;volatile
  3094   000184  EFC6  F000         	goto	i2u301_41
  3095   000188  EFC8  F000         	goto	i2u301_40
  3096   00018C                     i2u301_41:
  3097   00018C  EFE3  F000         	goto	i2l530
  3098   000190                     i2u301_40:
  3099   000190  A0F2               	btfss	242,0,c	;volatile
  3100   000192  EFCD  F000         	goto	i2u302_41
  3101   000196  EFCF  F000         	goto	i2u302_40
  3102   00019A                     i2u302_41:
  3103   00019A  EFE3  F000         	goto	i2l530
  3104   00019E                     i2u302_40:
  3105   00019E  AC81               	btfss	129,6,c	;volatile
  3106   0001A0  EFD4  F000         	goto	i2u303_41
  3107   0001A4  EFD6  F000         	goto	i2u303_40
  3108   0001A8                     i2u303_41:
  3109   0001A8  EFE3  F000         	goto	i2l530
  3110   0001AC                     i2u303_40:
  3111   0001AC  0420               	decf	_RB6_Flag^0,w,c	;volatile
  3112   0001AE  A4D8               	btfss	status,2,c
  3113   0001B0  EFDC  F000         	goto	i2u304_41
  3114   0001B4  EFDE  F000         	goto	i2u304_40
  3115   0001B8                     i2u304_41:
  3116   0001B8  EFE3  F000         	goto	i2l530
  3117   0001BC                     i2u304_40:
  3118   0001BC                     
  3119                           ;MCAL_Layer/interrupt/mcal_interrupt_manager.c: 86:     {;MCAL_Layer/interrupt/mcal_inte
      +                          rrupt_manager.c: 87:         RB6_Flag = 0;
  3120   0001BC  0E00               	movlw	0
  3121   0001BE  6E20               	movwf	_RB6_Flag^0,c	;volatile
  3122   0001C0                     
  3123                           ;MCAL_Layer/interrupt/mcal_interrupt_manager.c: 88:         RB6_ISR(1);
  3124   0001C0  0E01               	movlw	1
  3125   0001C2  EC5B  F00D         	call	_RB6_ISR
  3126   0001C6                     i2l530:
  3127                           
  3128                           ;MCAL_Layer/interrupt/mcal_interrupt_manager.c: 91:     if ((INTCONbits.RBIE == 1) && (I
      +                          NTCONbits.RBIF == 1) &&
  3129   0001C6  A6F2               	btfss	242,3,c	;volatile
  3130   0001C8  EFE8  F000         	goto	i2u305_41
  3131   0001CC  EFEA  F000         	goto	i2u305_40
  3132   0001D0                     i2u305_41:
  3133   0001D0  EF05  F001         	goto	i2l3861
  3134   0001D4                     i2u305_40:
  3135   0001D4  A0F2               	btfss	242,0,c	;volatile
  3136   0001D6  EFEF  F000         	goto	i2u306_41
  3137   0001DA  EFF1  F000         	goto	i2u306_40
  3138   0001DE                     i2u306_41:
  3139   0001DE  EF05  F001         	goto	i2l3861
  3140   0001E2                     i2u306_40:
  3141   0001E2  BC81               	btfsc	129,6,c	;volatile
  3142   0001E4  EFF6  F000         	goto	i2u307_41
  3143   0001E8  EFF8  F000         	goto	i2u307_40
  3144   0001EC                     i2u307_41:
  3145   0001EC  EF05  F001         	goto	i2l3861
  3146   0001F0                     i2u307_40:
  3147   0001F0  5020               	movf	_RB6_Flag^0,w,c	;volatile
  3148   0001F2  A4D8               	btfss	status,2,c
  3149   0001F4  EFFE  F000         	goto	i2u308_41
  3150   0001F8  EF00  F001         	goto	i2u308_40
  3151   0001FC                     i2u308_41:
  3152   0001FC  EF05  F001         	goto	i2l3861
  3153   000200                     i2u308_40:
  3154   000200                     
  3155                           ;MCAL_Layer/interrupt/mcal_interrupt_manager.c: 93:     {;MCAL_Layer/interrupt/mcal_inte
      +                          rrupt_manager.c: 94:         RB6_Flag = 1;
  3156   000200  0E01               	movlw	1
  3157   000202  6E20               	movwf	_RB6_Flag^0,c	;volatile
  3158   000204                     
  3159                           ;MCAL_Layer/interrupt/mcal_interrupt_manager.c: 95:         RB6_ISR(0);
  3160   000204  0E00               	movlw	0
  3161   000206  EC5B  F00D         	call	_RB6_ISR
  3162   00020A                     i2l3861:
  3163                           
  3164                           ;MCAL_Layer/interrupt/mcal_interrupt_manager.c: 98:     if ((INTCONbits.RBIE == 1) && (I
      +                          NTCONbits.RBIF == 1) &&
  3165   00020A  A6F2               	btfss	242,3,c	;volatile
  3166   00020C  EF0A  F001         	goto	i2u309_41
  3167   000210  EF0C  F001         	goto	i2u309_40
  3168   000214                     i2u309_41:
  3169   000214  EF27  F001         	goto	i2l533
  3170   000218                     i2u309_40:
  3171   000218  A0F2               	btfss	242,0,c	;volatile
  3172   00021A  EF11  F001         	goto	i2u310_41
  3173   00021E  EF13  F001         	goto	i2u310_40
  3174   000222                     i2u310_41:
  3175   000222  EF27  F001         	goto	i2l533
  3176   000226                     i2u310_40:
  3177   000226  AE81               	btfss	129,7,c	;volatile
  3178   000228  EF18  F001         	goto	i2u311_41
  3179   00022C  EF1A  F001         	goto	i2u311_40
  3180   000230                     i2u311_41:
  3181   000230  EF27  F001         	goto	i2l533
  3182   000234                     i2u311_40:
  3183   000234  041F               	decf	_RB7_Flag^0,w,c	;volatile
  3184   000236  A4D8               	btfss	status,2,c
  3185   000238  EF20  F001         	goto	i2u312_41
  3186   00023C  EF22  F001         	goto	i2u312_40
  3187   000240                     i2u312_41:
  3188   000240  EF27  F001         	goto	i2l533
  3189   000244                     i2u312_40:
  3190   000244                     
  3191                           ;MCAL_Layer/interrupt/mcal_interrupt_manager.c: 100:     {;MCAL_Layer/interrupt/mcal_int
      +                          errupt_manager.c: 101:         RB7_Flag = 0;
  3192   000244  0E00               	movlw	0
  3193   000246  6E1F               	movwf	_RB7_Flag^0,c	;volatile
  3194   000248                     
  3195                           ;MCAL_Layer/interrupt/mcal_interrupt_manager.c: 102:         RB7_ISR(1);
  3196   000248  0E01               	movlw	1
  3197   00024A  EC4E  F00D         	call	_RB7_ISR
  3198   00024E                     i2l533:
  3199                           
  3200                           ;MCAL_Layer/interrupt/mcal_interrupt_manager.c: 105:     if ((INTCONbits.RBIE == 1) && (
      +                          INTCONbits.RBIF == 1) &&
  3201   00024E  A6F2               	btfss	242,3,c	;volatile
  3202   000250  EF2C  F001         	goto	i2u313_41
  3203   000254  EF2E  F001         	goto	i2u313_40
  3204   000258                     i2u313_41:
  3205   000258  EF49  F001         	goto	i2l536
  3206   00025C                     i2u313_40:
  3207   00025C  A0F2               	btfss	242,0,c	;volatile
  3208   00025E  EF33  F001         	goto	i2u314_41
  3209   000262  EF35  F001         	goto	i2u314_40
  3210   000266                     i2u314_41:
  3211   000266  EF49  F001         	goto	i2l536
  3212   00026A                     i2u314_40:
  3213   00026A  BE81               	btfsc	129,7,c	;volatile
  3214   00026C  EF3A  F001         	goto	i2u315_41
  3215   000270  EF3C  F001         	goto	i2u315_40
  3216   000274                     i2u315_41:
  3217   000274  EF49  F001         	goto	i2l536
  3218   000278                     i2u315_40:
  3219   000278  501F               	movf	_RB7_Flag^0,w,c	;volatile
  3220   00027A  A4D8               	btfss	status,2,c
  3221   00027C  EF42  F001         	goto	i2u316_41
  3222   000280  EF44  F001         	goto	i2u316_40
  3223   000284                     i2u316_41:
  3224   000284  EF49  F001         	goto	i2l536
  3225   000288                     i2u316_40:
  3226   000288                     
  3227                           ;MCAL_Layer/interrupt/mcal_interrupt_manager.c: 107:     {;MCAL_Layer/interrupt/mcal_int
      +                          errupt_manager.c: 108:         RB7_Flag = 1;
  3228   000288  0E01               	movlw	1
  3229   00028A  6E1F               	movwf	_RB7_Flag^0,c	;volatile
  3230   00028C                     
  3231                           ;MCAL_Layer/interrupt/mcal_interrupt_manager.c: 109:         RB7_ISR(0);
  3232   00028C  0E00               	movlw	0
  3233   00028E  EC4E  F00D         	call	_RB7_ISR
  3234   000292                     i2l536:
  3235   000292  C04E  FFFB         	movff	??_InterruptManager+1,pclatu
  3236   000296  C04D  FFFA         	movff	??_InterruptManager,pclath
  3237   00029A  9259               	bcf	int$flags,1,c	;clear compiler interrupt flag (level 2)
  3238   00029C  0011               	retfie		f
  3239   00029E                     __end_of_InterruptManager:
  3240                           	callstack 0
  3241                           
  3242 ;; *************** function _RB7_ISR *****************
  3243 ;; Defined at:
  3244 ;;		line 168 in file "MCAL_Layer/interrupt/mcal_external_interrupt.c"
  3245 ;; Parameters:    Size  Location     Type
  3246 ;;  RB7_source      1    wreg     unsigned char 
  3247 ;; Auto vars:     Size  Location     Type
  3248 ;;  RB7_source      1    0[COMRAM] unsigned char 
  3249 ;; Return value:  Size  Location     Type
  3250 ;;                  1    wreg      void 
  3251 ;; Registers used:
  3252 ;;		wreg, status,2, status,0
  3253 ;; Tracked objects:
  3254 ;;		On entry : 0/0
  3255 ;;		On exit  : 0/0
  3256 ;;		Unchanged: 0/0
  3257 ;; Data sizes:     COMRAM   BANK0   BANK1   BANK2   BANK3   BANK4   BANK5   BANK6   BANK7   BANK8   BANK9  BANK10  BANK1
      +1  BANK12  BANK13  BANK14  BANK15
  3258 ;;      Params:         0       0       0       0       0       0       0       0       0       0       0       0       
      +0       0       0       0       0
  3259 ;;      Locals:         1       0       0       0       0       0       0       0       0       0       0       0       
      +0       0       0       0       0
  3260 ;;      Temps:          0       0       0       0       0       0       0       0       0       0       0       0       
      +0       0       0       0       0
  3261 ;;      Totals:         1       0       0       0       0       0       0       0       0       0       0       0       
      +0       0       0       0       0
  3262 ;;Total ram usage:        1 bytes
  3263 ;; Hardware stack levels used: 1
  3264 ;; This function calls:
  3265 ;;		Nothing
  3266 ;; This function is called by:
  3267 ;;		_InterruptManager
  3268 ;; This function uses a non-reentrant model
  3269 ;;
  3270                           
  3271                           	psect	text21
  3272   001A9C                     __ptext21:
  3273                           	callstack 0
  3274   001A9C                     _RB7_ISR:
  3275                           	callstack 26
  3276                           
  3277                           ;incstack = 0
  3278                           ;RB7_ISR@RB7_source stored from wreg
  3279   001A9C  6E49               	movwf	RB7_ISR@RB7_source^0,c
  3280   001A9E                     
  3281                           ;MCAL_Layer/interrupt/mcal_external_interrupt.c: 170:     (INTCONbits.RBIF = 0);
  3282   001A9E  90F2               	bcf	242,0,c	;volatile
  3283   001AA0                     
  3284                           ;MCAL_Layer/interrupt/mcal_external_interrupt.c: 175:     if (0 == RB7_source)
  3285   001AA0  5049               	movf	RB7_ISR@RB7_source^0,w,c
  3286   001AA2  A4D8               	btfss	status,2,c
  3287   001AA4  EF56  F00D         	goto	i2u59_41
  3288   001AA8  EF58  F00D         	goto	i2u59_40
  3289   001AAC                     i2u59_41:
  3290   001AAC  EF5A  F00D         	goto	i2l2017
  3291   001AB0                     i2u59_40:
  3292   001AB0  EF5A  F00D         	goto	i2l635
  3293   001AB4                     i2l2017:
  3294   001AB4                     i2l635:
  3295   001AB4  0012               	return		;funcret
  3296   001AB6                     __end_of_RB7_ISR:
  3297                           	callstack 0
  3298                           
  3299 ;; *************** function _RB6_ISR *****************
  3300 ;; Defined at:
  3301 ;;		line 150 in file "MCAL_Layer/interrupt/mcal_external_interrupt.c"
  3302 ;; Parameters:    Size  Location     Type
  3303 ;;  RB6_source      1    wreg     unsigned char 
  3304 ;; Auto vars:     Size  Location     Type
  3305 ;;  RB6_source      1    0[COMRAM] unsigned char 
  3306 ;; Return value:  Size  Location     Type
  3307 ;;                  1    wreg      void 
  3308 ;; Registers used:
  3309 ;;		wreg, status,2, status,0
  3310 ;; Tracked objects:
  3311 ;;		On entry : 0/0
  3312 ;;		On exit  : 0/0
  3313 ;;		Unchanged: 0/0
  3314 ;; Data sizes:     COMRAM   BANK0   BANK1   BANK2   BANK3   BANK4   BANK5   BANK6   BANK7   BANK8   BANK9  BANK10  BANK1
      +1  BANK12  BANK13  BANK14  BANK15
  3315 ;;      Params:         0       0       0       0       0       0       0       0       0       0       0       0       
      +0       0       0       0       0
  3316 ;;      Locals:         1       0       0       0       0       0       0       0       0       0       0       0       
      +0       0       0       0       0
  3317 ;;      Temps:          0       0       0       0       0       0       0       0       0       0       0       0       
      +0       0       0       0       0
  3318 ;;      Totals:         1       0       0       0       0       0       0       0       0       0       0       0       
      +0       0       0       0       0
  3319 ;;Total ram usage:        1 bytes
  3320 ;; Hardware stack levels used: 1
  3321 ;; This function calls:
  3322 ;;		Nothing
  3323 ;; This function is called by:
  3324 ;;		_InterruptManager
  3325 ;; This function uses a non-reentrant model
  3326 ;;
  3327                           
  3328                           	psect	text22
  3329   001AB6                     __ptext22:
  3330                           	callstack 0
  3331   001AB6                     _RB6_ISR:
  3332                           	callstack 26
  3333                           
  3334                           ;incstack = 0
  3335                           ;RB6_ISR@RB6_source stored from wreg
  3336   001AB6  6E49               	movwf	RB6_ISR@RB6_source^0,c
  3337   001AB8                     
  3338                           ;MCAL_Layer/interrupt/mcal_external_interrupt.c: 152:     (INTCONbits.RBIF = 0);
  3339   001AB8  90F2               	bcf	242,0,c	;volatile
  3340   001ABA                     
  3341                           ;MCAL_Layer/interrupt/mcal_external_interrupt.c: 157:     if (0 == RB6_source)
  3342   001ABA  5049               	movf	RB6_ISR@RB6_source^0,w,c
  3343   001ABC  A4D8               	btfss	status,2,c
  3344   001ABE  EF63  F00D         	goto	i2u58_41
  3345   001AC2  EF65  F00D         	goto	i2u58_40
  3346   001AC6                     i2u58_41:
  3347   001AC6  EF67  F00D         	goto	i2l2003
  3348   001ACA                     i2u58_40:
  3349   001ACA  EF67  F00D         	goto	i2l625
  3350   001ACE                     i2l2003:
  3351   001ACE                     i2l625:
  3352   001ACE  0012               	return		;funcret
  3353   001AD0                     __end_of_RB6_ISR:
  3354                           	callstack 0
  3355                           
  3356 ;; *************** function _RB5_ISR *****************
  3357 ;; Defined at:
  3358 ;;		line 132 in file "MCAL_Layer/interrupt/mcal_external_interrupt.c"
  3359 ;; Parameters:    Size  Location     Type
  3360 ;;  RB5_source      1    wreg     unsigned char 
  3361 ;; Auto vars:     Size  Location     Type
  3362 ;;  RB5_source      1    0[COMRAM] unsigned char 
  3363 ;; Return value:  Size  Location     Type
  3364 ;;                  1    wreg      void 
  3365 ;; Registers used:
  3366 ;;		wreg, status,2, status,0
  3367 ;; Tracked objects:
  3368 ;;		On entry : 0/0
  3369 ;;		On exit  : 0/0
  3370 ;;		Unchanged: 0/0
  3371 ;; Data sizes:     COMRAM   BANK0   BANK1   BANK2   BANK3   BANK4   BANK5   BANK6   BANK7   BANK8   BANK9  BANK10  BANK1
      +1  BANK12  BANK13  BANK14  BANK15
  3372 ;;      Params:         0       0       0       0       0       0       0       0       0       0       0       0       
      +0       0       0       0       0
  3373 ;;      Locals:         1       0       0       0       0       0       0       0       0       0       0       0       
      +0       0       0       0       0
  3374 ;;      Temps:          0       0       0       0       0       0       0       0       0       0       0       0       
      +0       0       0       0       0
  3375 ;;      Totals:         1       0       0       0       0       0       0       0       0       0       0       0       
      +0       0       0       0       0
  3376 ;;Total ram usage:        1 bytes
  3377 ;; Hardware stack levels used: 1
  3378 ;; This function calls:
  3379 ;;		Nothing
  3380 ;; This function is called by:
  3381 ;;		_InterruptManager
  3382 ;; This function uses a non-reentrant model
  3383 ;;
  3384                           
  3385                           	psect	text23
  3386   001AD0                     __ptext23:
  3387                           	callstack 0
  3388   001AD0                     _RB5_ISR:
  3389                           	callstack 26
  3390                           
  3391                           ;incstack = 0
  3392                           ;RB5_ISR@RB5_source stored from wreg
  3393   001AD0  6E49               	movwf	RB5_ISR@RB5_source^0,c
  3394   001AD2                     
  3395                           ;MCAL_Layer/interrupt/mcal_external_interrupt.c: 134:     (INTCONbits.RBIF = 0);
  3396   001AD2  90F2               	bcf	242,0,c	;volatile
  3397   001AD4                     
  3398                           ;MCAL_Layer/interrupt/mcal_external_interrupt.c: 138:     if (0 == RB5_source)
  3399   001AD4  5049               	movf	RB5_ISR@RB5_source^0,w,c
  3400   001AD6  A4D8               	btfss	status,2,c
  3401   001AD8  EF70  F00D         	goto	i2u57_41
  3402   001ADC  EF72  F00D         	goto	i2u57_40
  3403   001AE0                     i2u57_41:
  3404   001AE0  EF74  F00D         	goto	i2l1989
  3405   001AE4                     i2u57_40:
  3406   001AE4  EF74  F00D         	goto	i2l615
  3407   001AE8                     i2l1989:
  3408   001AE8                     i2l615:
  3409   001AE8  0012               	return		;funcret
  3410   001AEA                     __end_of_RB5_ISR:
  3411                           	callstack 0
  3412                           
  3413 ;; *************** function _RB4_ISR *****************
  3414 ;; Defined at:
  3415 ;;		line 114 in file "MCAL_Layer/interrupt/mcal_external_interrupt.c"
  3416 ;; Parameters:    Size  Location     Type
  3417 ;;  RB4_source      1    wreg     unsigned char 
  3418 ;; Auto vars:     Size  Location     Type
  3419 ;;  RB4_source      1    0[COMRAM] unsigned char 
  3420 ;; Return value:  Size  Location     Type
  3421 ;;                  1    wreg      void 
  3422 ;; Registers used:
  3423 ;;		wreg, status,2, status,0
  3424 ;; Tracked objects:
  3425 ;;		On entry : 0/0
  3426 ;;		On exit  : 0/0
  3427 ;;		Unchanged: 0/0
  3428 ;; Data sizes:     COMRAM   BANK0   BANK1   BANK2   BANK3   BANK4   BANK5   BANK6   BANK7   BANK8   BANK9  BANK10  BANK1
      +1  BANK12  BANK13  BANK14  BANK15
  3429 ;;      Params:         0       0       0       0       0       0       0       0       0       0       0       0       
      +0       0       0       0       0
  3430 ;;      Locals:         1       0       0       0       0       0       0       0       0       0       0       0       
      +0       0       0       0       0
  3431 ;;      Temps:          0       0       0       0       0       0       0       0       0       0       0       0       
      +0       0       0       0       0
  3432 ;;      Totals:         1       0       0       0       0       0       0       0       0       0       0       0       
      +0       0       0       0       0
  3433 ;;Total ram usage:        1 bytes
  3434 ;; Hardware stack levels used: 1
  3435 ;; This function calls:
  3436 ;;		Nothing
  3437 ;; This function is called by:
  3438 ;;		_InterruptManager
  3439 ;; This function uses a non-reentrant model
  3440 ;;
  3441                           
  3442                           	psect	text24
  3443   001AEA                     __ptext24:
  3444                           	callstack 0
  3445   001AEA                     _RB4_ISR:
  3446                           	callstack 26
  3447                           
  3448                           ;incstack = 0
  3449                           ;RB4_ISR@RB4_source stored from wreg
  3450   001AEA  6E49               	movwf	RB4_ISR@RB4_source^0,c
  3451   001AEC                     
  3452                           ;MCAL_Layer/interrupt/mcal_external_interrupt.c: 116:     (INTCONbits.RBIF = 0);
  3453   001AEC  90F2               	bcf	242,0,c	;volatile
  3454   001AEE                     
  3455                           ;MCAL_Layer/interrupt/mcal_external_interrupt.c: 120:     if (0 == RB4_source)
  3456   001AEE  5049               	movf	RB4_ISR@RB4_source^0,w,c
  3457   001AF0  A4D8               	btfss	status,2,c
  3458   001AF2  EF7D  F00D         	goto	i2u56_41
  3459   001AF6  EF7F  F00D         	goto	i2u56_40
  3460   001AFA                     i2u56_41:
  3461   001AFA  EF81  F00D         	goto	i2l1975
  3462   001AFE                     i2u56_40:
  3463   001AFE  EF81  F00D         	goto	i2l605
  3464   001B02                     i2l1975:
  3465   001B02                     i2l605:
  3466   001B02  0012               	return		;funcret
  3467   001B04                     __end_of_RB4_ISR:
  3468                           	callstack 0
  3469                           
  3470 ;; *************** function _INT2_ISR *****************
  3471 ;; Defined at:
  3472 ;;		line 101 in file "MCAL_Layer/interrupt/mcal_external_interrupt.c"
  3473 ;; Parameters:    Size  Location     Type
  3474 ;;		None
  3475 ;; Auto vars:     Size  Location     Type
  3476 ;;		None
  3477 ;; Return value:  Size  Location     Type
  3478 ;;                  1    wreg      void 
  3479 ;; Registers used:
  3480 ;;		wreg, status,2, status,0, pcl, pclath, pclatu, tosl, cstack
  3481 ;; Tracked objects:
  3482 ;;		On entry : 0/0
  3483 ;;		On exit  : 0/0
  3484 ;;		Unchanged: 0/0
  3485 ;; Data sizes:     COMRAM   BANK0   BANK1   BANK2   BANK3   BANK4   BANK5   BANK6   BANK7   BANK8   BANK9  BANK10  BANK1
      +1  BANK12  BANK13  BANK14  BANK15
  3486 ;;      Params:         0       0       0       0       0       0       0       0       0       0       0       0       
      +0       0       0       0       0
  3487 ;;      Locals:         0       0       0       0       0       0       0       0       0       0       0       0       
      +0       0       0       0       0
  3488 ;;      Temps:          0       0       0       0       0       0       0       0       0       0       0       0       
      +0       0       0       0       0
  3489 ;;      Totals:         0       0       0       0       0       0       0       0       0       0       0       0       
      +0       0       0       0       0
  3490 ;;Total ram usage:        0 bytes
  3491 ;; Hardware stack levels used: 1
  3492 ;; Hardware stack levels required when called: 2
  3493 ;; This function calls:
  3494 ;;		NULL
  3495 ;;		_APP_CallBack
  3496 ;; This function is called by:
  3497 ;;		_InterruptManager
  3498 ;; This function uses a non-reentrant model
  3499 ;;
  3500                           
  3501                           	psect	text25
  3502   001916                     __ptext25:
  3503                           	callstack 0
  3504   001916                     _INT2_ISR:
  3505                           	callstack 24
  3506   001916                     
  3507                           ;MCAL_Layer/interrupt/mcal_external_interrupt.c: 103:     (INTCON3bits.INT2IF = 0);
  3508   001916  92F0               	bcf	240,1,c	;volatile
  3509   001918                     
  3510                           ;MCAL_Layer/interrupt/mcal_external_interrupt.c: 108:     if (INT2_InterruptHandler)
  3511   001918  503B               	movf	_INT2_InterruptHandler^0,w,c
  3512   00191A  103C               	iorwf	(_INT2_InterruptHandler+1)^0,w,c
  3513   00191C  B4D8               	btfsc	status,2,c
  3514   00191E  EF93  F00C         	goto	i2u231_41
  3515   001922  EF95  F00C         	goto	i2u231_40
  3516   001926                     i2u231_41:
  3517   001926  EFA1  F00C         	goto	i2l595
  3518   00192A                     i2u231_40:
  3519   00192A                     
  3520                           ;MCAL_Layer/interrupt/mcal_external_interrupt.c: 109:     {;MCAL_Layer/interrupt/mcal_ex
      +                          ternal_interrupt.c: 110:         INT2_InterruptHandler();
  3521   00192A  D802               	call	i2u232_48
  3522   00192C  EFA1  F00C         	goto	i2u232_49
  3523   001930                     i2u232_48:
  3524   001930  0005               	push	
  3525   001932  6EFA               	movwf	pclath,c
  3526   001934  503B               	movf	_INT2_InterruptHandler^0,w,c
  3527   001936  6EFD               	movwf	tosl,c
  3528   001938  503C               	movf	(_INT2_InterruptHandler+1)^0,w,c
  3529   00193A  6EFE               	movwf	tosh,c
  3530   00193C  6AFF               	clrf	tosu,c
  3531   00193E  50FA               	movf	pclath,w,c
  3532   001940  0012               	return		;indir
  3533   001942                     i2u232_49:
  3534   001942                     i2l595:
  3535   001942  0012               	return		;funcret
  3536   001944                     __end_of_INT2_ISR:
  3537                           	callstack 0
  3538                           
  3539 ;; *************** function _INT1_ISR *****************
  3540 ;; Defined at:
  3541 ;;		line 88 in file "MCAL_Layer/interrupt/mcal_external_interrupt.c"
  3542 ;; Parameters:    Size  Location     Type
  3543 ;;		None
  3544 ;; Auto vars:     Size  Location     Type
  3545 ;;		None
  3546 ;; Return value:  Size  Location     Type
  3547 ;;                  1    wreg      void 
  3548 ;; Registers used:
  3549 ;;		wreg, status,2, status,0, pcl, pclath, pclatu, tosl, cstack
  3550 ;; Tracked objects:
  3551 ;;		On entry : 0/0
  3552 ;;		On exit  : 0/0
  3553 ;;		Unchanged: 0/0
  3554 ;; Data sizes:     COMRAM   BANK0   BANK1   BANK2   BANK3   BANK4   BANK5   BANK6   BANK7   BANK8   BANK9  BANK10  BANK1
      +1  BANK12  BANK13  BANK14  BANK15
  3555 ;;      Params:         0       0       0       0       0       0       0       0       0       0       0       0       
      +0       0       0       0       0
  3556 ;;      Locals:         0       0       0       0       0       0       0       0       0       0       0       0       
      +0       0       0       0       0
  3557 ;;      Temps:          0       0       0       0       0       0       0       0       0       0       0       0       
      +0       0       0       0       0
  3558 ;;      Totals:         0       0       0       0       0       0       0       0       0       0       0       0       
      +0       0       0       0       0
  3559 ;;Total ram usage:        0 bytes
  3560 ;; Hardware stack levels used: 1
  3561 ;; Hardware stack levels required when called: 2
  3562 ;; This function calls:
  3563 ;;		NULL
  3564 ;;		_APP_CallBack
  3565 ;; This function is called by:
  3566 ;;		_InterruptManager
  3567 ;; This function uses a non-reentrant model
  3568 ;;
  3569                           
  3570                           	psect	text26
  3571   001944                     __ptext26:
  3572                           	callstack 0
  3573   001944                     _INT1_ISR:
  3574                           	callstack 24
  3575   001944                     
  3576                           ;MCAL_Layer/interrupt/mcal_external_interrupt.c: 90:     (INTCON3bits.INT1IF = 0);
  3577   001944  90F0               	bcf	240,0,c	;volatile
  3578   001946                     
  3579                           ;MCAL_Layer/interrupt/mcal_external_interrupt.c: 95:     if (INT1_InterruptHandler)
  3580   001946  503D               	movf	_INT1_InterruptHandler^0,w,c
  3581   001948  103E               	iorwf	(_INT1_InterruptHandler+1)^0,w,c
  3582   00194A  B4D8               	btfsc	status,2,c
  3583   00194C  EFAA  F00C         	goto	i2u229_41
  3584   001950  EFAC  F00C         	goto	i2u229_40
  3585   001954                     i2u229_41:
  3586   001954  EFB8  F00C         	goto	i2l591
  3587   001958                     i2u229_40:
  3588   001958                     
  3589                           ;MCAL_Layer/interrupt/mcal_external_interrupt.c: 96:     {;MCAL_Layer/interrupt/mcal_ext
      +                          ernal_interrupt.c: 97:         INT1_InterruptHandler();
  3590   001958  D802               	call	i2u230_48
  3591   00195A  EFB8  F00C         	goto	i2u230_49
  3592   00195E                     i2u230_48:
  3593   00195E  0005               	push	
  3594   001960  6EFA               	movwf	pclath,c
  3595   001962  503D               	movf	_INT1_InterruptHandler^0,w,c
  3596   001964  6EFD               	movwf	tosl,c
  3597   001966  503E               	movf	(_INT1_InterruptHandler+1)^0,w,c
  3598   001968  6EFE               	movwf	tosh,c
  3599   00196A  6AFF               	clrf	tosu,c
  3600   00196C  50FA               	movf	pclath,w,c
  3601   00196E  0012               	return		;indir
  3602   001970                     i2u230_49:
  3603   001970                     i2l591:
  3604   001970  0012               	return		;funcret
  3605   001972                     __end_of_INT1_ISR:
  3606                           	callstack 0
  3607                           
  3608 ;; *************** function _INT0_ISR *****************
  3609 ;; Defined at:
  3610 ;;		line 73 in file "MCAL_Layer/interrupt/mcal_external_interrupt.c"
  3611 ;; Parameters:    Size  Location     Type
  3612 ;;		None
  3613 ;; Auto vars:     Size  Location     Type
  3614 ;;		None
  3615 ;; Return value:  Size  Location     Type
  3616 ;;                  1    wreg      void 
  3617 ;; Registers used:
  3618 ;;		wreg, status,2, status,0, pcl, pclath, pclatu, tosl, cstack
  3619 ;; Tracked objects:
  3620 ;;		On entry : 0/0
  3621 ;;		On exit  : 0/0
  3622 ;;		Unchanged: 0/0
  3623 ;; Data sizes:     COMRAM   BANK0   BANK1   BANK2   BANK3   BANK4   BANK5   BANK6   BANK7   BANK8   BANK9  BANK10  BANK1
      +1  BANK12  BANK13  BANK14  BANK15
  3624 ;;      Params:         0       0       0       0       0       0       0       0       0       0       0       0       
      +0       0       0       0       0
  3625 ;;      Locals:         0       0       0       0       0       0       0       0       0       0       0       0       
      +0       0       0       0       0
  3626 ;;      Temps:          0       0       0       0       0       0       0       0       0       0       0       0       
      +0       0       0       0       0
  3627 ;;      Totals:         0       0       0       0       0       0       0       0       0       0       0       0       
      +0       0       0       0       0
  3628 ;;Total ram usage:        0 bytes
  3629 ;; Hardware stack levels used: 1
  3630 ;; Hardware stack levels required when called: 2
  3631 ;; This function calls:
  3632 ;;		NULL
  3633 ;;		_APP_CallBack
  3634 ;; This function is called by:
  3635 ;;		_InterruptManager
  3636 ;; This function uses a non-reentrant model
  3637 ;;
  3638                           
  3639                           	psect	text27
  3640   001972                     __ptext27:
  3641                           	callstack 0
  3642   001972                     _INT0_ISR:
  3643                           	callstack 24
  3644   001972                     
  3645                           ;MCAL_Layer/interrupt/mcal_external_interrupt.c: 75:     (INTCONbits.INT0IF = 0);
  3646   001972  92F2               	bcf	242,1,c	;volatile
  3647   001974                     
  3648                           ;MCAL_Layer/interrupt/mcal_external_interrupt.c: 81:     if (INT0_InterruptHandler)
  3649   001974  503F               	movf	_INT0_InterruptHandler^0,w,c
  3650   001976  1040               	iorwf	(_INT0_InterruptHandler+1)^0,w,c
  3651   001978  B4D8               	btfsc	status,2,c
  3652   00197A  EFC1  F00C         	goto	i2u227_41
  3653   00197E  EFC3  F00C         	goto	i2u227_40
  3654   001982                     i2u227_41:
  3655   001982  EFCF  F00C         	goto	i2l587
  3656   001986                     i2u227_40:
  3657   001986                     
  3658                           ;MCAL_Layer/interrupt/mcal_external_interrupt.c: 82:     {;MCAL_Layer/interrupt/mcal_ext
      +                          ernal_interrupt.c: 83:         INT0_InterruptHandler();
  3659   001986  D802               	call	i2u228_48
  3660   001988  EFCF  F00C         	goto	i2u228_49
  3661   00198C                     i2u228_48:
  3662   00198C  0005               	push	
  3663   00198E  6EFA               	movwf	pclath,c
  3664   001990  503F               	movf	_INT0_InterruptHandler^0,w,c
  3665   001992  6EFD               	movwf	tosl,c
  3666   001994  5040               	movf	(_INT0_InterruptHandler+1)^0,w,c
  3667   001996  6EFE               	movwf	tosh,c
  3668   001998  6AFF               	clrf	tosu,c
  3669   00199A  50FA               	movf	pclath,w,c
  3670   00199C  0012               	return		;indir
  3671   00199E                     i2u228_49:
  3672   00199E                     i2l587:
  3673   00199E  0012               	return		;funcret
  3674   0019A0                     __end_of_INT0_ISR:
  3675                           	callstack 0
  3676                           
  3677 ;; *************** function _APP_CallBack *****************
  3678 ;; Defined at:
  3679 ;;		line 86 in file "application.c"
  3680 ;; Parameters:    Size  Location     Type
  3681 ;;		None
  3682 ;; Auto vars:     Size  Location     Type
  3683 ;;		None
  3684 ;; Return value:  Size  Location     Type
  3685 ;;                  1    wreg      void 
  3686 ;; Registers used:
  3687 ;;		wreg, status,2, status,0, cstack
  3688 ;; Tracked objects:
  3689 ;;		On entry : 0/0
  3690 ;;		On exit  : 0/0
  3691 ;;		Unchanged: 0/0
  3692 ;; Data sizes:     COMRAM   BANK0   BANK1   BANK2   BANK3   BANK4   BANK5   BANK6   BANK7   BANK8   BANK9  BANK10  BANK1
      +1  BANK12  BANK13  BANK14  BANK15
  3693 ;;      Params:         0       0       0       0       0       0       0       0       0       0       0       0       
      +0       0       0       0       0
  3694 ;;      Locals:         0       0       0       0       0       0       0       0       0       0       0       0       
      +0       0       0       0       0
  3695 ;;      Temps:          0       0       0       0       0       0       0       0       0       0       0       0       
      +0       0       0       0       0
  3696 ;;      Totals:         0       0       0       0       0       0       0       0       0       0       0       0       
      +0       0       0       0       0
  3697 ;;Total ram usage:        0 bytes
  3698 ;; Hardware stack levels used: 1
  3699 ;; Hardware stack levels required when called: 1
  3700 ;; This function calls:
  3701 ;;		_Data_EEPROM_WriteByte
  3702 ;; This function is called by:
  3703 ;;		_INT0_ISR
  3704 ;;		_INT1_ISR
  3705 ;;		_INT2_ISR
  3706 ;; This function uses a non-reentrant model
  3707 ;;
  3708                           
  3709                           	psect	text28
  3710   0019A0                     __ptext28:
  3711                           	callstack 0
  3712   0019A0                     _APP_CallBack:
  3713                           	callstack 24
  3714   0019A0                     
  3715                           ;application.c: 87:     program_selected++;
  3716   0019A0  2A48               	incf	_program_selected^0,f,c	;volatile
  3717   0019A2                     
  3718                           ;application.c: 88:     if (3 == program_selected)
  3719   0019A2  0E03               	movlw	3
  3720   0019A4  1848               	xorwf	_program_selected^0,w,c	;volatile
  3721   0019A6  A4D8               	btfss	status,2,c
  3722   0019A8  EFD8  F00C         	goto	i2u217_41
  3723   0019AC  EFDA  F00C         	goto	i2u217_40
  3724   0019B0                     i2u217_41:
  3725   0019B0  EFDC  F00C         	goto	i2l3193
  3726   0019B4                     i2u217_40:
  3727   0019B4                     
  3728                           ;application.c: 89:     {;application.c: 90:         program_selected = 0;
  3729   0019B4  0E00               	movlw	0
  3730   0019B6  6E48               	movwf	_program_selected^0,c	;volatile
  3731   0019B8                     i2l3193:
  3732                           
  3733                           ;application.c: 93:     ret = Data_EEPROM_WriteByte(0x3E0, program_selected);
  3734   0019B8  0E03               	movlw	3
  3735   0019BA  6E4A               	movwf	(Data_EEPROM_WriteByte@bAdd+1)^0,c
  3736   0019BC  0EE0               	movlw	224
  3737   0019BE  6E49               	movwf	Data_EEPROM_WriteByte@bAdd^0,c
  3738   0019C0  C048  F04B         	movff	_program_selected,Data_EEPROM_WriteByte@bData	;volatile
  3739   0019C4  EC2E  F00C         	call	_Data_EEPROM_WriteByte	;wreg free
  3740   0019C8  6E58               	movwf	_ret^0,c
  3741   0019CA  0012               	return		;funcret
  3742   0019CC                     __end_of_APP_CallBack:
  3743                           	callstack 0
  3744                           
  3745 ;; *************** function _Data_EEPROM_WriteByte *****************
  3746 ;; Defined at:
  3747 ;;		line 10 in file "MCAL_Layer/EEPROM/hal_eeprom.c"
  3748 ;; Parameters:    Size  Location     Type
  3749 ;;  bAdd            2    0[COMRAM] unsigned short 
  3750 ;;  bData           1    2[COMRAM] unsigned char 
  3751 ;; Auto vars:     Size  Location     Type
  3752 ;;  Global_Inter    1    3[COMRAM] unsigned char 
  3753 ;;  ret             1    0        unsigned char 
  3754 ;; Return value:  Size  Location     Type
  3755 ;;                  1    wreg      unsigned char 
  3756 ;; Registers used:
  3757 ;;		wreg, status,2, status,0
  3758 ;; Tracked objects:
  3759 ;;		On entry : 0/0
  3760 ;;		On exit  : 0/0
  3761 ;;		Unchanged: 0/0
  3762 ;; Data sizes:     COMRAM   BANK0   BANK1   BANK2   BANK3   BANK4   BANK5   BANK6   BANK7   BANK8   BANK9  BANK10  BANK1
      +1  BANK12  BANK13  BANK14  BANK15
  3763 ;;      Params:         3       0       0       0       0       0       0       0       0       0       0       0       
      +0       0       0       0       0
  3764 ;;      Locals:         1       0       0       0       0       0       0       0       0       0       0       0       
      +0       0       0       0       0
  3765 ;;      Temps:          0       0       0       0       0       0       0       0       0       0       0       0       
      +0       0       0       0       0
  3766 ;;      Totals:         4       0       0       0       0       0       0       0       0       0       0       0       
      +0       0       0       0       0
  3767 ;;Total ram usage:        4 bytes
  3768 ;; Hardware stack levels used: 1
  3769 ;; This function calls:
  3770 ;;		Nothing
  3771 ;; This function is called by:
  3772 ;;		_APP_CallBack
  3773 ;; This function uses a non-reentrant model
  3774 ;;
  3775                           
  3776                           	psect	text29
  3777   00185C                     __ptext29:
  3778                           	callstack 0
  3779   00185C                     _Data_EEPROM_WriteByte:
  3780                           	callstack 24
  3781   00185C                     
  3782                           ;MCAL_Layer/EEPROM/hal_eeprom.c: 13:     uint8 Global_Interrupt_Status = INTCONbits.GIE;
  3783   00185C  0E00               	movlw	0
  3784   00185E  BEF2               	btfsc	242,7,c	;volatile
  3785   001860  0E01               	movlw	1
  3786   001862  6E4C               	movwf	Data_EEPROM_WriteByte@Global_Interrupt_Status^0,c
  3787   001864                     
  3788                           ;MCAL_Layer/EEPROM/hal_eeprom.c: 15:     EEADRH = (uint8)((bAdd >> 8) & 0x03);
  3789   001864  504A               	movf	(Data_EEPROM_WriteByte@bAdd+1)^0,w,c
  3790   001866  0B03               	andlw	3
  3791   001868  6EAA               	movwf	170,c	;volatile
  3792   00186A                     
  3793                           ;MCAL_Layer/EEPROM/hal_eeprom.c: 16:     EEADR = (uint8) (bAdd & 0xFF);
  3794   00186A  C049  FFA9         	movff	Data_EEPROM_WriteByte@bAdd,4009	;volatile
  3795   00186E                     
  3796                           ;MCAL_Layer/EEPROM/hal_eeprom.c: 18:     EEDATA = bData;
  3797   00186E  C04B  FFA8         	movff	Data_EEPROM_WriteByte@bData,4008	;volatile
  3798   001872                     
  3799                           ;MCAL_Layer/EEPROM/hal_eeprom.c: 20:     EECON1bits.EEPGD = 0;
  3800   001872  9EA6               	bcf	166,7,c	;volsfr
  3801   001874                     
  3802                           ;MCAL_Layer/EEPROM/hal_eeprom.c: 21:     EECON1bits.CFGS = 0;
  3803   001874  9CA6               	bcf	166,6,c	;volsfr
  3804   001876                     
  3805                           ;MCAL_Layer/EEPROM/hal_eeprom.c: 23:     EECON1bits.WREN = 1;
  3806   001876  84A6               	bsf	166,2,c	;volsfr
  3807   001878                     
  3808                           ;MCAL_Layer/EEPROM/hal_eeprom.c: 25:     (INTCONbits.GIE = 0);
  3809   001878  9EF2               	bcf	242,7,c	;volatile
  3810   00187A                     
  3811                           ;MCAL_Layer/EEPROM/hal_eeprom.c: 27:     EECON2 = 0x55;
  3812   00187A  0E55               	movlw	85
  3813   00187C  6EA7               	movwf	167,c	;volsfr
  3814   00187E                     
  3815                           ;MCAL_Layer/EEPROM/hal_eeprom.c: 28:     EECON2 = 0xAA;
  3816   00187E  0EAA               	movlw	170
  3817   001880  6EA7               	movwf	167,c	;volsfr
  3818   001882                     
  3819                           ;MCAL_Layer/EEPROM/hal_eeprom.c: 30:     EECON1bits.WR = 1;
  3820   001882  82A6               	bsf	166,1,c	;volsfr
  3821   001884                     i2l358:
  3822   001884  B2A6               	btfsc	166,1,c	;volsfr
  3823   001886  EF47  F00C         	goto	i2u187_41
  3824   00188A  EF49  F00C         	goto	i2u187_40
  3825   00188E                     i2u187_41:
  3826   00188E  EF42  F00C         	goto	i2l358
  3827   001892                     i2u187_40:
  3828   001892                     
  3829                           ;MCAL_Layer/EEPROM/hal_eeprom.c: 34:     EECON1bits.WREN = 0;
  3830   001892  94A6               	bcf	166,2,c	;volsfr
  3831                           
  3832                           ;MCAL_Layer/EEPROM/hal_eeprom.c: 36:     INTCONbits.GIE = Global_Interrupt_Status;
  3833   001894  B04C               	btfsc	Data_EEPROM_WriteByte@Global_Interrupt_Status^0,0,c
  3834   001896  D002               	bra	i2u188_45
  3835   001898  9EF2               	bcf	242,7,c	;volatile
  3836   00189A  D001               	bra	i2u188_46
  3837   00189C                     i2u188_45:
  3838   00189C  8EF2               	bsf	242,7,c	;volatile
  3839   00189E                     i2u188_46:
  3840   00189E                     
  3841                           ;MCAL_Layer/EEPROM/hal_eeprom.c: 37:     return ret;
  3842   00189E  0E01               	movlw	1
  3843   0018A0  0012               	return		;funcret
  3844   0018A2                     __end_of_Data_EEPROM_WriteByte:
  3845                           	callstack 0
  3846                           
  3847                           	psect	rparam
  3848   000000                     
  3849                           	psect	temp
  3850   000059                     btemp:
  3851                           	callstack 0
  3852   000059                     	ds	1
  3853   000000                     int$flags	set	btemp
  3854   000000                     wtemp8	set	btemp+1
  3855   000000                     ttemp5	set	btemp+1
  3856   000000                     ttemp6	set	btemp+4
  3857   000000                     ttemp7	set	btemp+8
  3858                           
  3859                           	psect	config
  3860                           
  3861                           ; Padding undefined space
  3862   300000                     	org	3145728
  3863   300000  FF                 	db	255
  3864                           
  3865                           ;Config register CONFIG1H @ 0x300001
  3866                           ;	Oscillator Selection bits
  3867                           ;	FOSC = RCIO6, External RC oscillator, port function on RA6
  3868                           ;	Fail-Safe Clock Monitor Enable bit
  3869                           ;	FCMEN = OFF, Fail-Safe Clock Monitor disabled
  3870                           ;	Internal/External Oscillator Switchover bit
  3871                           ;	IESO = OFF, Oscillator Switchover mode disabled
  3872   300001                     	org	3145729
  3873   300001  07                 	db	7
  3874                           
  3875                           ;Config register CONFIG2L @ 0x300002
  3876                           ;	Power-up Timer Enable bit
  3877                           ;	PWRTEN = OFF, PWRT disabled
  3878                           ;	Brown-out Reset Enable bits
  3879                           ;	BOREN = SBORDIS, Brown-out Reset enabled in hardware only (SBOREN is disabled)
  3880                           ;	Brown Out Reset Voltage bits
  3881                           ;	BORV = 18, VBOR set to 1.8 V nominal
  3882   300002                     	org	3145730
  3883   300002  1F                 	db	31
  3884                           
  3885                           ;Config register CONFIG2H @ 0x300003
  3886                           ;	Watchdog Timer Enable bit
  3887                           ;	WDTEN = ON, WDT is always enabled. SWDTEN bit has no effect
  3888                           ;	Watchdog Timer Postscale Select bits
  3889                           ;	WDTPS = 32768, 1:32768
  3890   300003                     	org	3145731
  3891   300003  1F                 	db	31
  3892                           
  3893                           ; Padding undefined space
  3894   300004                     	org	3145732
  3895   300004  FF                 	db	255
  3896                           
  3897                           ;Config register CONFIG3H @ 0x300005
  3898                           ;	CCP2 MUX bit
  3899                           ;	CCP2MX = PORTC, CCP2 input/output is multiplexed with RC1
  3900                           ;	PORTB A/D Enable bit
  3901                           ;	PBADEN = OFF, PORTB<4:0> pins are configured as digital I/O on Reset
  3902                           ;	Low-Power Timer1 Oscillator Enable bit
  3903                           ;	LPT1OSC = OFF, Timer1 configured for higher power operation
  3904                           ;	HFINTOSC Fast Start-up
  3905                           ;	HFOFST = ON, HFINTOSC starts clocking the CPU without waiting for the oscillator to st
      +                          ablize.
  3906                           ;	MCLR Pin Enable bit
  3907                           ;	MCLRE = ON, MCLR pin enabled; RE3 input pin disabled
  3908   300005                     	org	3145733
  3909   300005  89                 	db	137
  3910                           
  3911                           ;Config register CONFIG4L @ 0x300006
  3912                           ;	Stack Full/Underflow Reset Enable bit
  3913                           ;	STVREN = ON, Stack full/underflow will cause Reset
  3914                           ;	Single-Supply ICSP Enable bit
  3915                           ;	LVP = ON, Single-Supply ICSP enabled
  3916                           ;	Extended Instruction Set Enable bit
  3917                           ;	XINST = OFF, Instruction set extension and Indexed Addressing mode disabled (Legacy mo
      +                          de)
  3918                           ;	Background Debugger Enable bit
  3919                           ;	DEBUG = 0x1, unprogrammed default
  3920   300006                     	org	3145734
  3921   300006  85                 	db	133
  3922                           
  3923                           ; Padding undefined space
  3924   300007                     	org	3145735
  3925   300007  FF                 	db	255
  3926                           
  3927                           ;Config register CONFIG5L @ 0x300008
  3928                           ;	Code Protection Block 0
  3929                           ;	CP0 = OFF, Block 0 (000800-003FFFh) not code-protected
  3930                           ;	Code Protection Block 1
  3931                           ;	CP1 = OFF, Block 1 (004000-007FFFh) not code-protected
  3932                           ;	Code Protection Block 2
  3933                           ;	CP2 = OFF, Block 2 (008000-00BFFFh) not code-protected
  3934                           ;	Code Protection Block 3
  3935                           ;	CP3 = OFF, Block 3 (00C000-00FFFFh) not code-protected
  3936   300008                     	org	3145736
  3937   300008  0F                 	db	15
  3938                           
  3939                           ;Config register CONFIG5H @ 0x300009
  3940                           ;	Boot Block Code Protection bit
  3941                           ;	CPB = OFF, Boot block (000000-0007FFh) not code-protected
  3942                           ;	Data EEPROM Code Protection bit
  3943                           ;	CPD = OFF, Data EEPROM not code-protected
  3944   300009                     	org	3145737
  3945   300009  C0                 	db	192
  3946                           
  3947                           ;Config register CONFIG6L @ 0x30000A
  3948                           ;	Write Protection Block 0
  3949                           ;	WRT0 = OFF, Block 0 (000800-003FFFh) not write-protected
  3950                           ;	Write Protection Block 1
  3951                           ;	WRT1 = OFF, Block 1 (004000-007FFFh) not write-protected
  3952                           ;	Write Protection Block 2
  3953                           ;	WRT2 = OFF, Block 2 (008000-00BFFFh) not write-protected
  3954                           ;	Write Protection Block 3
  3955                           ;	WRT3 = OFF, Block 3 (00C000h-00FFFFh) not write-protected
  3956   30000A                     	org	3145738
  3957   30000A  0F                 	db	15
  3958                           
  3959                           ;Config register CONFIG6H @ 0x30000B
  3960                           ;	Configuration Register Write Protection bit
  3961                           ;	WRTC = OFF, Configuration registers (300000-3000FFh) not write-protected
  3962                           ;	Boot Block Write Protection bit
  3963                           ;	WRTB = OFF, Boot Block (000000-0007FFh) not write-protected
  3964                           ;	Data EEPROM Write Protection bit
  3965                           ;	WRTD = OFF, Data EEPROM not write-protected
  3966   30000B                     	org	3145739
  3967   30000B  E0                 	db	224
  3968                           
  3969                           ;Config register CONFIG7L @ 0x30000C
  3970                           ;	Table Read Protection Block 0
  3971                           ;	EBTR0 = OFF, Block 0 (000800-003FFFh) not protected from table reads executed in other
      +                           blocks
  3972                           ;	Table Read Protection Block 1
  3973                           ;	EBTR1 = OFF, Block 1 (004000-007FFFh) not protected from table reads executed in other
      +                           blocks
  3974                           ;	Table Read Protection Block 2
  3975                           ;	EBTR2 = OFF, Block 2 (008000-00BFFFh) not protected from table reads executed in other
      +                           blocks
  3976                           ;	Table Read Protection Block 3
  3977                           ;	EBTR3 = OFF, Block 3 (00C000-00FFFFh) not protected from table reads executed in other
      +                           blocks
  3978   30000C                     	org	3145740
  3979   30000C  0F                 	db	15
  3980                           
  3981                           ;Config register CONFIG7H @ 0x30000D
  3982                           ;	Boot Block Table Read Protection bit
  3983                           ;	EBTRB = OFF, Boot Block (000000-0007FFh) not protected from table reads executed in ot
      +                          her blocks
  3984   30000D                     	org	3145741
  3985   30000D  40                 	db	64
  3986                           tosu	equ	0xFFF
  3987                           tosh	equ	0xFFE
  3988                           tosl	equ	0xFFD
  3989                           stkptr	equ	0xFFC
  3990                           pclatu	equ	0xFFB
  3991                           pclath	equ	0xFFA
  3992                           pcl	equ	0xFF9
  3993                           tblptru	equ	0xFF8
  3994                           tblptrh	equ	0xFF7
  3995                           tblptrl	equ	0xFF6
  3996                           tablat	equ	0xFF5
  3997                           prodh	equ	0xFF4
  3998                           prodl	equ	0xFF3
  3999                           indf0	equ	0xFEF
  4000                           postinc0	equ	0xFEE
  4001                           postdec0	equ	0xFED
  4002                           preinc0	equ	0xFEC
  4003                           plusw0	equ	0xFEB
  4004                           fsr0h	equ	0xFEA
  4005                           fsr0l	equ	0xFE9
  4006                           wreg	equ	0xFE8
  4007                           indf1	equ	0xFE7
  4008                           postinc1	equ	0xFE6
  4009                           postdec1	equ	0xFE5
  4010                           preinc1	equ	0xFE4
  4011                           plusw1	equ	0xFE3
  4012                           fsr1h	equ	0xFE2
  4013                           fsr1l	equ	0xFE1
  4014                           bsr	equ	0xFE0
  4015                           indf2	equ	0xFDF
  4016                           postinc2	equ	0xFDE
  4017                           postdec2	equ	0xFDD
  4018                           preinc2	equ	0xFDC
  4019                           plusw2	equ	0xFDB
  4020                           fsr2h	equ	0xFDA
  4021                           fsr2l	equ	0xFD9
  4022                           status	equ	0xFD8

Data Sizes:
    Strings     3
    Constant    16
    Data        42
    BSS         30
    Persistent  1
    Stack       0

Auto Spaces:
    Space          Size  Autos    Used
    COMRAM           94     15      88
    BANK0           160      6       6
    BANK1           256      0       0
    BANK2           256      0       0
    BANK3           256      0       0
    BANK4           256      0       0
    BANK5           256      0       0
    BANK6           256      0       0
    BANK7           256      0       0
    BANK8           256      0       0
    BANK9           256      0       0
    BANK10          256      0       0
    BANK11          256      0       0
    BANK12          256      0       0
    BANK13          256      0       0
    BANK14          256      0       0
    BANK15           96      0       0

Pointer List with Targets:

    Data_EEPROM_ReadByte@bData	PTR unsigned char  size(1) Largest target is 1
		 -> program_selected(COMRAM[1]), 

    f$.$buffer	PTR unsigned char  size(2) Largest target is 0

    f$.$source	PTR const unsigned char  size(2) Largest target is 0

    gpio_pin_direction_intialize@_pin_config	PTR const struct . size(1) Largest target is 6
		 -> int0_obj(COMRAM[6]), led_initialize@pin_obj(BANK0[1]), relay_initialize@pin_obj(COMRAM[1]), 

    gpio_pin_intialize@_pin_config	PTR const struct . size(1) Largest target is 1
		 -> led_initialize@pin_obj(BANK0[1]), relay_initialize@pin_obj(COMRAM[1]), 

    gpio_pin_write_logic@_pin_config	PTR const struct . size(1) Largest target is 1
		 -> led_initialize@pin_obj(BANK0[1]), led_turn_off@pin_obj(BANK0[1]), led_turn_on@pin_obj(BANK0[1]), relay_initialize@pin_obj(COMRAM[1]), 
		 -> relay_turn_off@pin_obj(COMRAM[1]), relay_turn_on@pin_obj(COMRAM[1]), 

    INT0_InterruptHandler	PTR FTN()void  size(2) Largest target is 1
		 -> APP_CallBack(), NULL(), 

    int0_obj$EXT_InterruptHandler	PTR FTN()void  size(2) Largest target is 1
		 -> APP_CallBack(), 

    INT0_SetInterruptHandler@InterruptHandler	PTR FTN()void  size(2) Largest target is 1
		 -> APP_CallBack(), 

    INT1_InterruptHandler	PTR FTN()void  size(2) Largest target is 1
		 -> APP_CallBack(), NULL(), 

    INT1_SetInterruptHandler@InterruptHandler	PTR FTN()void  size(2) Largest target is 1
		 -> APP_CallBack(), 

    INT2_InterruptHandler	PTR FTN()void  size(2) Largest target is 1
		 -> APP_CallBack(), NULL(), 

    INT2_SetInterruptHandler@InterruptHandler	PTR FTN()void  size(2) Largest target is 1
		 -> APP_CallBack(), 

    Interrupt_INTx_Clear_Flag@int_obj	PTR const struct . size(1) Largest target is 6
		 -> int0_obj(COMRAM[6]), 

    Interrupt_INTx_Clear_Flag@int_obj$EXT_InterruptHandler	PTR FTN()void  size(2) Largest target is 1
		 -> APP_CallBack(), 

    Interrupt_INTx_Disable@int_obj	PTR const struct . size(1) Largest target is 6
		 -> int0_obj(COMRAM[6]), 

    Interrupt_INTx_Disable@int_obj$EXT_InterruptHandler	PTR FTN()void  size(2) Largest target is 1
		 -> APP_CallBack(), 

    Interrupt_INTx_Edge_Init@int_obj	PTR const struct . size(1) Largest target is 6
		 -> int0_obj(COMRAM[6]), 

    Interrupt_INTx_Edge_Init@int_obj$EXT_InterruptHandler	PTR FTN()void  size(2) Largest target is 1
		 -> APP_CallBack(), 

    Interrupt_INTx_Enable@int_obj	PTR const struct . size(1) Largest target is 6
		 -> int0_obj(COMRAM[6]), 

    Interrupt_INTx_Enable@int_obj$EXT_InterruptHandler	PTR FTN()void  size(2) Largest target is 1
		 -> APP_CallBack(), 

    Interrupt_INTx_Init@int_obj	PTR const struct . size(1) Largest target is 6
		 -> int0_obj(COMRAM[6]), 

    Interrupt_INTx_Pin_Init@int_obj	PTR const struct . size(1) Largest target is 6
		 -> int0_obj(COMRAM[6]), 

    Interrupt_INTx_Pin_Init@int_obj$EXT_InterruptHandler	PTR FTN()void  size(2) Largest target is 1
		 -> APP_CallBack(), 

    Interrupt_INTx_SetInterruptHandler@int_obj	PTR const struct . size(1) Largest target is 6
		 -> int0_obj(COMRAM[6]), 

    Interrupt_INTx_SetInterruptHandler@int_obj$EXT_InterruptHandler	PTR FTN()void  size(2) Largest target is 1
		 -> APP_CallBack(), 

    Interrupt_RBx_Init@int_obj$EXT_InterruptHandler_HIGH	PTR FTN()void  size(2) Largest target is 0

    Interrupt_RBx_Init@int_obj$EXT_InterruptHandler_LOW	PTR FTN()void  size(2) Largest target is 0

    lat_registers	PTR volatile unsigned char [5] size(2) Largest target is 1
		 -> LATA(BITBIGSFRllllll[1]), LATB(BITBIGSFRllllh[1]), LATC(BITBIGSFRllllh[1]), LATD(BITBIGSFRllllh[1]), 
		 -> LATE(BITBIGSFRllllh[1]), 

    led_initialize@led	PTR const struct . size(1) Largest target is 1
		 -> led_1(COMRAM[1]), led_2(COMRAM[1]), 

    led_turn_off@led	PTR const struct . size(1) Largest target is 1
		 -> led_1(COMRAM[1]), led_2(COMRAM[1]), 

    led_turn_on@led	PTR const struct . size(1) Largest target is 1
		 -> led_1(COMRAM[1]), led_2(COMRAM[1]), 

    port_registers	PTR volatile unsigned char [5] size(2) Largest target is 1
		 -> PORTA(BITBIGSFRllllll[1]), PORTB(BITBIGSFRlllllh[1]), PORTC(BITBIGSFRlllllh[1]), PORTD(BITBIGSFRlllllh[1]), 
		 -> PORTE(BITBIGSFRlllllh[1]), 

    RB4_InterruptHandler_HIGH	PTR FTN()void  size(2) Largest target is 1
		 -> NULL(), 

    RB4_InterruptHandler_LOW	PTR FTN()void  size(2) Largest target is 1
		 -> NULL(), 

    RB5_InterruptHandler_HIGH	PTR FTN()void  size(2) Largest target is 1
		 -> NULL(), 

    RB5_InterruptHandler_LOW	PTR FTN()void  size(2) Largest target is 1
		 -> NULL(), 

    RB6_InterruptHandler_HIGH	PTR FTN()void  size(2) Largest target is 1
		 -> NULL(), 

    RB6_InterruptHandler_LOW	PTR FTN()void  size(2) Largest target is 1
		 -> NULL(), 

    RB7_InterruptHandler_HIGH	PTR FTN()void  size(2) Largest target is 1
		 -> NULL(), 

    RB7_InterruptHandler_LOW	PTR FTN()void  size(2) Largest target is 1
		 -> NULL(), 

    S1089$EXT_InterruptHandler	PTR FTN()void  size(2) Largest target is 1
		 -> APP_CallBack(), 

    S1187$EXT_InterruptHandler_HIGH	PTR FTN()void  size(2) Largest target is 0

    S1187$EXT_InterruptHandler_LOW	PTR FTN()void  size(2) Largest target is 0

    S1944$buffer	PTR unsigned char  size(2) Largest target is 0

    S1944$source	PTR const unsigned char  size(2) Largest target is 0

    sp__memset	PTR void  size(2) Largest target is 0

    tris_registers	PTR volatile unsigned char [5] size(2) Largest target is 1
		 -> TRISA(BITBIGSFRllllll[1]), TRISB(BITBIGSFRlllh[1]), TRISC(BITBIGSFRlllh[1]), TRISD(BITBIGSFRlllh[1]), 
		 -> TRISE(BITBIGSFRlllh[1]), 

    vfprintf$0	PTR struct _IO_FILE size(1) Largest target is 12
		 -> sprintf@f(COMRAM[12]), 

    vfprintf$1	PTR const unsigned char  size(1) Largest target is 3
		 -> STR_1(CODE[3]), STR_2(CODE[3]), STR_3(CODE[3]), 

    vfprintf$2	PTR PTR void  size(1) Largest target is 1
		 -> sprintf@ap(COMRAM[1]), 


Critical Paths under _main in COMRAM

    _main->_led_turn_off
    _program_2->_led_turn_off
    _program_2->_led_turn_on
    _program_1->_led_turn_off
    _program_1->_led_turn_on
    _led_turn_on->_gpio_pin_write_logic
    _led_turn_off->_gpio_pin_write_logic
    _led_initialize->_gpio_pin_intialize
    _gpio_pin_intialize->_gpio_pin_write_logic
    _Interrupt_INTx_Init->_Interrupt_INTx_Pin_Init
    _Interrupt_INTx_SetInterruptHandler->_INT0_SetInterruptHandler
    _Interrupt_INTx_SetInterruptHandler->_INT1_SetInterruptHandler
    _Interrupt_INTx_SetInterruptHandler->_INT2_SetInterruptHandler
    _Interrupt_INTx_Pin_Init->_gpio_pin_direction_intialize

Critical Paths under _InterruptManager in COMRAM

    _APP_CallBack->_Data_EEPROM_WriteByte

Critical Paths under _main in BANK0

    _main->_led_initialize
    _program_2->_led_turn_off
    _program_2->_led_turn_on
    _program_1->_led_turn_off
    _program_1->_led_turn_on
    _led_initialize->_gpio_pin_intialize

Critical Paths under _InterruptManager in BANK0

    None.

Critical Paths under _main in BANK1

    None.

Critical Paths under _InterruptManager in BANK1

    None.

Critical Paths under _main in BANK2

    None.

Critical Paths under _InterruptManager in BANK2

    None.

Critical Paths under _main in BANK3

    None.

Critical Paths under _InterruptManager in BANK3

    None.

Critical Paths under _main in BANK4

    None.

Critical Paths under _InterruptManager in BANK4

    None.

Critical Paths under _main in BANK5

    None.

Critical Paths under _InterruptManager in BANK5

    None.

Critical Paths under _main in BANK6

    None.

Critical Paths under _InterruptManager in BANK6

    None.

Critical Paths under _main in BANK7

    None.

Critical Paths under _InterruptManager in BANK7

    None.

Critical Paths under _main in BANK8

    None.

Critical Paths under _InterruptManager in BANK8

    None.

Critical Paths under _main in BANK9

    None.

Critical Paths under _InterruptManager in BANK9

    None.

Critical Paths under _main in BANK10

    None.

Critical Paths under _InterruptManager in BANK10

    None.

Critical Paths under _main in BANK11

    None.

Critical Paths under _InterruptManager in BANK11

    None.

Critical Paths under _main in BANK12

    None.

Critical Paths under _InterruptManager in BANK12

    None.

Critical Paths under _main in BANK13

    None.

Critical Paths under _InterruptManager in BANK13

    None.

Critical Paths under _main in BANK14

    None.

Critical Paths under _InterruptManager in BANK14

    None.

Critical Paths under _main in BANK15

    None.

Critical Paths under _InterruptManager in BANK15

    None.

Call Graph Tables:

 ---------------------------------------------------------------------------------
 (Depth) Function   	        Calls       Base Space   Used Autos Params    Refs
 ---------------------------------------------------------------------------------
 (0) _main                                                 0     0      0   43563
               _Data_EEPROM_ReadByte
                _Interrupt_INTx_Init
                     _led_initialize
                       _led_turn_off
                          _program_1
                          _program_2
 ---------------------------------------------------------------------------------
 (1) _program_2                                            2     2      0   12610
                                              2 BANK0      2     2      0
                       _led_turn_off
                        _led_turn_on
 ---------------------------------------------------------------------------------
 (1) _program_1                                            2     2      0   12610
                                              2 BANK0      2     2      0
                       _led_turn_off
                        _led_turn_on
 ---------------------------------------------------------------------------------
 (2) _led_turn_on                                          4     3      1    6215
                                             14 COMRAM     1     0      1
                                              0 BANK0      2     2      0
               _gpio_pin_write_logic
 ---------------------------------------------------------------------------------
 (2) _led_turn_off                                         4     3      1    6395
                                             14 COMRAM     1     0      1
                                              0 BANK0      2     2      0
               _gpio_pin_write_logic
 ---------------------------------------------------------------------------------
 (1) _led_initialize                                       4     3      1    8518
                                              2 BANK0      4     3      1
                 _gpio_pin_intialize
 ---------------------------------------------------------------------------------
 (2) _gpio_pin_intialize                                   3     2      1    8092
                                             14 COMRAM     1     0      1
                                              0 BANK0      2     2      0
       _gpio_pin_direction_intialize
               _gpio_pin_write_logic
 ---------------------------------------------------------------------------------
 (3) _gpio_pin_write_logic                                 8     6      2    5837
                                              6 COMRAM     8     6      2
 ---------------------------------------------------------------------------------
 (1) _Interrupt_INTx_Init                                  2     1      1    3166
                                              0 BANK0      2     1      1
          _Interrupt_INTx_Clear_Flag
             _Interrupt_INTx_Disable
           _Interrupt_INTx_Edge_Init
              _Interrupt_INTx_Enable
            _Interrupt_INTx_Pin_Init
 _Interrupt_INTx_SetInterruptHandler
 ---------------------------------------------------------------------------------
 (2) _Interrupt_INTx_SetInterruptHandler                   4     3      1     861
                                              9 COMRAM     4     3      1
           _INT0_SetInterruptHandler
           _INT1_SetInterruptHandler
           _INT2_SetInterruptHandler
 ---------------------------------------------------------------------------------
 (3) _INT2_SetInterruptHandler                             3     1      2     189
                                              6 COMRAM     3     1      2
 ---------------------------------------------------------------------------------
 (3) _INT1_SetInterruptHandler                             3     1      2     189
                                              6 COMRAM     3     1      2
 ---------------------------------------------------------------------------------
 (3) _INT0_SetInterruptHandler                             3     1      2     189
                                              6 COMRAM     3     1      2
 ---------------------------------------------------------------------------------
 (2) _Interrupt_INTx_Pin_Init                              2     1      1     899
                                             13 COMRAM     2     1      1
       _gpio_pin_direction_intialize
 ---------------------------------------------------------------------------------
 (3) _gpio_pin_direction_intialize                         7     6      1     707
                                              6 COMRAM     7     6      1
 ---------------------------------------------------------------------------------
 (2) _Interrupt_INTx_Enable                                4     3      1     192
                                              6 COMRAM     3     2      1
 ---------------------------------------------------------------------------------
 (2) _Interrupt_INTx_Edge_Init                             4     3      1     378
                                              6 COMRAM     3     2      1
 ---------------------------------------------------------------------------------
 (2) _Interrupt_INTx_Disable                               4     3      1     282
                                              6 COMRAM     3     2      1
 ---------------------------------------------------------------------------------
 (2) _Interrupt_INTx_Clear_Flag                            4     3      1     192
                                              6 COMRAM     3     2      1
 ---------------------------------------------------------------------------------
 (1) _Data_EEPROM_ReadByte                                 4     1      3     264
                                              6 COMRAM     4     1      3
 ---------------------------------------------------------------------------------
 Estimated maximum stack depth 3
 ---------------------------------------------------------------------------------
 (Depth) Function   	        Calls       Base Space   Used Autos Params    Refs
 ---------------------------------------------------------------------------------
 (4) _InterruptManager                                     2     2      0     912
                                              4 COMRAM     2     2      0
                           _INT0_ISR
                           _INT1_ISR
                           _INT2_ISR
                            _RB4_ISR
                            _RB5_ISR
                            _RB6_ISR
                            _RB7_ISR
 ---------------------------------------------------------------------------------
 (5) _RB7_ISR                                              1     1      0      30
                                              0 COMRAM     1     1      0
 ---------------------------------------------------------------------------------
 (5) _RB6_ISR                                              1     1      0      30
                                              0 COMRAM     1     1      0
 ---------------------------------------------------------------------------------
 (5) _RB5_ISR                                              1     1      0      30
                                              0 COMRAM     1     1      0
 ---------------------------------------------------------------------------------
 (5) _RB4_ISR                                              1     1      0      30
                                              0 COMRAM     1     1      0
 ---------------------------------------------------------------------------------
 (5) _INT2_ISR                                             0     0      0     264
                                NULL *
                       _APP_CallBack *
 ---------------------------------------------------------------------------------
 (5) _INT1_ISR                                             0     0      0     264
                                NULL *
                       _APP_CallBack *
 ---------------------------------------------------------------------------------
 (5) _INT0_ISR                                             0     0      0     264
                                NULL *
                       _APP_CallBack *
 ---------------------------------------------------------------------------------
 (6) _APP_CallBack                                         0     0      0     264
              _Data_EEPROM_WriteByte
 ---------------------------------------------------------------------------------
 (7) _Data_EEPROM_WriteByte                                5     2      3     264
                                              0 COMRAM     4     1      3
 ---------------------------------------------------------------------------------
 (6) NULL(Fake)                                            0     0      0       0
 ---------------------------------------------------------------------------------
 Estimated maximum stack depth 7
 ---------------------------------------------------------------------------------

 Call Graph Graphs:

 _main (ROOT)
   _Data_EEPROM_ReadByte
   _Interrupt_INTx_Init
     _Interrupt_INTx_Clear_Flag
     _Interrupt_INTx_Disable
     _Interrupt_INTx_Edge_Init
     _Interrupt_INTx_Enable
     _Interrupt_INTx_Pin_Init
       _gpio_pin_direction_intialize
     _Interrupt_INTx_SetInterruptHandler
       _INT0_SetInterruptHandler
       _INT1_SetInterruptHandler
       _INT2_SetInterruptHandler
   _led_initialize
     _gpio_pin_intialize
       _gpio_pin_direction_intialize
       _gpio_pin_write_logic
   _led_turn_off
     _gpio_pin_write_logic
   _program_1
     _led_turn_off
     _led_turn_on
       _gpio_pin_write_logic
   _program_2
     _led_turn_off
     _led_turn_on

 _InterruptManager (ROOT)
   _INT0_ISR
     NULL(Fake) *
     _APP_CallBack *
       _Data_EEPROM_WriteByte
   _INT1_ISR
     NULL(Fake) *
     _APP_CallBack *
   _INT2_ISR
     NULL(Fake) *
     _APP_CallBack *
   _RB4_ISR
   _RB5_ISR
   _RB6_ISR
   _RB7_ISR

 Address spaces:
Name               Size   Autos  Total    Cost      Usage
BIGRAM             F5F      0       0      43        0.0%
EEDATA             400      0       0       0        0.0%
BITBANK14          100      0       0      32        0.0%
BANK14             100      0       0      33        0.0%
BITBANK13          100      0       0      30        0.0%
BANK13             100      0       0      31        0.0%
BITBANK12          100      0       0      28        0.0%
BANK12             100      0       0      29        0.0%
BITBANK11          100      0       0      26        0.0%
BANK11             100      0       0      27        0.0%
BITBANK10          100      0       0      24        0.0%
BANK10             100      0       0      25        0.0%
BITBANK9           100      0       0      22        0.0%
BANK9              100      0       0      23        0.0%
BITBANK8           100      0       0      20        0.0%
BANK8              100      0       0      21        0.0%
BITBANK7           100      0       0      18        0.0%
BANK7              100      0       0      19        0.0%
BITBANK6           100      0       0      16        0.0%
BANK6              100      0       0      17        0.0%
BITBANK5           100      0       0      14        0.0%
BANK5              100      0       0      15        0.0%
BITBANK4           100      0       0      12        0.0%
BANK4              100      0       0      13        0.0%
BITBANK3           100      0       0      10        0.0%
BANK3              100      0       0      11        0.0%
BITBANK2           100      0       0       8        0.0%
BANK2              100      0       0       9        0.0%
BITBANK1           100      0       0       6        0.0%
BANK1              100      0       0       7        0.0%
BITBANK0            A0      0       0       4        0.0%
BANK0               A0      6       6       5        3.8%
BITBANK15           60      0       0      34        0.0%
BANK15              60      0       0      35        0.0%
BITCOMRAM           5E      0       0       0        0.0%
COMRAM              5E      F      58       1       93.6%
BITBIGSFRlhl        45      0       0      37        0.0%
BITBIGSFRllllll     20      0       0      41        0.0%
BITBIGSFRlllh        F      0       0      38        0.0%
BITBIGSFRh           D      0       0      36        0.0%
BITBIGSFRlllllh      4      0       0      40        0.0%
BITBIGSFRllllh       4      0       0      39        0.0%
BIGSFR               0      0       0     200        0.0%
BITSFR               0      0       0     200        0.0%
SFR                  0      0       0     200        0.0%
STACK                0      0       0       2        0.0%
NULL                 0      0       0       0        0.0%
ABS                  0      0      5E      42        0.0%
DATA                 0      0      5E       3        0.0%
CODE                 0      0       0       0        0.0%


Microchip Technology PIC18 Macro Assembler V2.46 build 20240104201356 
Symbol Table                                                                                   Fri Aug 30 12:02:00 2024

                          ??_InterruptManager 004D                                ??_APP_CallBack 004D  
                                         l300 15D6                                           l304 162E  
                                         l414 123A                                           l433 134A  
                                         l290 14E0                                           l293 1568  
                                         l366 18DE                                           l702 1128  
                                         l454 1694                                           l286 148A  
                                         l713 1776                                           l297 15C0  
                                         l715 177C                                           l707 1A9A  
                                         l723 1A72                                           l716 1782  
                                         l733 1A1E                                           l718 17C6  
                                         l663 14F6                                           l583 16FA  
                                         l728 1A48                                           l744 13EA  
                                         l665 1500                                           l674 1710  
                                         l690 1126                                           l666 150A  
                                         l676 1716                                           l668 1552  
                                         l677 171C                                           l679 1760  
                                         l794 185A                                           l797 1810  
                  ??_INT0_SetInterruptHandler 0051                     _RB5_InterruptHandler_HIGH 0035  
                                         _ret 0058                           led_initialize@F3310 0047  
                                         tosl 0FFD                                           wreg 0FE8  
                       relay_initialize@F3304 0043                                  ?_led_turn_on 0057  
                             __end_of_RB4_ISR 1B04                               __end_of_RB5_ISR 1AEA  
                             __end_of_RB6_ISR 1AD0                               __end_of_RB7_ISR 1AB6  
                                        l4001 1A4A                                          l4003 1A4E  
                                        l4005 1A60                                          l4021 1A46  
                                        l4013 1A20                                          l4007 1A68  
                                        l4015 1A24                                          l4031 1A14  
                                        l4201 106A                                          l4009 1A70  
                                        l4017 1A36                                          l4033 1A1C  
                                        l4025 19F6                                          l5001 13CA  
                                        l4041 1662                                          l4211 10C4  
                                        l4203 1084                                          l5003 1532  
                                        l4019 1A3E                                          l4027 19FA  
                                        l4043 166C                                          l4131 1564  
                                        l5005 1108                                          l4213 10CA  
                                        l4205 108A                                          l4221 1126  
                                        l4029 1A0C                                          l4045 1692  
                                        l4037 1630                                          l4133 156C  
                                        l5007 1740                                          l4215 10E4  
                                        l4207 10A4                                          l4231 1A84  
                                        l4039 1640                                          l4151 1610  
                                        l4143 15C2                                          l4135 15A0  
                                        l3281 18C8                                          l3273 18A2  
                                        l5009 17A6                                          l4209 10AA  
                                        l4233 1A8C                                          l4241 135C  
                                        l4153 1622                                          l4145 15D2  
                                        l4137 15A2                                          l4129 1554  
                                        l3291 18D2                                          l3283 18CA  
                                        l3275 18B6                                          l4163 1722  
                                        l4219 10EA                                          l4235 1A98  
                                        l4243 1364                                          l4251 13AC  
                                        l4147 15DA                                          l4139 15B4  
                                        l3285 18CC                                          l3293 18DC  
                                        l3277 18BE                                          l4181 17C4  
                                        l4173 1762                                          l4165 175E  
                                        l4157 16FC                                          l4261 14E2  
                                        l4229 1A74                                          l4245 137C  
                                        l4253 13E8                                          l4341 1482  
                                        l4149 160E                                          l3287 18CE  
                                        l3279 18C4                                          l4175 1772  
                                        l4159 170C                                          l4191 1026  
                                        l4263 14F2                                          l4247 1394  
                                        l4239 134C                                          l4343 148E  
                                        l4351 14DC                                          l3289 18D0  
                                        l4193 102A                                          l4361 16D4  
                                        l4345 14C0                                          l4179 1788  
                                        l4195 1044                                          l4267 1514  
                                        l4363 16E0                                          l4355 1696  
                                        l4347 14C2                                          l4339 146C  
                                        l4371 1812                                          l4197 104A  
                                        l4189 1016                                          l4269 1550  
                                        l4365 16EC                                          l4357 16A8  
                                        l4349 14D4                                          l4373 181A  
                                        l4381 17EC                                          l4199 1064  
                                        l4367 16F8                                          l4359 16B0  
                                        l4375 1836                                          l4377 17C8  
                                        l4379 17D0                                          l3961 123C  
                                        l3963 1250                                          l3973 131E  
                                        l3965 1270                                          l3991 11BC  
                                        l3983 112A                                          l3967 1278  
                                        l3975 1348                                          l4871 1432  
                                        l3985 113E                                          l3969 12CE  
                                        l4873 143A                                          l4865 13EC  
                                        l3995 120C                                          l3987 115E  
                                        l4875 144C                                          l4867 1410  
                                        l3989 1166                                          l3997 1238  
                                        l4877 1454                                          l4869 1422  
                     ??_Data_EEPROM_WriteByte 004C                                          l4999 1332  
                                        STR_1 1011                                          _LATA 0F89  
                                        _LATB 0F8A                                          _LATC 0F8B  
                                        _LATD 0F8C                                          _LATE 0F8D  
                                        u3210 1250                                          u3211 124C  
                                        u2260 18B6                                          u3300 1A60  
                                        u3220 1270                                          u2261 18B2  
                                        u3301 1A5C                                          u3221 126C  
                                        u3310 1A36                                          u3311 1A32  
                                        u3320 1A0C                                          u3321 1A08  
                                        u3250 113E                                          u3234 1296  
                                        u3330 1640                                          u3251 113A  
                                        u3235 1292                                          u3331 163C  
                                        u3500 1064                                          u3260 115E  
                                        u3244 12EC                                          u3340 1662  
                                        u3420 1564                                          u4140 1432  
                                        u3501 1060                                          u3261 115A  
                                        u3245 12E8                                          u3341 165E  
                                        u3421 1560                                          u4141 142E  
                                        u3510 1084                                          u4150 144C  
                                        u3511 1080                                          u4151 1448  
                                        u3520 10A4                                          u3440 15D2  
                                        u3521 10A0                                          u3441 15CE  
                                        u3530 10C4                                          u3290 1222  
                                        u3274 1184                                          u3531 10C0  
                                        u3291 121C                                          u3275 1180  
                                        u3435 15B0                                          u3460 170C  
                                        u3540 10E4                                          u3284 11DA  
                                        u3461 1708                                          u3541 10E0  
                                        u3285 11D6                                          u3437 15B4  
                                        u3470 1772                                          u3550 1A84  
                                        u3471 176E                                          u3551 1A80  
                                        u3455 161E                                          u4167 17DC  
                                        u3480 1026                                          u3296 1224  
                                        u3560 135C                                          u3640 1482  
                                        u3481 1022                                          u3561 1358  
                                        u3641 147E                                          u3457 1622  
                                        u4177 1800                                          u3490 1044  
                                        u3570 14F2                                          u3491 1040  
                                        u3571 14EE                                          u4187 1826  
                                        u3660 16A8                                          u3661 16A4  
                                        u4197 184A                                          u3655 14D0  
                                        u3657 14D4                      _RB4_InterruptHandler_LOW 0037  
                                        _main 13EC                      _RB7_InterruptHandler_LOW 002B  
                                        fsr2h 0FDA                                          indf2 0FDF  
                                        fsr1l 0FE1                                          fsr2l 0FD9  
                                        btemp 0059                        __end_of_led_initialize 14E2  
                   ?_INT2_SetInterruptHandler 004F                                          prodl 0FF3  
                                        start 029E                                 ?_led_turn_off 0057  
                                ___param_bank 0000                          _gpio_pin_write_logic 123C  
                            __end_of_INT0_ISR 19A0                              __end_of_INT1_ISR 1972  
                            __end_of_INT2_ISR 1944                     ?_Interrupt_INTx_Edge_Init 004F  
                                       ?_main 0049                                         _EEADR 0FA9  
                                       i2l360 1892                                         i2l361 18A0  
                                       i2l521 0072                                         i2l530 01C6  
                                       i2l523 00B6                                         i2l605 1B02  
                                       i2l533 024E                                         i2l525 00FA  
                                       i2l517 0032                                         i2l358 1884  
                                       i2l615 1AE8                                         i2l527 013E  
                                       i2l519 0052                                         i2l536 0292  
                                       i2l625 1ACE                                         i2l802 19CA  
                                       i2l635 1AB4                                         i2l591 1970  
                                       i2l587 199E                                         i2l595 1942  
                         relay_turn_off@F3314 0041                                         _PORTA 0F80  
                                       _PORTB 0F81                                         _PORTC 0F82  
                                       _PORTD 0F83                                         _PORTE 0F84  
                                       _TRISA 0F92                                         _TRISB 0F93  
                                       _TRISC 0F94                                         _TRISD 0F95  
                                       _TRISE 0F96                                         _led_1 002A  
                                       _led_2 0029                      _INT1_SetInterruptHandler 1A20  
                                       pclath 0FFA                                         pclatu 0FFB  
                                       tablat 0FF5                                         ttemp5 005A  
                                       ttemp6 005D                                         ttemp7 0061  
                                       status 0FD8                                         wtemp8 005A  
                             ?_led_initialize 0062                        _Interrupt_INTx_Disable 16FC  
                __end_of_Data_EEPROM_ReadByte 18E0                                ??_led_turn_off 0060  
   Interrupt_INTx_SetInterruptHandler@int_obj 0052                               __initialization 18E0  
                                __end_of_main 146C                         ?_gpio_pin_write_logic 004F  
                               _lat_registers 000B                   INT1_SetInterruptHandler@ret 0051  
                                      ??_main 0058                                 __activetblptr 0003  
                            led_turn_on@F3315 0046                                     ??_RB4_ISR 0049  
                                   ??_RB5_ISR 0049                                     ??_RB6_ISR 0049  
                                   ??_RB7_ISR 0049                                        _EEADRH 0FAA  
                                      _EEDATA 0FA8                                        _EECON2 0FA7  
                                      i2l2003 1ACE                                        i2l2011 1AA0  
                                      i2l2017 1AB4                                        i2l2009 1A9E  
                                      i2l3301 1986                                        i2l3303 1944  
                                      i2l3311 1918                                        i2l3305 1946  
                                      i2l3313 192A                                        i2l3307 1958  
                                      i2l3309 1916                                        i2l3191 19B4  
                                      i2l3193 19B8                  Interrupt_INTx_Enable@int_obj 004F  
                                      i2l3187 19A0                                        i2l2901 187A  
                                      i2l3189 19A2                                        i2l2903 187E  
                                      i2l2905 1882                                        i2l3297 1972  
                                      i2l3801 008E                                        i2l2907 189E  
                                      i2l3299 1974                                        i2l3811 00D2  
                                      i2l3803 009C                                        i2l1981 1AD2  
                                      i2l3821 0116                                        i2l3813 00E0  
                                      i2l3805 00AC                                        i2l1975 1B02  
                                      i2l1967 1AEC                                        i2l1983 1AD4  
                                      i2l3831 015A                                        i2l3823 0124  
                                      i2l3815 00F0                                        i2l3807 00B0  
                                      i2l1969 1AEE                                        i2l3841 0190  
                                      i2l3833 0168                                        i2l3825 0134  
                                      i2l3817 00F4                                        i2l3809 00C4  
                                      i2l2891 186E                                        i2l2883 185C  
                                      i2l1995 1AB8                                        i2l3851 01D4  
                                      i2l3843 019E                                        i2l3835 0178  
                                      i2l3827 0138                                        i2l3819 0108  
                                      i2l2893 1872                                        i2l2885 185C  
                                      i2l1989 1AE8                                        i2l1997 1ABA  
                                      i2l3853 01E2                                        i2l3861 020A  
                                      i2l3845 01AC                                        i2l3837 017C  
                                      i2l3829 014C                                        i2l2895 1874  
                                      i2l2887 1864                                        i2l3871 0248  
                                      i2l3863 0218                                        i2l3855 01F0  
                                      i2l3847 01BC                                        i2l3839 0182  
                                      i2l3791 0040                                        i2l2897 1876  
                                      i2l2889 186A                                        i2l3881 028C  
                                      i2l3873 025C                                        i2l3865 0226  
                                      i2l3857 0200                                        i2l3849 01C0  
                                      i2l3793 004E                                        i2l3785 0012  
                                      i2l2899 1878                                        i2l3875 026A  
                                      i2l3867 0234                                        i2l3859 0204  
                                      i2l3795 0060                                        i2l3787 0020  
                                      i2l3877 0278                                        i2l3869 0244  
                                      i2l3797 006E                                        i2l3789 002E  
                                      i2l3879 0288                                        i2l3799 0080  
                        __end_of_APP_CallBack 19CC                    ?_Interrupt_INTx_Clear_Flag 004F  
                                      clear_0 1906                         led_initialize@pin_obj 0065  
                                      isa$std 0001                 __end_of_Interrupt_INTx_Enable 1554  
     gpio_pin_direction_intialize@_pin_config 004F                                  __pdataCOMRAM 0001  
                                __mediumconst 0000                                        tblptrh 0FF7  
                                      tblptrl 0FF6                                        tblptru 0FF8  
    INT2_SetInterruptHandler@InterruptHandler 004F      INT1_SetInterruptHandler@InterruptHandler 004F  
    INT0_SetInterruptHandler@InterruptHandler 004F                                    __accesstop 0060  
                     __end_of__initialization 190C                                     ?_INT0_ISR 0049  
                                   ?_INT1_ISR 0049                                     ?_INT2_ISR 0049  
                               ___rparam_used 0001             __end_of_Interrupt_INTx_Clear_Flag 17C8  
                           led_initialize@led 0062                             led_initialize@ret 0064  
                     _Interrupt_INTx_Pin_Init 1A74                        ??_gpio_pin_write_logic 0051  
                              __pcstackCOMRAM 0049                             RB5_ISR@RB5_source 0049  
                     Data_EEPROM_ReadByte@ret 0052                          _Data_EEPROM_ReadByte 18A2  
                        __end_of_led_turn_off 1630              __end_of_INT2_SetInterruptHandler 1A20  
                 __end_of_Interrupt_INTx_Init 16FC                 __end_of_Data_EEPROM_WriteByte 18A2  
                       _INT0_InterruptHandler 003F                                    ??_INT0_ISR 004D  
                                  ??_INT1_ISR 004D                                    ??_INT2_ISR 004D  
                                  __pnvCOMRAM 0058              __end_of_Interrupt_INTx_Edge_Init 112A  
                           led_turn_off@F3320 0045    __end_of_Interrupt_INTx_SetInterruptHandler 13EC  
        ??_Interrupt_INTx_SetInterruptHandler 0053           ?_Interrupt_INTx_SetInterruptHandler 0052  
          _Interrupt_INTx_SetInterruptHandler 134C                    ??_INT1_SetInterruptHandler 0051  
                                     _RB4_ISR 1AEA                                       _RB5_ISR 1AD0  
                       ?_Data_EEPROM_ReadByte 004F                                       _RB6_ISR 1AB6  
                                     _RB7_ISR 1A9C                     _RB6_InterruptHandler_HIGH 0031  
                        led_turn_toggle@F3325 0044                                       i2u56_40 1AFE  
                                     i2u56_41 1AFA                                       i2u57_40 1AE4  
                                     i2u57_41 1AE0                                       i2u58_40 1ACA  
                                     i2u58_41 1AC6                                       i2u59_40 1AB0  
                                     i2u59_41 1AAC                             RB7_ISR@RB7_source 0049  
                            ??_led_initialize 0063                                    _btn_values 1001  
                     ?_Interrupt_INTx_Disable 004F                                _tris_registers 0015  
                    _RB6_InterruptHandler_LOW 002F                     ??_Interrupt_INTx_Pin_Init 0057  
                   ?_INT0_SetInterruptHandler 004F                                       __Hparam 0000  
                                     __Lparam 0000                                  __psmallconst 1000  
                  __end_of_gpio_pin_intialize 1696                                       __pcinit 18E0  
                                     __ramtop 1000                                  _APP_CallBack 19A0  
                                     __ptext0 13EC                                       __ptext1 17C8  
                                     __ptext2 1812                                       __ptext3 1554  
                                     __ptext4 15C2                                       __ptext5 146C  
                                     __ptext6 1630                                       __ptext7 123C  
                                     __ptext8 1696                                       __ptext9 134C  
              __end_of_Interrupt_INTx_Disable 1762                          end_of_initialization 190C  
                    _INT2_SetInterruptHandler 19F6                   ??_Interrupt_INTx_Clear_Flag 0050  
                       gpio_pin_intialize@ret 0061                           led_turn_off@pin_obj 0061  
                           __end_of_program_1 185C                             __end_of_program_2 1812  
                                     postdec1 0FE5                                       postdec2 0FDD  
                    _Interrupt_INTx_Edge_Init 1016                                       postinc0 0FEE  
                                     postinc2 0FDE                         _INT1_InterruptHandler 003D  
                                   _PORTBbits 0F81                        ??_Data_EEPROM_ReadByte 0052  
                            _InterruptManager 0008                 gpio_pin_intialize@_pin_config 0057  
                 INT2_SetInterruptHandler@ret 0051          __end_of_gpio_pin_direction_intialize 123C  
                _gpio_pin_direction_intialize 112A                                  _led_turn_off 15C2  
                          relay_turn_on@F3309 0042                        Interrupt_INTx_Init@ret 0061  
                               __pidataCOMRAM 19CC                 Interrupt_INTx_Disable@int_obj 004F  
                   _Interrupt_INTx_Clear_Flag 1762                         _Interrupt_INTx_Enable 14E2  
                         start_initialization 18E0                                 ??_led_turn_on 0060  
               ?_gpio_pin_direction_intialize 004F                      Data_EEPROM_ReadByte@bAdd 004F  
                             led_turn_off@led 0057                                      ?_RB4_ISR 0049  
                                    ?_RB5_ISR 0049                                      ?_RB6_ISR 0049  
                                    ?_RB7_ISR 0049                                   __pbssCOMRAM 002B  
            __end_of_INT0_SetInterruptHandler 1A74                                 __pcstackBANK0 0060  
                         __end_of_led_turn_on 15C2                         _INT2_InterruptHandler 003B  
             gpio_pin_direction_intialize@ret 0055                         _Data_EEPROM_WriteByte 185C  
                                   __pintcode 0008               gpio_pin_write_logic@_pin_config 004F  
                   gpio_pin_write_logic@logic 0050                        ?_Interrupt_INTx_Enable 004F  
                                 __smallconst 1000                     _RB4_InterruptHandler_HIGH 0039  
                  ??_INT2_SetInterruptHandler 0051                     _RB7_InterruptHandler_HIGH 002D  
                          _gpio_pin_intialize 1630               Interrupt_INTx_Edge_Init@int_obj 004F  
              ??_gpio_pin_direction_intialize 0050                    ??_Interrupt_INTx_Edge_Init 0050  
                    _RB5_InterruptHandler_LOW 0033                                      _INT0_ISR 1972  
                                    _INT1_ISR 1944                                      _INT2_ISR 1916  
                                    _RB4_Flag 0022                                      _RB5_Flag 0021  
                                    _RB6_Flag 0020                                      _RB7_Flag 001F  
                         ?_gpio_pin_intialize 0057                     ?_INT1_SetInterruptHandler 004F  
                    __end_of_InterruptManager 029E                                      i2u300_40 0178  
                                    i2u300_41 0174                                      i2u301_40 0190  
                                    i2u301_41 018C                                      i2u310_40 0226  
                                    i2u302_40 019E                                      i2u310_41 0222  
                                    i2u302_41 019A                                      i2u230_48 195E  
                                    i2u231_40 192A                                      i2u311_40 0234  
                                    i2u303_40 01AC                                      i2u230_49 1970  
                                    i2u231_41 1926                                      i2u311_41 0230  
                                    i2u303_41 01A8                                      i2u312_40 0244  
                                    i2u304_40 01BC                                      i2u312_41 0240  
                                    i2u304_41 01B8                                      i2u217_40 19B4  
                                    i2u232_48 1930                                      i2u313_40 025C  
                                    i2u305_40 01D4                                      i2u217_41 19B0  
                                    i2u232_49 1942                                      i2u313_41 0258  
                                    i2u305_41 01D0                                      i2u314_40 026A  
                                    i2u306_40 01E2                                      i2u314_41 0266  
                                    i2u306_41 01DE                                      i2u227_40 1986  
                                    i2u315_40 0278                                      i2u307_40 01F0  
                                    i2u227_41 1982                                      i2u315_41 0274  
                                    i2u307_41 01EC                                      i2u316_40 0288  
                                    i2u308_40 0200                                      i2u316_41 0284  
                                    i2u308_41 01FC                                      i2u228_48 198C  
                                    i2u229_40 1958                                      i2u309_40 0218  
                                    i2u228_49 199E                                      i2u229_41 1954  
                                    i2u309_41 0214                                      i2u280_40 002E  
                                    i2u280_41 002A                                      i2u281_40 0040  
                                    i2u281_41 003C                                      i2u290_40 00D2  
                                    i2u282_40 004E                                      i2u290_41 00CE  
                                    i2u282_41 004A                                      i2u187_40 1892  
                                    i2u291_40 00E0                                      i2u283_40 0060  
                                    i2u187_41 188E                                      i2u291_41 00DC  
                                    i2u283_41 005C                                      i2u292_40 00F0  
                                    i2u284_40 006E                                      i2u292_41 00EC  
                                    i2u284_41 006A                                      i2u188_45 189C  
                                    i2u188_46 189E                                      i2u293_40 0108  
                                    i2u285_40 0080                                      i2u293_41 0104  
                                    i2u285_41 007C                                      i2u294_40 0116  
                                    i2u286_40 008E                                      i2u294_41 0112  
                                    i2u286_41 008A                            led_turn_on@pin_obj 0061  
                                    i2u295_40 0124                                      i2u287_40 009C  
                                    i2u279_40 0020                                      i2u295_41 0120  
                                    i2u287_41 0098                                      i2u279_41 001C  
                                    i2u296_40 0134                                      i2u288_40 00AC  
                                    i2u296_41 0130                                      i2u288_41 00A8  
                                    i2u297_40 014C                                      i2u289_40 00C4  
                                    i2u297_41 0148                                      i2u289_41 00C0  
                                    i2u298_40 015A                                      i2u298_41 0156  
                                    i2u299_40 0168                                      i2u299_41 0164  
              Interrupt_INTx_Pin_Init@int_obj 0056                             RB4_ISR@RB4_source 0049  
                                   _program_1 1812                                     _program_2 17C8  
                        ??_gpio_pin_intialize 0060                              _program_selected 0048  
                   Data_EEPROM_ReadByte@bData 0051                                   _led_turn_on 1554  
                     gpio_pin_write_logic@ret 0056                                   _INTCON2bits 0FF1  
Data_EEPROM_WriteByte@Global_Interrupt_Status 004C                                   _INTCON3bits 0FF0  
                                   copy_data0 18F4                      ?_Interrupt_INTx_Pin_Init 0056  
                    _INT0_SetInterruptHandler 1A4A                        ?_Data_EEPROM_WriteByte 0049  
                                  _EECON1bits 0FA6                                led_turn_on@led 0057  
                                    __Hrparam 0000                                      __Lrparam 0000  
                 INT0_SetInterruptHandler@ret 0051                                    ?_program_1 0049  
                                  ?_program_2 0049                    Interrupt_INTx_Init@int_obj 0060  
                          __end_of_btn_values 1011                             RB6_ISR@RB6_source 0049  
                                    __ptext10 19F6                                      __ptext11 1A20  
                                    __ptext12 1A4A                                      __ptext21 1A9C  
                                    __ptext13 1A74                                      __ptext22 1AB6  
                                    __ptext14 112A                                      __ptext23 1AD0  
                                    __ptext15 14E2                                      __ptext24 1AEA  
                                    __ptext16 1016                                      __ptext25 1916  
                                    __ptext17 16FC                                      __ptext26 1944  
                                    __ptext18 1762                                      __ptext27 1972  
                                    __ptext19 18A2                                      __ptext28 19A0  
                                    __ptext29 185C                                      _int0_obj 0023  
            Interrupt_INTx_Clear_Flag@int_obj 004F                                      isa$xinst 0000  
                                    int$flags 0059                      ??_Interrupt_INTx_Disable 0050  
                         _Interrupt_INTx_Init 1696                                    _INTCONbits 0FF2  
             __end_of_Interrupt_INTx_Pin_Init 1A9C                  __end_of_gpio_pin_write_logic 134C  
                                    intlevel2 0000                          ?_Interrupt_INTx_Init 0060  
                  Data_EEPROM_WriteByte@bData 004B         Interrupt_INTx_SetInterruptHandler@ret 0055  
                  Interrupt_INTx_Pin_Init@ret 0057                       ??_Interrupt_INTx_Enable 0050  
                                 ??_program_1 0062                                   ??_program_2 0062  
                               ?_APP_CallBack 0049                                _port_registers 0001  
                   Data_EEPROM_WriteByte@bAdd 0049              __end_of_INT1_SetInterruptHandler 1A4A  
                       ??_Interrupt_INTx_Init 0058                             ?_InterruptManager 0049  
                              _led_initialize 146C  
